; Listing generated by Microsoft (R) Optimizing Compiler Version 19.29.30038.1 

	TITLE	C:\TouchGFXProjects\MyApplication_9\TouchGFX\build\Debug\obj\image_Blue_Buttons_Round_icon_button_pressed.obj
	.686P
	.XMM
	include listing.inc
	.model	flat

INCLUDELIB MSVCRTD
INCLUDELIB OLDNAMES

PUBLIC	?image_blue_buttons_round_icon_button_pressed@@3QBEB ; image_blue_buttons_round_icon_button_pressed
CONST	SEGMENT
?image_blue_buttons_round_icon_button_pressed@@3QBEB DB 00H ; image_blue_buttons_round_icon_button_pressed
	DB	00H
	DB	00H
	DB	00H
	DB	00H
	DB	00H
	DB	00H
	DB	00H
	DB	00H
	DB	00H
	DB	00H
	DB	00H
	DB	00H
	DB	00H
	DB	00H
	DB	00H
	DB	00H
	DB	00H
	DB	00H
	DB	00H
	DB	00H
	DB	00H
	DB	00H
	DB	00H
	DB	00H
	DB	00H
	DB	00H
	DB	00H
	DB	00H
	DB	00H
	DB	00H
	DB	00H
	DB	00H
	DB	00H
	DB	00H
	DB	00H
	DB	00H
	DB	00H
	DB	00H
	DB	00H
	DB	00H
	DB	00H
	DB	00H
	DB	00H
	DB	00H
	DB	00H
	DB	00H
	DB	00H
	DB	00H
	DB	00H
	DB	00H
	DB	00H
	DB	00H
	DB	00H
	DB	00H
	DB	00H
	DB	00H
	DB	00H
	DB	00H
	DB	00H
	DB	00H
	DB	00H
	DB	00H
	DB	00H
	DB	00H
	DB	00H
	DB	00H
	DB	00H
	DB	00H
	DB	00H
	DB	00H
	DB	00H
	DB	00H
	DB	00H
	DB	00H
	DB	00H
	DB	00H
	DB	00H
	DB	00H
	DB	00H
	DB	00H
	DB	00H
	DB	00H
	DB	00H
	DB	00H
	DB	00H
	DB	00H
	DB	00H
	DB	00H
	DB	00H
	DB	00H
	DB	00H
	DB	00H
	DB	00H
	DB	00H
	DB	00H
	DB	00H
	DB	00H
	DB	00H
	DB	00H
	DB	00H
	DB	00H
	DB	00H
	DB	00H
	DB	00H
	DB	00H
	DB	00H
	DB	00H
	DB	00H
	DB	00H
	DB	00H
	DB	00H
	DB	00H
	DB	00H
	DB	00H
	DB	00H
	DB	00H
	DB	00H
	DB	00H
	DB	00H
	DB	00H
	DB	00H
	DB	00H
	DB	00H
	DB	00H
	DB	00H
	DB	00H
	DB	00H
	DB	00H
	DB	00H
	DB	00H
	DB	00H
	DB	00H
	DB	00H
	DB	00H
	DB	00H
	DB	00H
	DB	00H
	DB	00H
	DB	00H
	DB	00H
	DB	00H
	DB	00H
	DB	00H
	DB	00H
	DB	00H
	DB	00H
	DB	00H
	DB	00H
	DB	00H
	DB	00H
	DB	00H
	DB	00H
	DB	00H
	DB	00H
	DB	00H
	DB	00H
	DB	00H
	DB	00H
	DB	00H
	DB	00H
	DB	00H
	DB	00H
	DB	00H
	DB	00H
	DB	00H
	DB	00H
	DB	00H
	DB	00H
	DB	00H
	DB	00H
	DB	00H
	DB	00H
	DB	00H
	DB	00H
	DB	00H
	DB	00H
	DB	00H
	DB	00H
	DB	00H
	DB	00H
	DB	00H
	DB	00H
	DB	00H
	DB	00H
	DB	00H
	DB	00H
	DB	00H
	DB	00H
	DB	00H
	DB	00H
	DB	00H
	DB	00H
	DB	00H
	DB	00H
	DB	00H
	DB	00H
	DB	00H
	DB	00H
	DB	00H
	DB	00H
	DB	00H
	DB	00H
	DB	00H
	DB	00H
	DB	00H
	DB	00H
	DB	00H
	DB	00H
	DB	00H
	DB	00H
	DB	00H
	DB	00H
	DB	00H
	DB	00H
	DB	00H
	DB	00H
	DB	00H
	DB	00H
	DB	00H
	DB	00H
	DB	00H
	DB	00H
	DB	00H
	DB	00H
	DB	00H
	DB	00H
	DB	00H
	DB	00H
	DB	00H
	DB	00H
	DB	00H
	DB	00H
	DB	00H
	DB	00H
	DB	00H
	DB	00H
	DB	00H
	DB	00H
	DB	00H
	DB	00H
	DB	00H
	DB	00H
	DB	00H
	DB	00H
	DB	00H
	DB	00H
	DB	00H
	DB	00H
	DB	00H
	DB	00H
	DB	00H
	DB	00H
	DB	00H
	DB	00H
	DB	00H
	DB	00H
	DB	00H
	DB	00H
	DB	00H
	DB	00H
	DB	00H
	DB	00H
	DB	00H
	DB	00H
	DB	00H
	DB	00H
	DB	00H
	DB	00H
	DB	00H
	DB	00H
	DB	00H
	DB	00H
	DB	00H
	DB	00H
	DB	00H
	DB	00H
	DB	00H
	DB	00H
	DB	00H
	DB	00H
	DB	00H
	DB	00H
	DB	00H
	DB	00H
	DB	00H
	DB	00H
	DB	00H
	DB	00H
	DB	00H
	DB	00H
	DB	00H
	DB	00H
	DB	00H
	DB	00H
	DB	00H
	DB	00H
	DB	00H
	DB	00H
	DB	00H
	DB	00H
	DB	00H
	DB	00H
	DB	00H
	DB	00H
	DB	00H
	DB	00H
	DB	00H
	DB	00H
	DB	00H
	DB	00H
	DB	00H
	DB	00H
	DB	00H
	DB	00H
	DB	00H
	DB	00H
	DB	00H
	DB	00H
	DB	00H
	DB	00H
	DB	00H
	DB	00H
	DB	00H
	DB	00H
	DB	00H
	DB	00H
	DB	00H
	DB	00H
	DB	00H
	DB	00H
	DB	00H
	DB	00H
	DB	00H
	DB	00H
	DB	00H
	DB	00H
	DB	00H
	DB	00H
	DB	00H
	DB	00H
	DB	00H
	DB	00H
	DB	00H
	DB	00H
	DB	00H
	DB	00H
	DB	00H
	DB	00H
	DB	00H
	DB	00H
	DB	00H
	DB	00H
	DB	00H
	DB	00H
	DB	00H
	DB	00H
	DB	00H
	DB	00H
	DB	00H
	DB	00H
	DB	00H
	DB	00H
	DB	00H
	DB	00H
	DB	00H
	DB	00H
	DB	00H
	DB	00H
	DB	00H
	DB	00H
	DB	00H
	DB	00H
	DB	00H
	DB	00H
	DB	00H
	DB	00H
	DB	00H
	DB	00H
	DB	00H
	DB	00H
	DB	00H
	DB	00H
	DB	00H
	DB	00H
	DB	00H
	DB	00H
	DB	00H
	DB	00H
	DB	00H
	DB	00H
	DB	00H
	DB	00H
	DB	00H
	DB	00H
	DB	00H
	DB	00H
	DB	00H
	DB	00H
	DB	00H
	DB	00H
	DB	00H
	DB	00H
	DB	00H
	DB	00H
	DB	00H
	DB	00H
	DB	00H
	DB	00H
	DB	00H
	DB	00H
	DB	00H
	DB	00H
	DB	00H
	DB	00H
	DB	00H
	DB	00H
	DB	00H
	DB	00H
	DB	00H
	DB	00H
	DB	00H
	DB	00H
	DB	00H
	DB	00H
	DB	00H
	DB	00H
	DB	00H
	DB	00H
	DB	00H
	DB	00H
	DB	00H
	DB	00H
	DB	00H
	DB	00H
	DB	00H
	DB	00H
	DB	00H
	DB	00H
	DB	00H
	DB	00H
	DB	00H
	DB	00H
	DB	00H
	DB	00H
	DB	00H
	DB	00H
	DB	00H
	DB	00H
	DB	00H
	DB	00H
	DB	00H
	DB	00H
	DB	00H
	DB	00H
	DB	00H
	DB	00H
	DB	00H
	DB	00H
	DB	00H
	DB	00H
	DB	00H
	DB	00H
	DB	00H
	DB	00H
	DB	00H
	DB	00H
	DB	00H
	DB	00H
	DB	00H
	DB	00H
	DB	00H
	DB	00H
	DB	00H
	DB	00H
	DB	00H
	DB	00H
	DB	00H
	DB	00H
	DB	00H
	DB	00H
	DB	00H
	DB	00H
	DB	00H
	DB	00H
	DB	00H
	DB	00H
	DB	00H
	DB	00H
	DB	00H
	DB	00H
	DB	00H
	DB	00H
	DB	00H
	DB	00H
	DB	00H
	DB	00H
	DB	00H
	DB	00H
	DB	00H
	DB	00H
	DB	00H
	DB	00H
	DB	00H
	DB	00H
	DB	00H
	DB	00H
	DB	00H
	DB	00H
	DB	00H
	DB	00H
	DB	00H
	DB	00H
	DB	00H
	DB	00H
	DB	00H
	DB	00H
	DB	00H
	DB	00H
	DB	00H
	DB	00H
	DB	00H
	DB	00H
	DB	00H
	DB	00H
	DB	00H
	DB	00H
	DB	00H
	DB	00H
	DB	00H
	DB	00H
	DB	00H
	DB	00H
	DB	00H
	DB	00H
	DB	00H
	DB	00H
	DB	00H
	DB	00H
	DB	00H
	DB	00H
	DB	00H
	DB	00H
	DB	00H
	DB	00H
	DB	00H
	DB	00H
	DB	00H
	DB	00H
	DB	00H
	DB	00H
	DB	00H
	DB	00H
	DB	00H
	DB	00H
	DB	00H
	DB	00H
	DB	00H
	DB	00H
	DB	00H
	DB	00H
	DB	00H
	DB	00H
	DB	00H
	DB	00H
	DB	00H
	DB	00H
	DB	00H
	DB	00H
	DB	00H
	DB	00H
	DB	00H
	DB	00H
	DB	00H
	DB	00H
	DB	00H
	DB	00H
	DB	00H
	DB	00H
	DB	00H
	DB	00H
	DB	00H
	DB	00H
	DB	00H
	DB	00H
	DB	00H
	DB	00H
	DB	00H
	DB	00H
	DB	00H
	DB	00H
	DB	00H
	DB	00H
	DB	00H
	DB	00H
	DB	00H
	DB	00H
	DB	00H
	DB	00H
	DB	00H
	DB	00H
	DB	00H
	DB	00H
	DB	00H
	DB	00H
	DB	00H
	DB	00H
	DB	00H
	DB	00H
	DB	00H
	DB	00H
	DB	00H
	DB	00H
	DB	00H
	DB	00H
	DB	00H
	DB	00H
	DB	00H
	DB	00H
	DB	00H
	DB	00H
	DB	00H
	DB	00H
	DB	00H
	DB	00H
	DB	00H
	DB	00H
	DB	00H
	DB	00H
	DB	00H
	DB	00H
	DB	00H
	DB	00H
	DB	00H
	DB	00H
	DB	00H
	DB	00H
	DB	00H
	DB	00H
	DB	00H
	DB	00H
	DB	00H
	DB	00H
	DB	00H
	DB	00H
	DB	00H
	DB	00H
	DB	00H
	DB	00H
	DB	00H
	DB	00H
	DB	00H
	DB	00H
	DB	00H
	DB	00H
	DB	00H
	DB	00H
	DB	00H
	DB	00H
	DB	00H
	DB	00H
	DB	00H
	DB	00H
	DB	00H
	DB	00H
	DB	00H
	DB	00H
	DB	00H
	DB	00H
	DB	00H
	DB	00H
	DB	00H
	DB	00H
	DB	00H
	DB	00H
	DB	00H
	DB	00H
	DB	00H
	DB	00H
	DB	00H
	DB	00H
	DB	00H
	DB	00H
	DB	00H
	DB	00H
	DB	00H
	DB	00H
	DB	00H
	DB	00H
	DB	00H
	DB	00H
	DB	00H
	DB	00H
	DB	00H
	DB	00H
	DB	00H
	DB	00H
	DB	00H
	DB	00H
	DB	00H
	DB	00H
	DB	00H
	DB	00H
	DB	00H
	DB	00H
	DB	00H
	DB	00H
	DB	00H
	DB	00H
	DB	00H
	DB	00H
	DB	00H
	DB	00H
	DB	00H
	DB	00H
	DB	00H
	DB	00H
	DB	00H
	DB	00H
	DB	00H
	DB	00H
	DB	00H
	DB	00H
	DB	00H
	DB	00H
	DB	00H
	DB	00H
	DB	00H
	DB	00H
	DB	00H
	DB	00H
	DB	00H
	DB	00H
	DB	00H
	DB	00H
	DB	00H
	DB	00H
	DB	00H
	DB	00H
	DB	00H
	DB	00H
	DB	00H
	DB	00H
	DB	00H
	DB	00H
	DB	00H
	DB	00H
	DB	00H
	DB	00H
	DB	00H
	DB	00H
	DB	00H
	DB	00H
	DB	00H
	DB	00H
	DB	00H
	DB	00H
	DB	00H
	DB	00H
	DB	00H
	DB	00H
	DB	00H
	DB	00H
	DB	00H
	DB	00H
	DB	00H
	DB	00H
	DB	00H
	DB	00H
	DB	00H
	DB	00H
	DB	00H
	DB	00H
	DB	00H
	DB	00H
	DB	00H
	DB	00H
	DB	00H
	DB	00H
	DB	00H
	DB	00H
	DB	00H
	DB	00H
	DB	00H
	DB	00H
	DB	00H
	DB	00H
	DB	00H
	DB	00H
	DB	00H
	DB	00H
	DB	00H
	DB	00H
	DB	00H
	DB	00H
	DB	00H
	DB	00H
	DB	00H
	DB	00H
	DB	00H
	DB	00H
	DB	00H
	DB	00H
	DB	00H
	DB	00H
	DB	00H
	DB	00H
	DB	00H
	DB	00H
	DB	00H
	DB	00H
	DB	00H
	DB	00H
	DB	00H
	DB	00H
	DB	00H
	DB	00H
	DB	00H
	DB	00H
	DB	00H
	DB	00H
	DB	00H
	DB	00H
	DB	00H
	DB	00H
	DB	00H
	DB	00H
	DB	00H
	DB	00H
	DB	00H
	DB	00H
	DB	00H
	DB	00H
	DB	00H
	DB	00H
	DB	00H
	DB	00H
	DB	00H
	DB	00H
	DB	00H
	DB	00H
	DB	00H
	DB	00H
	DB	00H
	DB	00H
	DB	00H
	DB	00H
	DB	00H
	DB	00H
	DB	00H
	DB	00H
	DB	00H
	DB	00H
	DB	00H
	DB	00H
	DB	00H
	DB	00H
	DB	00H
	DB	00H
	DB	00H
	DB	00H
	DB	00H
	DB	00H
	DB	00H
	DB	00H
	DB	00H
	DB	00H
	DB	00H
	DB	00H
	DB	00H
	DB	00H
	DB	00H
	DB	00H
	DB	00H
	DB	00H
	DB	00H
	DB	00H
	DB	00H
	DB	00H
	DB	00H
	DB	00H
	DB	00H
	DB	00H
	DB	00H
	DB	00H
	DB	00H
	DB	00H
	DB	00H
	DB	00H
	DB	00H
	DB	00H
	DB	00H
	DB	00H
	DB	00H
	DB	00H
	DB	00H
	DB	00H
	DB	00H
	DB	00H
	DB	00H
	DB	00H
	DB	00H
	DB	00H
	DB	00H
	DB	00H
	DB	00H
	DB	00H
	DB	00H
	DB	00H
	DB	00H
	DB	00H
	DB	00H
	DB	00H
	DB	00H
	DB	00H
	DB	00H
	DB	00H
	DB	00H
	DB	00H
	DB	00H
	DB	00H
	DB	00H
	DB	00H
	DB	00H
	DB	00H
	DB	00H
	DB	00H
	DB	00H
	DB	00H
	DB	00H
	DB	00H
	DB	00H
	DB	00H
	DB	00H
	DB	00H
	DB	00H
	DB	00H
	DB	00H
	DB	00H
	DB	00H
	DB	00H
	DB	00H
	DB	00H
	DB	00H
	DB	00H
	DB	00H
	DB	00H
	DB	00H
	DB	00H
	DB	00H
	DB	00H
	DB	00H
	DB	00H
	DB	00H
	DB	00H
	DB	00H
	DB	00H
	DB	00H
	DB	00H
	DB	00H
	DB	00H
	DB	00H
	DB	00H
	DB	00H
	DB	00H
	DB	00H
	DB	00H
	DB	00H
	DB	00H
	DB	00H
	DB	00H
	DB	00H
	DB	00H
	DB	00H
	DB	00H
	DB	00H
	DB	00H
	DB	00H
	DB	00H
	DB	00H
	DB	00H
	DB	00H
	DB	00H
	DB	00H
	DB	00H
	DB	00H
	DB	00H
	DB	00H
	DB	00H
	DB	00H
	DB	00H
	DB	00H
	DB	00H
	DB	00H
	DB	00H
	DB	00H
	DB	00H
	DB	00H
	DB	00H
	DB	00H
	DB	00H
	DB	00H
	DB	00H
	DB	00H
	DB	00H
	DB	00H
	DB	00H
	DB	00H
	DB	00H
	DB	00H
	DB	00H
	DB	00H
	DB	00H
	DB	00H
	DB	00H
	DB	00H
	DB	00H
	DB	00H
	DB	00H
	DB	00H
	DB	00H
	DB	00H
	DB	00H
	DB	00H
	DB	00H
	DB	00H
	DB	00H
	DB	00H
	DB	00H
	DB	00H
	DB	00H
	DB	00H
	DB	00H
	DB	00H
	DB	00H
	DB	00H
	DB	00H
	DB	00H
	DB	00H
	DB	00H
	DB	00H
	DB	00H
	DB	00H
	DB	00H
	DB	00H
	DB	00H
	DB	00H
	DB	00H
	DB	00H
	DB	00H
	DB	00H
	DB	00H
	DB	050H
	DB	03cH
	DB	00H
	DB	01cH
	DB	050H
	DB	03cH
	DB	00H
	DB	05dH
	DB	050H
	DB	03cH
	DB	00H
	DB	092H
	DB	050H
	DB	040H
	DB	00H
	DB	0baH
	DB	058H
	DB	040H
	DB	00H
	DB	0d7H
	DB	058H
	DB	040H
	DB	00H
	DB	0ebH
	DB	058H
	DB	040H
	DB	00H
	DB	0f7H
	DB	058H
	DB	040H
	DB	00H
	DB	0f7H
	DB	058H
	DB	040H
	DB	00H
	DB	0efH
	DB	058H
	DB	040H
	DB	00H
	DB	0d7H
	DB	050H
	DB	040H
	DB	00H
	DB	0baH
	DB	050H
	DB	03cH
	DB	00H
	DB	092H
	DB	050H
	DB	03cH
	DB	00H
	DB	05dH
	DB	050H
	DB	03cH
	DB	00H
	DB	01cH
	DB	00H
	DB	00H
	DB	00H
	DB	00H
	DB	00H
	DB	00H
	DB	00H
	DB	00H
	DB	00H
	DB	00H
	DB	00H
	DB	00H
	DB	00H
	DB	00H
	DB	00H
	DB	00H
	DB	00H
	DB	00H
	DB	00H
	DB	00H
	DB	00H
	DB	00H
	DB	00H
	DB	00H
	DB	00H
	DB	00H
	DB	00H
	DB	00H
	DB	00H
	DB	00H
	DB	00H
	DB	00H
	DB	00H
	DB	00H
	DB	00H
	DB	00H
	DB	00H
	DB	00H
	DB	00H
	DB	00H
	DB	00H
	DB	00H
	DB	00H
	DB	00H
	DB	00H
	DB	00H
	DB	00H
	DB	00H
	DB	00H
	DB	00H
	DB	00H
	DB	00H
	DB	00H
	DB	00H
	DB	00H
	DB	00H
	DB	00H
	DB	00H
	DB	00H
	DB	00H
	DB	00H
	DB	00H
	DB	00H
	DB	00H
	DB	00H
	DB	00H
	DB	00H
	DB	00H
	DB	00H
	DB	00H
	DB	00H
	DB	00H
	DB	00H
	DB	00H
	DB	00H
	DB	00H
	DB	00H
	DB	00H
	DB	00H
	DB	00H
	DB	00H
	DB	00H
	DB	00H
	DB	00H
	DB	00H
	DB	00H
	DB	00H
	DB	00H
	DB	00H
	DB	00H
	DB	00H
	DB	00H
	DB	00H
	DB	00H
	DB	00H
	DB	00H
	DB	00H
	DB	00H
	DB	00H
	DB	00H
	DB	00H
	DB	00H
	DB	00H
	DB	00H
	DB	00H
	DB	00H
	DB	00H
	DB	00H
	DB	00H
	DB	00H
	DB	00H
	DB	00H
	DB	00H
	DB	00H
	DB	00H
	DB	00H
	DB	00H
	DB	00H
	DB	00H
	DB	00H
	DB	00H
	DB	00H
	DB	00H
	DB	00H
	DB	00H
	DB	00H
	DB	00H
	DB	00H
	DB	00H
	DB	00H
	DB	00H
	DB	00H
	DB	00H
	DB	00H
	DB	00H
	DB	00H
	DB	00H
	DB	00H
	DB	00H
	DB	00H
	DB	00H
	DB	00H
	DB	00H
	DB	00H
	DB	00H
	DB	00H
	DB	00H
	DB	00H
	DB	00H
	DB	00H
	DB	00H
	DB	00H
	DB	00H
	DB	00H
	DB	00H
	DB	00H
	DB	00H
	DB	00H
	DB	00H
	DB	00H
	DB	00H
	DB	00H
	DB	00H
	DB	00H
	DB	00H
	DB	00H
	DB	00H
	DB	00H
	DB	00H
	DB	00H
	DB	00H
	DB	00H
	DB	050H
	DB	03cH
	DB	00H
	DB	01cH
	DB	050H
	DB	03cH
	DB	00H
	DB	07dH
	DB	058H
	DB	040H
	DB	00H
	DB	0d3H
	DB	058H
	DB	044H
	DB	00H
	DB	0ffH
	DB	060H
	DB	044H
	DB	00H
	DB	0ffH
	DB	060H
	DB	048H
	DB	00H
	DB	0ffH
	DB	068H
	DB	048H
	DB	00H
	DB	0ffH
	DB	068H
	DB	04cH
	DB	00H
	DB	0ffH
	DB	068H
	DB	04cH
	DB	00H
	DB	0ffH
	DB	068H
	DB	04cH
	DB	00H
	DB	0ffH
	DB	068H
	DB	04cH
	DB	00H
	DB	0ffH
	DB	068H
	DB	04cH
	DB	00H
	DB	0ffH
	DB	068H
	DB	04cH
	DB	00H
	DB	0ffH
	DB	060H
	DB	048H
	DB	00H
	DB	0ffH
	DB	060H
	DB	048H
	DB	00H
	DB	0ffH
	DB	060H
	DB	044H
	DB	00H
	DB	0ffH
	DB	058H
	DB	044H
	DB	00H
	DB	0ffH
	DB	058H
	DB	040H
	DB	00H
	DB	0d3H
	DB	050H
	DB	03cH
	DB	00H
	DB	07dH
	DB	050H
	DB	03cH
	DB	00H
	DB	020H
	DB	00H
	DB	00H
	DB	00H
	DB	00H
	DB	00H
	DB	00H
	DB	00H
	DB	00H
	DB	00H
	DB	00H
	DB	00H
	DB	00H
	DB	00H
	DB	00H
	DB	00H
	DB	00H
	DB	00H
	DB	00H
	DB	00H
	DB	00H
	DB	00H
	DB	00H
	DB	00H
	DB	00H
	DB	00H
	DB	00H
	DB	00H
	DB	00H
	DB	00H
	DB	00H
	DB	00H
	DB	00H
	DB	00H
	DB	00H
	DB	00H
	DB	00H
	DB	00H
	DB	00H
	DB	00H
	DB	00H
	DB	00H
	DB	00H
	DB	00H
	DB	00H
	DB	00H
	DB	00H
	DB	00H
	DB	00H
	DB	00H
	DB	00H
	DB	00H
	DB	00H
	DB	00H
	DB	00H
	DB	00H
	DB	00H
	DB	00H
	DB	00H
	DB	00H
	DB	00H
	DB	00H
	DB	00H
	DB	00H
	DB	00H
	DB	00H
	DB	00H
	DB	00H
	DB	00H
	DB	00H
	DB	00H
	DB	00H
	DB	00H
	DB	00H
	DB	00H
	DB	00H
	DB	00H
	DB	00H
	DB	00H
	DB	00H
	DB	00H
	DB	00H
	DB	00H
	DB	00H
	DB	00H
	DB	00H
	DB	00H
	DB	00H
	DB	00H
	DB	00H
	DB	00H
	DB	00H
	DB	00H
	DB	00H
	DB	00H
	DB	00H
	DB	00H
	DB	00H
	DB	00H
	DB	00H
	DB	00H
	DB	00H
	DB	00H
	DB	00H
	DB	00H
	DB	00H
	DB	00H
	DB	00H
	DB	00H
	DB	00H
	DB	00H
	DB	00H
	DB	00H
	DB	00H
	DB	00H
	DB	00H
	DB	00H
	DB	00H
	DB	00H
	DB	00H
	DB	00H
	DB	00H
	DB	00H
	DB	00H
	DB	00H
	DB	00H
	DB	00H
	DB	00H
	DB	00H
	DB	00H
	DB	00H
	DB	00H
	DB	00H
	DB	00H
	DB	00H
	DB	00H
	DB	00H
	DB	00H
	DB	00H
	DB	00H
	DB	00H
	DB	00H
	DB	00H
	DB	00H
	DB	00H
	DB	00H
	DB	00H
	DB	00H
	DB	00H
	DB	00H
	DB	00H
	DB	00H
	DB	00H
	DB	050H
	DB	03cH
	DB	00H
	DB	030H
	DB	050H
	DB	03cH
	DB	00H
	DB	0aaH
	DB	058H
	DB	040H
	DB	00H
	DB	0fbH
	DB	060H
	DB	048H
	DB	00H
	DB	0ffH
	DB	068H
	DB	048H
	DB	00H
	DB	0ffH
	DB	068H
	DB	04cH
	DB	00H
	DB	0ffH
	DB	070H
	DB	050H
	DB	00H
	DB	0ffH
	DB	070H
	DB	054H
	DB	00H
	DB	0ffH
	DB	070H
	DB	054H
	DB	00H
	DB	0ffH
	DB	070H
	DB	054H
	DB	00H
	DB	0ffH
	DB	070H
	DB	058H
	DB	00H
	DB	0ffH
	DB	078H
	DB	058H
	DB	00H
	DB	0ffH
	DB	078H
	DB	054H
	DB	00H
	DB	0ffH
	DB	070H
	DB	058H
	DB	00H
	DB	0ffH
	DB	078H
	DB	054H
	DB	00H
	DB	0ffH
	DB	070H
	DB	054H
	DB	00H
	DB	0ffH
	DB	070H
	DB	054H
	DB	00H
	DB	0ffH
	DB	070H
	DB	050H
	DB	00H
	DB	0ffH
	DB	068H
	DB	04cH
	DB	00H
	DB	0ffH
	DB	068H
	DB	048H
	DB	00H
	DB	0ffH
	DB	060H
	DB	048H
	DB	00H
	DB	0ffH
	DB	058H
	DB	040H
	DB	00H
	DB	0fbH
	DB	058H
	DB	03cH
	DB	00H
	DB	0aaH
	DB	050H
	DB	03cH
	DB	00H
	DB	030H
	DB	00H
	DB	00H
	DB	00H
	DB	00H
	DB	00H
	DB	00H
	DB	00H
	DB	00H
	DB	00H
	DB	00H
	DB	00H
	DB	00H
	DB	00H
	DB	00H
	DB	00H
	DB	00H
	DB	00H
	DB	00H
	DB	00H
	DB	00H
	DB	00H
	DB	00H
	DB	00H
	DB	00H
	DB	00H
	DB	00H
	DB	00H
	DB	00H
	DB	00H
	DB	00H
	DB	00H
	DB	00H
	DB	00H
	DB	00H
	DB	00H
	DB	00H
	DB	00H
	DB	00H
	DB	00H
	DB	00H
	DB	00H
	DB	00H
	DB	00H
	DB	00H
	DB	00H
	DB	00H
	DB	00H
	DB	00H
	DB	00H
	DB	00H
	DB	00H
	DB	00H
	DB	00H
	DB	00H
	DB	00H
	DB	00H
	DB	00H
	DB	00H
	DB	00H
	DB	00H
	DB	00H
	DB	00H
	DB	00H
	DB	00H
	DB	00H
	DB	00H
	DB	00H
	DB	00H
	DB	00H
	DB	00H
	DB	00H
	DB	00H
	DB	00H
	DB	00H
	DB	00H
	DB	00H
	DB	00H
	DB	00H
	DB	00H
	DB	00H
	DB	00H
	DB	00H
	DB	00H
	DB	00H
	DB	00H
	DB	00H
	DB	00H
	DB	00H
	DB	00H
	DB	00H
	DB	00H
	DB	00H
	DB	00H
	DB	00H
	DB	00H
	DB	00H
	DB	00H
	DB	00H
	DB	00H
	DB	00H
	DB	00H
	DB	00H
	DB	00H
	DB	00H
	DB	00H
	DB	00H
	DB	00H
	DB	00H
	DB	00H
	DB	00H
	DB	00H
	DB	00H
	DB	00H
	DB	00H
	DB	00H
	DB	00H
	DB	00H
	DB	00H
	DB	00H
	DB	00H
	DB	00H
	DB	00H
	DB	00H
	DB	00H
	DB	00H
	DB	00H
	DB	00H
	DB	00H
	DB	00H
	DB	00H
	DB	00H
	DB	00H
	DB	00H
	DB	00H
	DB	00H
	DB	00H
	DB	050H
	DB	03cH
	DB	00H
	DB	014H
	DB	058H
	DB	03cH
	DB	00H
	DB	09eH
	DB	058H
	DB	044H
	DB	00H
	DB	0ffH
	DB	060H
	DB	04cH
	DB	00H
	DB	0ffH
	DB	068H
	DB	050H
	DB	00H
	DB	0ffH
	DB	070H
	DB	054H
	DB	00H
	DB	0ffH
	DB	070H
	DB	054H
	DB	00H
	DB	0ffH
	DB	078H
	DB	058H
	DB	00H
	DB	0ffH
	DB	078H
	DB	058H
	DB	00H
	DB	0ffH
	DB	078H
	DB	05cH
	DB	00H
	DB	0ffH
	DB	078H
	DB	05cH
	DB	00H
	DB	0ffH
	DB	080H
	DB	05cH
	DB	00H
	DB	0ffH
	DB	080H
	DB	05cH
	DB	00H
	DB	0ffH
	DB	078H
	DB	05cH
	DB	00H
	DB	0ffH
	DB	080H
	DB	05cH
	DB	00H
	DB	0ffH
	DB	078H
	DB	05cH
	DB	00H
	DB	0ffH
	DB	078H
	DB	05cH
	DB	00H
	DB	0ffH
	DB	080H
	DB	05cH
	DB	00H
	DB	0ffH
	DB	078H
	DB	058H
	DB	00H
	DB	0ffH
	DB	078H
	DB	058H
	DB	00H
	DB	0ffH
	DB	078H
	DB	058H
	DB	00H
	DB	0ffH
	DB	070H
	DB	054H
	DB	00H
	DB	0ffH
	DB	070H
	DB	054H
	DB	00H
	DB	0ffH
	DB	068H
	DB	050H
	DB	00H
	DB	0ffH
	DB	060H
	DB	04cH
	DB	00H
	DB	0ffH
	DB	058H
	DB	044H
	DB	00H
	DB	0ffH
	DB	058H
	DB	03cH
	DB	00H
	DB	09eH
	DB	050H
	DB	03cH
	DB	00H
	DB	014H
	DB	00H
	DB	00H
	DB	00H
	DB	00H
	DB	00H
	DB	00H
	DB	00H
	DB	00H
	DB	00H
	DB	00H
	DB	00H
	DB	00H
	DB	00H
	DB	00H
	DB	00H
	DB	00H
	DB	00H
	DB	00H
	DB	00H
	DB	00H
	DB	00H
	DB	00H
	DB	00H
	DB	00H
	DB	00H
	DB	00H
	DB	00H
	DB	00H
	DB	00H
	DB	00H
	DB	00H
	DB	00H
	DB	00H
	DB	00H
	DB	00H
	DB	00H
	DB	00H
	DB	00H
	DB	00H
	DB	00H
	DB	00H
	DB	00H
	DB	00H
	DB	00H
	DB	00H
	DB	00H
	DB	00H
	DB	00H
	DB	00H
	DB	00H
	DB	00H
	DB	00H
	DB	00H
	DB	00H
	DB	00H
	DB	00H
	DB	00H
	DB	00H
	DB	00H
	DB	00H
	DB	00H
	DB	00H
	DB	00H
	DB	00H
	DB	00H
	DB	00H
	DB	00H
	DB	00H
	DB	00H
	DB	00H
	DB	00H
	DB	00H
	DB	00H
	DB	00H
	DB	00H
	DB	00H
	DB	00H
	DB	00H
	DB	00H
	DB	00H
	DB	00H
	DB	00H
	DB	00H
	DB	00H
	DB	00H
	DB	00H
	DB	00H
	DB	00H
	DB	00H
	DB	00H
	DB	00H
	DB	00H
	DB	00H
	DB	00H
	DB	00H
	DB	00H
	DB	00H
	DB	00H
	DB	00H
	DB	00H
	DB	00H
	DB	00H
	DB	00H
	DB	00H
	DB	00H
	DB	00H
	DB	00H
	DB	00H
	DB	00H
	DB	00H
	DB	00H
	DB	00H
	DB	00H
	DB	00H
	DB	00H
	DB	00H
	DB	00H
	DB	00H
	DB	00H
	DB	00H
	DB	00H
	DB	00H
	DB	00H
	DB	00H
	DB	050H
	DB	03cH
	DB	00H
	DB	055H
	DB	058H
	DB	040H
	DB	00H
	DB	0efH
	DB	060H
	DB	048H
	DB	00H
	DB	0ffH
	DB	070H
	DB	050H
	DB	00H
	DB	0ffH
	DB	070H
	DB	054H
	DB	00H
	DB	0ffH
	DB	078H
	DB	058H
	DB	00H
	DB	0ffH
	DB	078H
	DB	058H
	DB	00H
	DB	0ffH
	DB	080H
	DB	05cH
	DB	00H
	DB	0ffH
	DB	080H
	DB	05cH
	DB	00H
	DB	0ffH
	DB	080H
	DB	060H
	DB	08H
	DB	0ffH
	DB	080H
	DB	060H
	DB	00H
	DB	0ffH
	DB	080H
	DB	05cH
	DB	00H
	DB	0ffH
	DB	080H
	DB	060H
	DB	08H
	DB	0ffH
	DB	080H
	DB	060H
	DB	00H
	DB	0ffH
	DB	080H
	DB	060H
	DB	00H
	DB	0ffH
	DB	080H
	DB	060H
	DB	08H
	DB	0ffH
	DB	080H
	DB	060H
	DB	00H
	DB	0ffH
	DB	080H
	DB	060H
	DB	00H
	DB	0ffH
	DB	080H
	DB	060H
	DB	08H
	DB	0ffH
	DB	080H
	DB	060H
	DB	00H
	DB	0ffH
	DB	080H
	DB	060H
	DB	00H
	DB	0ffH
	DB	080H
	DB	05cH
	DB	08H
	DB	0ffH
	DB	078H
	DB	05cH
	DB	00H
	DB	0ffH
	DB	078H
	DB	05cH
	DB	00H
	DB	0ffH
	DB	078H
	DB	058H
	DB	00H
	DB	0ffH
	DB	070H
	DB	054H
	DB	00H
	DB	0ffH
	DB	068H
	DB	050H
	DB	00H
	DB	0ffH
	DB	060H
	DB	048H
	DB	00H
	DB	0ffH
	DB	058H
	DB	040H
	DB	00H
	DB	0efH
	DB	050H
	DB	03cH
	DB	00H
	DB	055H
	DB	00H
	DB	00H
	DB	00H
	DB	00H
	DB	00H
	DB	00H
	DB	00H
	DB	00H
	DB	00H
	DB	00H
	DB	00H
	DB	00H
	DB	00H
	DB	00H
	DB	00H
	DB	00H
	DB	00H
	DB	00H
	DB	00H
	DB	00H
	DB	00H
	DB	00H
	DB	00H
	DB	00H
	DB	00H
	DB	00H
	DB	00H
	DB	00H
	DB	00H
	DB	00H
	DB	00H
	DB	00H
	DB	00H
	DB	00H
	DB	00H
	DB	00H
	DB	00H
	DB	00H
	DB	00H
	DB	00H
	DB	00H
	DB	00H
	DB	00H
	DB	00H
	DB	00H
	DB	00H
	DB	00H
	DB	00H
	DB	00H
	DB	00H
	DB	00H
	DB	00H
	DB	00H
	DB	00H
	DB	00H
	DB	00H
	DB	00H
	DB	00H
	DB	00H
	DB	00H
	DB	00H
	DB	00H
	DB	00H
	DB	00H
	DB	00H
	DB	00H
	DB	00H
	DB	00H
	DB	00H
	DB	00H
	DB	00H
	DB	00H
	DB	00H
	DB	00H
	DB	00H
	DB	00H
	DB	00H
	DB	00H
	DB	00H
	DB	00H
	DB	00H
	DB	00H
	DB	00H
	DB	00H
	DB	00H
	DB	00H
	DB	00H
	DB	00H
	DB	00H
	DB	00H
	DB	00H
	DB	00H
	DB	00H
	DB	00H
	DB	00H
	DB	00H
	DB	00H
	DB	00H
	DB	00H
	DB	00H
	DB	00H
	DB	00H
	DB	00H
	DB	00H
	DB	00H
	DB	00H
	DB	00H
	DB	00H
	DB	00H
	DB	00H
	DB	00H
	DB	00H
	DB	050H
	DB	03cH
	DB	00H
	DB	04H
	DB	058H
	DB	03cH
	DB	00H
	DB	096H
	DB	060H
	DB	044H
	DB	00H
	DB	0ffH
	DB	068H
	DB	04cH
	DB	00H
	DB	0ffH
	DB	070H
	DB	054H
	DB	00H
	DB	0ffH
	DB	078H
	DB	058H
	DB	00H
	DB	0ffH
	DB	080H
	DB	058H
	DB	00H
	DB	0ffH
	DB	080H
	DB	05cH
	DB	00H
	DB	0ffH
	DB	080H
	DB	05cH
	DB	00H
	DB	0ffH
	DB	080H
	DB	060H
	DB	00H
	DB	0ffH
	DB	080H
	DB	060H
	DB	00H
	DB	0ffH
	DB	080H
	DB	060H
	DB	00H
	DB	0ffH
	DB	088H
	DB	060H
	DB	00H
	DB	0ffH
	DB	088H
	DB	060H
	DB	00H
	DB	0ffH
	DB	080H
	DB	064H
	DB	00H
	DB	0ffH
	DB	088H
	DB	060H
	DB	00H
	DB	0ffH
	DB	088H
	DB	064H
	DB	00H
	DB	0ffH
	DB	088H
	DB	064H
	DB	00H
	DB	0ffH
	DB	088H
	DB	060H
	DB	00H
	DB	0ffH
	DB	088H
	DB	060H
	DB	00H
	DB	0ffH
	DB	088H
	DB	064H
	DB	00H
	DB	0ffH
	DB	080H
	DB	060H
	DB	00H
	DB	0ffH
	DB	080H
	DB	060H
	DB	00H
	DB	0ffH
	DB	080H
	DB	060H
	DB	00H
	DB	0ffH
	DB	080H
	DB	060H
	DB	00H
	DB	0ffH
	DB	080H
	DB	05cH
	DB	00H
	DB	0ffH
	DB	080H
	DB	05cH
	DB	08H
	DB	0ffH
	DB	080H
	DB	058H
	DB	00H
	DB	0ffH
	DB	078H
	DB	058H
	DB	00H
	DB	0ffH
	DB	070H
	DB	054H
	DB	00H
	DB	0ffH
	DB	068H
	DB	04cH
	DB	00H
	DB	0ffH
	DB	060H
	DB	044H
	DB	00H
	DB	0ffH
	DB	058H
	DB	040H
	DB	00H
	DB	096H
	DB	050H
	DB	03cH
	DB	00H
	DB	04H
	DB	00H
	DB	00H
	DB	00H
	DB	00H
	DB	00H
	DB	00H
	DB	00H
	DB	00H
	DB	00H
	DB	00H
	DB	00H
	DB	00H
	DB	00H
	DB	00H
	DB	00H
	DB	00H
	DB	00H
	DB	00H
	DB	00H
	DB	00H
	DB	00H
	DB	00H
	DB	00H
	DB	00H
	DB	00H
	DB	00H
	DB	00H
	DB	00H
	DB	00H
	DB	00H
	DB	00H
	DB	00H
	DB	00H
	DB	00H
	DB	00H
	DB	00H
	DB	00H
	DB	00H
	DB	00H
	DB	00H
	DB	00H
	DB	00H
	DB	00H
	DB	00H
	DB	00H
	DB	00H
	DB	00H
	DB	00H
	DB	00H
	DB	00H
	DB	00H
	DB	00H
	DB	00H
	DB	00H
	DB	00H
	DB	00H
	DB	00H
	DB	00H
	DB	00H
	DB	00H
	DB	00H
	DB	00H
	DB	00H
	DB	00H
	DB	00H
	DB	00H
	DB	00H
	DB	00H
	DB	00H
	DB	00H
	DB	00H
	DB	00H
	DB	00H
	DB	00H
	DB	00H
	DB	00H
	DB	00H
	DB	00H
	DB	00H
	DB	00H
	DB	00H
	DB	00H
	DB	00H
	DB	00H
	DB	00H
	DB	00H
	DB	00H
	DB	00H
	DB	00H
	DB	00H
	DB	00H
	DB	00H
	DB	00H
	DB	00H
	DB	00H
	DB	00H
	DB	00H
	DB	00H
	DB	00H
	DB	00H
	DB	050H
	DB	03cH
	DB	00H
	DB	0cH
	DB	058H
	DB	040H
	DB	00H
	DB	0baH
	DB	060H
	DB	048H
	DB	00H
	DB	0ffH
	DB	068H
	DB	050H
	DB	00H
	DB	0ffH
	DB	078H
	DB	054H
	DB	00H
	DB	0ffH
	DB	078H
	DB	05cH
	DB	00H
	DB	0ffH
	DB	080H
	DB	05cH
	DB	00H
	DB	0ffH
	DB	080H
	DB	060H
	DB	08H
	DB	0ffH
	DB	080H
	DB	060H
	DB	00H
	DB	0ffH
	DB	080H
	DB	060H
	DB	00H
	DB	0ffH
	DB	088H
	DB	060H
	DB	08H
	DB	0ffH
	DB	080H
	DB	064H
	DB	00H
	DB	0ffH
	DB	088H
	DB	060H
	DB	00H
	DB	0ffH
	DB	088H
	DB	064H
	DB	00H
	DB	0ffH
	DB	088H
	DB	064H
	DB	00H
	DB	0ffH
	DB	088H
	DB	060H
	DB	00H
	DB	0ffH
	DB	088H
	DB	060H
	DB	00H
	DB	0ffH
	DB	080H
	DB	064H
	DB	00H
	DB	0ffH
	DB	088H
	DB	060H
	DB	00H
	DB	0ffH
	DB	088H
	DB	064H
	DB	00H
	DB	0ffH
	DB	080H
	DB	060H
	DB	00H
	DB	0ffH
	DB	088H
	DB	064H
	DB	00H
	DB	0ffH
	DB	088H
	DB	060H
	DB	00H
	DB	0ffH
	DB	088H
	DB	060H
	DB	00H
	DB	0ffH
	DB	088H
	DB	064H
	DB	00H
	DB	0ffH
	DB	088H
	DB	060H
	DB	00H
	DB	0ffH
	DB	080H
	DB	060H
	DB	00H
	DB	0ffH
	DB	080H
	DB	060H
	DB	00H
	DB	0ffH
	DB	080H
	DB	060H
	DB	00H
	DB	0ffH
	DB	080H
	DB	05cH
	DB	00H
	DB	0ffH
	DB	078H
	DB	05cH
	DB	08H
	DB	0ffH
	DB	078H
	DB	054H
	DB	00H
	DB	0ffH
	DB	070H
	DB	050H
	DB	00H
	DB	0ffH
	DB	060H
	DB	048H
	DB	00H
	DB	0ffH
	DB	058H
	DB	040H
	DB	00H
	DB	0baH
	DB	050H
	DB	03cH
	DB	00H
	DB	0cH
	DB	00H
	DB	00H
	DB	00H
	DB	00H
	DB	00H
	DB	00H
	DB	00H
	DB	00H
	DB	00H
	DB	00H
	DB	00H
	DB	00H
	DB	00H
	DB	00H
	DB	00H
	DB	00H
	DB	00H
	DB	00H
	DB	00H
	DB	00H
	DB	00H
	DB	00H
	DB	00H
	DB	00H
	DB	00H
	DB	00H
	DB	00H
	DB	00H
	DB	00H
	DB	00H
	DB	00H
	DB	00H
	DB	00H
	DB	00H
	DB	00H
	DB	00H
	DB	00H
	DB	00H
	DB	00H
	DB	00H
	DB	00H
	DB	00H
	DB	00H
	DB	00H
	DB	00H
	DB	00H
	DB	00H
	DB	00H
	DB	00H
	DB	00H
	DB	00H
	DB	00H
	DB	00H
	DB	00H
	DB	00H
	DB	00H
	DB	00H
	DB	00H
	DB	00H
	DB	00H
	DB	00H
	DB	00H
	DB	00H
	DB	00H
	DB	00H
	DB	00H
	DB	00H
	DB	00H
	DB	00H
	DB	00H
	DB	00H
	DB	00H
	DB	00H
	DB	00H
	DB	00H
	DB	00H
	DB	00H
	DB	00H
	DB	00H
	DB	00H
	DB	00H
	DB	00H
	DB	00H
	DB	00H
	DB	00H
	DB	00H
	DB	00H
	DB	00H
	DB	00H
	DB	00H
	DB	00H
	DB	00H
	DB	050H
	DB	03cH
	DB	00H
	DB	08H
	DB	058H
	DB	040H
	DB	00H
	DB	0c7H
	DB	068H
	DB	04cH
	DB	00H
	DB	0ffH
	DB	070H
	DB	054H
	DB	00H
	DB	0ffH
	DB	078H
	DB	058H
	DB	00H
	DB	0ffH
	DB	078H
	DB	05cH
	DB	00H
	DB	0ffH
	DB	080H
	DB	060H
	DB	00H
	DB	0ffH
	DB	080H
	DB	060H
	DB	00H
	DB	0ffH
	DB	080H
	DB	064H
	DB	00H
	DB	0ffH
	DB	088H
	DB	064H
	DB	00H
	DB	0ffH
	DB	088H
	DB	064H
	DB	00H
	DB	0ffH
	DB	088H
	DB	064H
	DB	00H
	DB	0ffH
	DB	088H
	DB	064H
	DB	00H
	DB	0ffH
	DB	088H
	DB	064H
	DB	00H
	DB	0ffH
	DB	080H
	DB	064H
	DB	08H
	DB	0ffH
	DB	088H
	DB	064H
	DB	00H
	DB	0ffH
	DB	088H
	DB	064H
	DB	00H
	DB	0ffH
	DB	080H
	DB	064H
	DB	08H
	DB	0ffH
	DB	088H
	DB	064H
	DB	00H
	DB	0ffH
	DB	088H
	DB	064H
	DB	00H
	DB	0ffH
	DB	088H
	DB	064H
	DB	08H
	DB	0ffH
	DB	080H
	DB	064H
	DB	00H
	DB	0ffH
	DB	088H
	DB	064H
	DB	00H
	DB	0ffH
	DB	088H
	DB	064H
	DB	08H
	DB	0ffH
	DB	088H
	DB	064H
	DB	00H
	DB	0ffH
	DB	088H
	DB	064H
	DB	00H
	DB	0ffH
	DB	088H
	DB	064H
	DB	08H
	DB	0ffH
	DB	088H
	DB	064H
	DB	00H
	DB	0ffH
	DB	088H
	DB	064H
	DB	00H
	DB	0ffH
	DB	080H
	DB	060H
	DB	00H
	DB	0ffH
	DB	080H
	DB	060H
	DB	00H
	DB	0ffH
	DB	080H
	DB	060H
	DB	00H
	DB	0ffH
	DB	080H
	DB	05cH
	DB	00H
	DB	0ffH
	DB	078H
	DB	058H
	DB	00H
	DB	0ffH
	DB	070H
	DB	054H
	DB	00H
	DB	0ffH
	DB	060H
	DB	04cH
	DB	00H
	DB	0ffH
	DB	058H
	DB	040H
	DB	00H
	DB	0c7H
	DB	050H
	DB	03cH
	DB	00H
	DB	08H
	DB	00H
	DB	00H
	DB	00H
	DB	00H
	DB	00H
	DB	00H
	DB	00H
	DB	00H
	DB	00H
	DB	00H
	DB	00H
	DB	00H
	DB	00H
	DB	00H
	DB	00H
	DB	00H
	DB	00H
	DB	00H
	DB	00H
	DB	00H
	DB	00H
	DB	00H
	DB	00H
	DB	00H
	DB	00H
	DB	00H
	DB	00H
	DB	00H
	DB	00H
	DB	00H
	DB	00H
	DB	00H
	DB	00H
	DB	00H
	DB	00H
	DB	00H
	DB	00H
	DB	00H
	DB	00H
	DB	00H
	DB	00H
	DB	00H
	DB	00H
	DB	00H
	DB	00H
	DB	00H
	DB	00H
	DB	00H
	DB	00H
	DB	00H
	DB	00H
	DB	00H
	DB	00H
	DB	00H
	DB	00H
	DB	00H
	DB	00H
	DB	00H
	DB	00H
	DB	00H
	DB	00H
	DB	00H
	DB	00H
	DB	00H
	DB	00H
	DB	00H
	DB	00H
	DB	00H
	DB	00H
	DB	00H
	DB	00H
	DB	00H
	DB	00H
	DB	00H
	DB	00H
	DB	00H
	DB	00H
	DB	00H
	DB	00H
	DB	00H
	DB	00H
	DB	00H
	DB	00H
	DB	00H
	DB	050H
	DB	03cH
	DB	00H
	DB	04H
	DB	058H
	DB	040H
	DB	00H
	DB	0beH
	DB	068H
	DB	04cH
	DB	00H
	DB	0ffH
	DB	070H
	DB	054H
	DB	00H
	DB	0ffH
	DB	078H
	DB	058H
	DB	00H
	DB	0ffH
	DB	080H
	DB	060H
	DB	00H
	DB	0ffH
	DB	080H
	DB	060H
	DB	08H
	DB	0ffH
	DB	088H
	DB	060H
	DB	00H
	DB	0ffH
	DB	088H
	DB	060H
	DB	00H
	DB	0ffH
	DB	088H
	DB	064H
	DB	00H
	DB	0ffH
	DB	088H
	DB	064H
	DB	00H
	DB	0ffH
	DB	088H
	DB	064H
	DB	00H
	DB	0ffH
	DB	088H
	DB	064H
	DB	00H
	DB	0ffH
	DB	088H
	DB	064H
	DB	00H
	DB	0ffH
	DB	080H
	DB	064H
	DB	00H
	DB	0ffH
	DB	088H
	DB	060H
	DB	00H
	DB	0ffH
	DB	088H
	DB	064H
	DB	00H
	DB	0ffH
	DB	080H
	DB	064H
	DB	00H
	DB	0ffH
	DB	088H
	DB	064H
	DB	00H
	DB	0ffH
	DB	088H
	DB	060H
	DB	00H
	DB	0ffH
	DB	088H
	DB	064H
	DB	00H
	DB	0ffH
	DB	080H
	DB	064H
	DB	00H
	DB	0ffH
	DB	088H
	DB	064H
	DB	00H
	DB	0ffH
	DB	088H
	DB	064H
	DB	00H
	DB	0ffH
	DB	080H
	DB	064H
	DB	00H
	DB	0ffH
	DB	088H
	DB	064H
	DB	00H
	DB	0ffH
	DB	080H
	DB	064H
	DB	00H
	DB	0ffH
	DB	088H
	DB	064H
	DB	00H
	DB	0ffH
	DB	088H
	DB	064H
	DB	00H
	DB	0ffH
	DB	088H
	DB	064H
	DB	00H
	DB	0ffH
	DB	088H
	DB	064H
	DB	08H
	DB	0ffH
	DB	088H
	DB	060H
	DB	00H
	DB	0ffH
	DB	080H
	DB	060H
	DB	00H
	DB	0ffH
	DB	080H
	DB	060H
	DB	00H
	DB	0ffH
	DB	080H
	DB	05cH
	DB	08H
	DB	0ffH
	DB	078H
	DB	058H
	DB	00H
	DB	0ffH
	DB	070H
	DB	054H
	DB	00H
	DB	0ffH
	DB	068H
	DB	04cH
	DB	00H
	DB	0ffH
	DB	058H
	DB	040H
	DB	00H
	DB	0beH
	DB	050H
	DB	03cH
	DB	00H
	DB	04H
	DB	00H
	DB	00H
	DB	00H
	DB	00H
	DB	00H
	DB	00H
	DB	00H
	DB	00H
	DB	00H
	DB	00H
	DB	00H
	DB	00H
	DB	00H
	DB	00H
	DB	00H
	DB	00H
	DB	00H
	DB	00H
	DB	00H
	DB	00H
	DB	00H
	DB	00H
	DB	00H
	DB	00H
	DB	00H
	DB	00H
	DB	00H
	DB	00H
	DB	00H
	DB	00H
	DB	00H
	DB	00H
	DB	00H
	DB	00H
	DB	00H
	DB	00H
	DB	00H
	DB	00H
	DB	00H
	DB	00H
	DB	00H
	DB	00H
	DB	00H
	DB	00H
	DB	00H
	DB	00H
	DB	00H
	DB	00H
	DB	00H
	DB	00H
	DB	00H
	DB	00H
	DB	00H
	DB	00H
	DB	00H
	DB	00H
	DB	00H
	DB	00H
	DB	00H
	DB	00H
	DB	00H
	DB	00H
	DB	00H
	DB	00H
	DB	00H
	DB	00H
	DB	00H
	DB	00H
	DB	00H
	DB	00H
	DB	00H
	DB	00H
	DB	00H
	DB	00H
	DB	00H
	DB	00H
	DB	00H
	DB	00H
	DB	00H
	DB	00H
	DB	058H
	DB	040H
	DB	00H
	DB	096H
	DB	060H
	DB	048H
	DB	00H
	DB	0ffH
	DB	070H
	DB	054H
	DB	00H
	DB	0ffH
	DB	078H
	DB	058H
	DB	00H
	DB	0ffH
	DB	080H
	DB	05cH
	DB	00H
	DB	0ffH
	DB	080H
	DB	060H
	DB	00H
	DB	0ffH
	DB	088H
	DB	064H
	DB	00H
	DB	0ffH
	DB	088H
	DB	064H
	DB	00H
	DB	0ffH
	DB	088H
	DB	064H
	DB	00H
	DB	0ffH
	DB	088H
	DB	064H
	DB	08H
	DB	0ffH
	DB	080H
	DB	060H
	DB	00H
	DB	0ffH
	DB	080H
	DB	064H
	DB	00H
	DB	0ffH
	DB	088H
	DB	060H
	DB	08H
	DB	0ffH
	DB	088H
	DB	064H
	DB	00H
	DB	0ffH
	DB	088H
	DB	064H
	DB	00H
	DB	0ffH
	DB	088H
	DB	060H
	DB	00H
	DB	0ffH
	DB	088H
	DB	064H
	DB	00H
	DB	0ffH
	DB	088H
	DB	064H
	DB	08H
	DB	0ffH
	DB	088H
	DB	060H
	DB	00H
	DB	0ffH
	DB	080H
	DB	064H
	DB	00H
	DB	0ffH
	DB	088H
	DB	064H
	DB	00H
	DB	0ffH
	DB	088H
	DB	060H
	DB	00H
	DB	0ffH
	DB	088H
	DB	060H
	DB	08H
	DB	0ffH
	DB	088H
	DB	064H
	DB	00H
	DB	0ffH
	DB	088H
	DB	060H
	DB	00H
	DB	0ffH
	DB	088H
	DB	060H
	DB	00H
	DB	0ffH
	DB	088H
	DB	064H
	DB	00H
	DB	0ffH
	DB	080H
	DB	060H
	DB	00H
	DB	0ffH
	DB	088H
	DB	060H
	DB	00H
	DB	0ffH
	DB	088H
	DB	064H
	DB	00H
	DB	0ffH
	DB	088H
	DB	064H
	DB	00H
	DB	0ffH
	DB	088H
	DB	064H
	DB	00H
	DB	0ffH
	DB	088H
	DB	064H
	DB	00H
	DB	0ffH
	DB	080H
	DB	064H
	DB	00H
	DB	0ffH
	DB	080H
	DB	060H
	DB	00H
	DB	0ffH
	DB	080H
	DB	05cH
	DB	00H
	DB	0ffH
	DB	078H
	DB	05cH
	DB	00H
	DB	0ffH
	DB	070H
	DB	054H
	DB	08H
	DB	0ffH
	DB	068H
	DB	048H
	DB	00H
	DB	0ffH
	DB	058H
	DB	040H
	DB	00H
	DB	096H
	DB	00H
	DB	00H
	DB	00H
	DB	00H
	DB	00H
	DB	00H
	DB	00H
	DB	00H
	DB	00H
	DB	00H
	DB	00H
	DB	00H
	DB	00H
	DB	00H
	DB	00H
	DB	00H
	DB	00H
	DB	00H
	DB	00H
	DB	00H
	DB	00H
	DB	00H
	DB	00H
	DB	00H
	DB	00H
	DB	00H
	DB	00H
	DB	00H
	DB	00H
	DB	00H
	DB	00H
	DB	00H
	DB	00H
	DB	00H
	DB	00H
	DB	00H
	DB	00H
	DB	00H
	DB	00H
	DB	00H
	DB	00H
	DB	00H
	DB	00H
	DB	00H
	DB	00H
	DB	00H
	DB	00H
	DB	00H
	DB	00H
	DB	00H
	DB	00H
	DB	00H
	DB	00H
	DB	00H
	DB	00H
	DB	00H
	DB	00H
	DB	00H
	DB	00H
	DB	00H
	DB	00H
	DB	00H
	DB	00H
	DB	00H
	DB	00H
	DB	00H
	DB	00H
	DB	00H
	DB	00H
	DB	00H
	DB	00H
	DB	00H
	DB	00H
	DB	00H
	DB	00H
	DB	00H
	DB	058H
	DB	040H
	DB	00H
	DB	055H
	DB	060H
	DB	048H
	DB	00H
	DB	0ffH
	DB	070H
	DB	054H
	DB	00H
	DB	0ffH
	DB	078H
	DB	05cH
	DB	00H
	DB	0ffH
	DB	080H
	DB	060H
	DB	08H
	DB	0ffH
	DB	088H
	DB	064H
	DB	00H
	DB	0ffH
	DB	088H
	DB	064H
	DB	00H
	DB	0ffH
	DB	088H
	DB	064H
	DB	00H
	DB	0ffH
	DB	088H
	DB	064H
	DB	00H
	DB	0ffH
	DB	088H
	DB	064H
	DB	00H
	DB	0ffH
	DB	088H
	DB	064H
	DB	00H
	DB	0ffH
	DB	088H
	DB	064H
	DB	00H
	DB	0ffH
	DB	088H
	DB	064H
	DB	00H
	DB	0ffH
	DB	088H
	DB	064H
	DB	00H
	DB	0ffH
	DB	088H
	DB	064H
	DB	00H
	DB	0ffH
	DB	088H
	DB	064H
	DB	08H
	DB	0ffH
	DB	088H
	DB	064H
	DB	00H
	DB	0ffH
	DB	080H
	DB	064H
	DB	00H
	DB	0ffH
	DB	088H
	DB	064H
	DB	00H
	DB	0ffH
	DB	088H
	DB	064H
	DB	00H
	DB	0ffH
	DB	088H
	DB	064H
	DB	00H
	DB	0ffH
	DB	088H
	DB	064H
	DB	08H
	DB	0ffH
	DB	088H
	DB	064H
	DB	00H
	DB	0ffH
	DB	088H
	DB	064H
	DB	00H
	DB	0ffH
	DB	088H
	DB	064H
	DB	00H
	DB	0ffH
	DB	088H
	DB	064H
	DB	00H
	DB	0ffH
	DB	088H
	DB	064H
	DB	08H
	DB	0ffH
	DB	088H
	DB	064H
	DB	00H
	DB	0ffH
	DB	088H
	DB	064H
	DB	00H
	DB	0ffH
	DB	088H
	DB	064H
	DB	08H
	DB	0ffH
	DB	088H
	DB	064H
	DB	00H
	DB	0ffH
	DB	080H
	DB	064H
	DB	00H
	DB	0ffH
	DB	088H
	DB	064H
	DB	00H
	DB	0ffH
	DB	088H
	DB	064H
	DB	08H
	DB	0ffH
	DB	088H
	DB	064H
	DB	00H
	DB	0ffH
	DB	088H
	DB	064H
	DB	00H
	DB	0ffH
	DB	088H
	DB	064H
	DB	00H
	DB	0ffH
	DB	080H
	DB	060H
	DB	00H
	DB	0ffH
	DB	078H
	DB	05cH
	DB	00H
	DB	0ffH
	DB	070H
	DB	054H
	DB	00H
	DB	0ffH
	DB	060H
	DB	048H
	DB	00H
	DB	0ffH
	DB	058H
	DB	040H
	DB	00H
	DB	059H
	DB	00H
	DB	00H
	DB	00H
	DB	00H
	DB	00H
	DB	00H
	DB	00H
	DB	00H
	DB	00H
	DB	00H
	DB	00H
	DB	00H
	DB	00H
	DB	00H
	DB	00H
	DB	00H
	DB	00H
	DB	00H
	DB	00H
	DB	00H
	DB	00H
	DB	00H
	DB	00H
	DB	00H
	DB	00H
	DB	00H
	DB	00H
	DB	00H
	DB	00H
	DB	00H
	DB	00H
	DB	00H
	DB	00H
	DB	00H
	DB	00H
	DB	00H
	DB	00H
	DB	00H
	DB	00H
	DB	00H
	DB	00H
	DB	00H
	DB	00H
	DB	00H
	DB	00H
	DB	00H
	DB	00H
	DB	00H
	DB	00H
	DB	00H
	DB	00H
	DB	00H
	DB	00H
	DB	00H
	DB	00H
	DB	00H
	DB	00H
	DB	00H
	DB	00H
	DB	00H
	DB	00H
	DB	00H
	DB	00H
	DB	00H
	DB	00H
	DB	00H
	DB	00H
	DB	00H
	DB	050H
	DB	03cH
	DB	00H
	DB	018H
	DB	060H
	DB	048H
	DB	00H
	DB	0efH
	DB	070H
	DB	054H
	DB	00H
	DB	0ffH
	DB	078H
	DB	058H
	DB	00H
	DB	0ffH
	DB	080H
	DB	060H
	DB	00H
	DB	0ffH
	DB	088H
	DB	060H
	DB	00H
	DB	0ffH
	DB	088H
	DB	064H
	DB	00H
	DB	0ffH
	DB	080H
	DB	064H
	DB	00H
	DB	0ffH
	DB	088H
	DB	064H
	DB	08H
	DB	0ffH
	DB	088H
	DB	064H
	DB	00H
	DB	0ffH
	DB	080H
	DB	064H
	DB	00H
	DB	0ffH
	DB	088H
	DB	064H
	DB	00H
	DB	0ffH
	DB	088H
	DB	064H
	DB	08H
	DB	0ffH
	DB	088H
	DB	064H
	DB	00H
	DB	0ffH
	DB	088H
	DB	064H
	DB	00H
	DB	0ffH
	DB	080H
	DB	064H
	DB	00H
	DB	0ffH
	DB	088H
	DB	064H
	DB	00H
	DB	0ffH
	DB	088H
	DB	064H
	DB	00H
	DB	0ffH
	DB	088H
	DB	064H
	DB	00H
	DB	0ffH
	DB	088H
	DB	064H
	DB	00H
	DB	0ffH
	DB	088H
	DB	064H
	DB	00H
	DB	0ffH
	DB	088H
	DB	064H
	DB	00H
	DB	0ffH
	DB	088H
	DB	064H
	DB	00H
	DB	0ffH
	DB	080H
	DB	064H
	DB	00H
	DB	0ffH
	DB	088H
	DB	064H
	DB	00H
	DB	0ffH
	DB	088H
	DB	064H
	DB	00H
	DB	0ffH
	DB	080H
	DB	064H
	DB	00H
	DB	0ffH
	DB	088H
	DB	064H
	DB	00H
	DB	0ffH
	DB	088H
	DB	064H
	DB	00H
	DB	0ffH
	DB	088H
	DB	064H
	DB	00H
	DB	0ffH
	DB	088H
	DB	064H
	DB	00H
	DB	0ffH
	DB	088H
	DB	064H
	DB	00H
	DB	0ffH
	DB	088H
	DB	064H
	DB	00H
	DB	0ffH
	DB	088H
	DB	064H
	DB	00H
	DB	0ffH
	DB	088H
	DB	064H
	DB	00H
	DB	0ffH
	DB	088H
	DB	064H
	DB	00H
	DB	0ffH
	DB	088H
	DB	064H
	DB	00H
	DB	0ffH
	DB	088H
	DB	064H
	DB	08H
	DB	0ffH
	DB	080H
	DB	060H
	DB	00H
	DB	0ffH
	DB	080H
	DB	060H
	DB	00H
	DB	0ffH
	DB	078H
	DB	058H
	DB	00H
	DB	0ffH
	DB	070H
	DB	050H
	DB	00H
	DB	0ffH
	DB	060H
	DB	048H
	DB	08H
	DB	0efH
	DB	050H
	DB	03cH
	DB	00H
	DB	01cH
	DB	00H
	DB	00H
	DB	00H
	DB	00H
	DB	00H
	DB	00H
	DB	00H
	DB	00H
	DB	00H
	DB	00H
	DB	00H
	DB	00H
	DB	00H
	DB	00H
	DB	00H
	DB	00H
	DB	00H
	DB	00H
	DB	00H
	DB	00H
	DB	00H
	DB	00H
	DB	00H
	DB	00H
	DB	00H
	DB	00H
	DB	00H
	DB	00H
	DB	00H
	DB	00H
	DB	00H
	DB	00H
	DB	00H
	DB	00H
	DB	00H
	DB	00H
	DB	00H
	DB	00H
	DB	00H
	DB	00H
	DB	00H
	DB	00H
	DB	00H
	DB	00H
	DB	00H
	DB	00H
	DB	00H
	DB	00H
	DB	00H
	DB	00H
	DB	00H
	DB	00H
	DB	00H
	DB	00H
	DB	00H
	DB	00H
	DB	00H
	DB	00H
	DB	00H
	DB	00H
	DB	00H
	DB	00H
	DB	00H
	DB	00H
	DB	058H
	DB	044H
	DB	08H
	DB	0a6H
	DB	068H
	DB	04cH
	DB	00H
	DB	0ffH
	DB	078H
	DB	058H
	DB	00H
	DB	0ffH
	DB	080H
	DB	060H
	DB	00H
	DB	0ffH
	DB	088H
	DB	060H
	DB	00H
	DB	0ffH
	DB	088H
	DB	064H
	DB	00H
	DB	0ffH
	DB	088H
	DB	064H
	DB	00H
	DB	0ffH
	DB	088H
	DB	064H
	DB	00H
	DB	0ffH
	DB	088H
	DB	064H
	DB	00H
	DB	0ffH
	DB	088H
	DB	064H
	DB	00H
	DB	0ffH
	DB	088H
	DB	064H
	DB	00H
	DB	0ffH
	DB	088H
	DB	064H
	DB	00H
	DB	0ffH
	DB	088H
	DB	064H
	DB	00H
	DB	0ffH
	DB	088H
	DB	064H
	DB	00H
	DB	0ffH
	DB	088H
	DB	064H
	DB	00H
	DB	0ffH
	DB	088H
	DB	064H
	DB	00H
	DB	0ffH
	DB	088H
	DB	064H
	DB	00H
	DB	0ffH
	DB	088H
	DB	064H
	DB	00H
	DB	0ffH
	DB	088H
	DB	064H
	DB	08H
	DB	0ffH
	DB	088H
	DB	064H
	DB	00H
	DB	0ffH
	DB	088H
	DB	064H
	DB	00H
	DB	0ffH
	DB	088H
	DB	064H
	DB	08H
	DB	0ffH
	DB	088H
	DB	064H
	DB	00H
	DB	0ffH
	DB	088H
	DB	064H
	DB	00H
	DB	0ffH
	DB	088H
	DB	064H
	DB	00H
	DB	0ffH
	DB	088H
	DB	064H
	DB	08H
	DB	0ffH
	DB	088H
	DB	064H
	DB	00H
	DB	0ffH
	DB	088H
	DB	064H
	DB	00H
	DB	0ffH
	DB	088H
	DB	064H
	DB	00H
	DB	0ffH
	DB	088H
	DB	064H
	DB	08H
	DB	0ffH
	DB	088H
	DB	064H
	DB	00H
	DB	0ffH
	DB	088H
	DB	064H
	DB	00H
	DB	0ffH
	DB	088H
	DB	064H
	DB	08H
	DB	0ffH
	DB	088H
	DB	064H
	DB	00H
	DB	0ffH
	DB	088H
	DB	064H
	DB	00H
	DB	0ffH
	DB	088H
	DB	064H
	DB	00H
	DB	0ffH
	DB	088H
	DB	064H
	DB	00H
	DB	0ffH
	DB	088H
	DB	064H
	DB	00H
	DB	0ffH
	DB	088H
	DB	064H
	DB	00H
	DB	0ffH
	DB	088H
	DB	060H
	DB	00H
	DB	0ffH
	DB	080H
	DB	060H
	DB	00H
	DB	0ffH
	DB	078H
	DB	058H
	DB	00H
	DB	0ffH
	DB	068H
	DB	050H
	DB	00H
	DB	0ffH
	DB	060H
	DB	044H
	DB	08H
	DB	0a6H
	DB	00H
	DB	00H
	DB	00H
	DB	00H
	DB	00H
	DB	00H
	DB	00H
	DB	00H
	DB	00H
	DB	00H
	DB	00H
	DB	00H
	DB	00H
	DB	00H
	DB	00H
	DB	00H
	DB	00H
	DB	00H
	DB	00H
	DB	00H
	DB	00H
	DB	00H
	DB	00H
	DB	00H
	DB	00H
	DB	00H
	DB	00H
	DB	00H
	DB	00H
	DB	00H
	DB	00H
	DB	00H
	DB	00H
	DB	00H
	DB	00H
	DB	00H
	DB	00H
	DB	00H
	DB	00H
	DB	00H
	DB	00H
	DB	00H
	DB	00H
	DB	00H
	DB	00H
	DB	00H
	DB	00H
	DB	00H
	DB	00H
	DB	00H
	DB	00H
	DB	00H
	DB	00H
	DB	00H
	DB	00H
	DB	00H
	DB	00H
	DB	00H
	DB	00H
	DB	00H
	DB	058H
	DB	040H
	DB	00H
	DB	034H
	DB	068H
	DB	04cH
	DB	00H
	DB	0ffH
	DB	070H
	DB	054H
	DB	00H
	DB	0ffH
	DB	080H
	DB	05cH
	DB	00H
	DB	0ffH
	DB	088H
	DB	064H
	DB	08H
	DB	0ffH
	DB	088H
	DB	064H
	DB	00H
	DB	0ffH
	DB	088H
	DB	064H
	DB	00H
	DB	0ffH
	DB	088H
	DB	064H
	DB	08H
	DB	0ffH
	DB	088H
	DB	064H
	DB	00H
	DB	0ffH
	DB	088H
	DB	064H
	DB	00H
	DB	0ffH
	DB	088H
	DB	064H
	DB	08H
	DB	0ffH
	DB	088H
	DB	064H
	DB	00H
	DB	0ffH
	DB	088H
	DB	064H
	DB	00H
	DB	0ffH
	DB	088H
	DB	064H
	DB	00H
	DB	0ffH
	DB	088H
	DB	064H
	DB	00H
	DB	0ffH
	DB	088H
	DB	064H
	DB	08H
	DB	0ffH
	DB	088H
	DB	064H
	DB	00H
	DB	0ffH
	DB	088H
	DB	064H
	DB	00H
	DB	0ffH
	DB	088H
	DB	064H
	DB	00H
	DB	0ffH
	DB	088H
	DB	064H
	DB	00H
	DB	0ffH
	DB	088H
	DB	064H
	DB	00H
	DB	0ffH
	DB	088H
	DB	064H
	DB	00H
	DB	0ffH
	DB	088H
	DB	064H
	DB	00H
	DB	0ffH
	DB	088H
	DB	064H
	DB	00H
	DB	0ffH
	DB	088H
	DB	064H
	DB	00H
	DB	0ffH
	DB	088H
	DB	064H
	DB	00H
	DB	0ffH
	DB	088H
	DB	064H
	DB	00H
	DB	0ffH
	DB	088H
	DB	064H
	DB	00H
	DB	0ffH
	DB	088H
	DB	064H
	DB	00H
	DB	0ffH
	DB	088H
	DB	064H
	DB	00H
	DB	0ffH
	DB	088H
	DB	064H
	DB	00H
	DB	0ffH
	DB	088H
	DB	064H
	DB	00H
	DB	0ffH
	DB	088H
	DB	064H
	DB	00H
	DB	0ffH
	DB	088H
	DB	064H
	DB	00H
	DB	0ffH
	DB	088H
	DB	064H
	DB	00H
	DB	0ffH
	DB	088H
	DB	064H
	DB	00H
	DB	0ffH
	DB	088H
	DB	064H
	DB	08H
	DB	0ffH
	DB	088H
	DB	064H
	DB	00H
	DB	0ffH
	DB	088H
	DB	064H
	DB	00H
	DB	0ffH
	DB	088H
	DB	064H
	DB	00H
	DB	0ffH
	DB	088H
	DB	064H
	DB	08H
	DB	0ffH
	DB	080H
	DB	064H
	DB	00H
	DB	0ffH
	DB	080H
	DB	05cH
	DB	00H
	DB	0ffH
	DB	070H
	DB	054H
	DB	00H
	DB	0ffH
	DB	068H
	DB	04cH
	DB	00H
	DB	0ffH
	DB	058H
	DB	040H
	DB	00H
	DB	030H
	DB	00H
	DB	00H
	DB	00H
	DB	00H
	DB	00H
	DB	00H
	DB	00H
	DB	00H
	DB	00H
	DB	00H
	DB	00H
	DB	00H
	DB	00H
	DB	00H
	DB	00H
	DB	00H
	DB	00H
	DB	00H
	DB	00H
	DB	00H
	DB	00H
	DB	00H
	DB	00H
	DB	00H
	DB	00H
	DB	00H
	DB	00H
	DB	00H
	DB	00H
	DB	00H
	DB	00H
	DB	00H
	DB	00H
	DB	00H
	DB	00H
	DB	00H
	DB	00H
	DB	00H
	DB	00H
	DB	00H
	DB	00H
	DB	00H
	DB	00H
	DB	00H
	DB	00H
	DB	00H
	DB	00H
	DB	00H
	DB	00H
	DB	00H
	DB	00H
	DB	00H
	DB	00H
	DB	00H
	DB	00H
	DB	00H
	DB	060H
	DB	048H
	DB	08H
	DB	0b2H
	DB	070H
	DB	050H
	DB	00H
	DB	0ffH
	DB	078H
	DB	05cH
	DB	00H
	DB	0ffH
	DB	080H
	DB	060H
	DB	00H
	DB	0ffH
	DB	088H
	DB	064H
	DB	00H
	DB	0ffH
	DB	088H
	DB	064H
	DB	00H
	DB	0ffH
	DB	088H
	DB	064H
	DB	00H
	DB	0ffH
	DB	088H
	DB	064H
	DB	00H
	DB	0ffH
	DB	088H
	DB	064H
	DB	00H
	DB	0ffH
	DB	088H
	DB	064H
	DB	00H
	DB	0ffH
	DB	088H
	DB	064H
	DB	00H
	DB	0ffH
	DB	088H
	DB	064H
	DB	00H
	DB	0ffH
	DB	088H
	DB	064H
	DB	08H
	DB	0ffH
	DB	088H
	DB	064H
	DB	00H
	DB	0ffH
	DB	088H
	DB	064H
	DB	00H
	DB	0ffH
	DB	088H
	DB	064H
	DB	00H
	DB	0ffH
	DB	088H
	DB	064H
	DB	00H
	DB	0ffH
	DB	088H
	DB	064H
	DB	08H
	DB	0ffH
	DB	088H
	DB	064H
	DB	00H
	DB	0ffH
	DB	088H
	DB	064H
	DB	00H
	DB	0ffH
	DB	088H
	DB	064H
	DB	00H
	DB	0ffH
	DB	088H
	DB	064H
	DB	00H
	DB	0ffH
	DB	088H
	DB	064H
	DB	00H
	DB	0ffH
	DB	088H
	DB	064H
	DB	00H
	DB	0ffH
	DB	088H
	DB	064H
	DB	08H
	DB	0ffH
	DB	088H
	DB	064H
	DB	00H
	DB	0ffH
	DB	088H
	DB	064H
	DB	00H
	DB	0ffH
	DB	088H
	DB	068H
	DB	00H
	DB	0ffH
	DB	088H
	DB	064H
	DB	08H
	DB	0ffH
	DB	088H
	DB	064H
	DB	00H
	DB	0ffH
	DB	088H
	DB	064H
	DB	00H
	DB	0ffH
	DB	088H
	DB	064H
	DB	00H
	DB	0ffH
	DB	088H
	DB	064H
	DB	00H
	DB	0ffH
	DB	088H
	DB	064H
	DB	00H
	DB	0ffH
	DB	088H
	DB	064H
	DB	00H
	DB	0ffH
	DB	088H
	DB	064H
	DB	00H
	DB	0ffH
	DB	088H
	DB	064H
	DB	00H
	DB	0ffH
	DB	088H
	DB	064H
	DB	00H
	DB	0ffH
	DB	088H
	DB	064H
	DB	00H
	DB	0ffH
	DB	088H
	DB	064H
	DB	00H
	DB	0ffH
	DB	088H
	DB	064H
	DB	00H
	DB	0ffH
	DB	088H
	DB	064H
	DB	00H
	DB	0ffH
	DB	080H
	DB	060H
	DB	00H
	DB	0ffH
	DB	078H
	DB	05cH
	DB	00H
	DB	0ffH
	DB	070H
	DB	050H
	DB	00H
	DB	0ffH
	DB	060H
	DB	048H
	DB	08H
	DB	0b2H
	DB	00H
	DB	00H
	DB	00H
	DB	00H
	DB	00H
	DB	00H
	DB	00H
	DB	00H
	DB	00H
	DB	00H
	DB	00H
	DB	00H
	DB	00H
	DB	00H
	DB	00H
	DB	00H
	DB	00H
	DB	00H
	DB	00H
	DB	00H
	DB	00H
	DB	00H
	DB	00H
	DB	00H
	DB	00H
	DB	00H
	DB	00H
	DB	00H
	DB	00H
	DB	00H
	DB	00H
	DB	00H
	DB	00H
	DB	00H
	DB	00H
	DB	00H
	DB	00H
	DB	00H
	DB	00H
	DB	00H
	DB	00H
	DB	00H
	DB	00H
	DB	00H
	DB	00H
	DB	00H
	DB	00H
	DB	00H
	DB	00H
	DB	00H
	DB	00H
	DB	00H
	DB	050H
	DB	03cH
	DB	00H
	DB	020H
	DB	068H
	DB	04cH
	DB	00H
	DB	0fbH
	DB	078H
	DB	058H
	DB	00H
	DB	0ffH
	DB	080H
	DB	060H
	DB	00H
	DB	0ffH
	DB	088H
	DB	064H
	DB	00H
	DB	0ffH
	DB	088H
	DB	064H
	DB	00H
	DB	0ffH
	DB	088H
	DB	064H
	DB	00H
	DB	0ffH
	DB	088H
	DB	064H
	DB	00H
	DB	0ffH
	DB	088H
	DB	068H
	DB	00H
	DB	0ffH
	DB	088H
	DB	064H
	DB	00H
	DB	0ffH
	DB	088H
	DB	068H
	DB	00H
	DB	0ffH
	DB	088H
	DB	064H
	DB	00H
	DB	0ffH
	DB	088H
	DB	068H
	DB	00H
	DB	0ffH
	DB	088H
	DB	064H
	DB	00H
	DB	0ffH
	DB	088H
	DB	068H
	DB	00H
	DB	0ffH
	DB	088H
	DB	064H
	DB	00H
	DB	0ffH
	DB	088H
	DB	068H
	DB	00H
	DB	0ffH
	DB	088H
	DB	064H
	DB	00H
	DB	0ffH
	DB	088H
	DB	068H
	DB	00H
	DB	0ffH
	DB	088H
	DB	064H
	DB	00H
	DB	0ffH
	DB	088H
	DB	068H
	DB	00H
	DB	0ffH
	DB	088H
	DB	064H
	DB	08H
	DB	0ffH
	DB	088H
	DB	068H
	DB	00H
	DB	0ffH
	DB	088H
	DB	064H
	DB	00H
	DB	0ffH
	DB	088H
	DB	068H
	DB	00H
	DB	0ffH
	DB	088H
	DB	068H
	DB	00H
	DB	0ffH
	DB	088H
	DB	064H
	DB	00H
	DB	0ffH
	DB	088H
	DB	064H
	DB	00H
	DB	0ffH
	DB	088H
	DB	068H
	DB	00H
	DB	0ffH
	DB	088H
	DB	064H
	DB	00H
	DB	0ffH
	DB	088H
	DB	064H
	DB	00H
	DB	0ffH
	DB	088H
	DB	068H
	DB	00H
	DB	0ffH
	DB	088H
	DB	068H
	DB	08H
	DB	0ffH
	DB	088H
	DB	064H
	DB	00H
	DB	0ffH
	DB	088H
	DB	068H
	DB	00H
	DB	0ffH
	DB	088H
	DB	068H
	DB	08H
	DB	0ffH
	DB	088H
	DB	064H
	DB	00H
	DB	0ffH
	DB	088H
	DB	064H
	DB	00H
	DB	0ffH
	DB	088H
	DB	068H
	DB	00H
	DB	0ffH
	DB	088H
	DB	064H
	DB	08H
	DB	0ffH
	DB	088H
	DB	064H
	DB	00H
	DB	0ffH
	DB	088H
	DB	064H
	DB	00H
	DB	0ffH
	DB	088H
	DB	064H
	DB	00H
	DB	0ffH
	DB	088H
	DB	064H
	DB	08H
	DB	0ffH
	DB	080H
	DB	060H
	DB	00H
	DB	0ffH
	DB	078H
	DB	058H
	DB	00H
	DB	0ffH
	DB	068H
	DB	04cH
	DB	00H
	DB	0ffH
	DB	050H
	DB	03cH
	DB	00H
	DB	020H
	DB	00H
	DB	00H
	DB	00H
	DB	00H
	DB	00H
	DB	00H
	DB	00H
	DB	00H
	DB	00H
	DB	00H
	DB	00H
	DB	00H
	DB	00H
	DB	00H
	DB	00H
	DB	00H
	DB	00H
	DB	00H
	DB	00H
	DB	00H
	DB	00H
	DB	00H
	DB	00H
	DB	00H
	DB	00H
	DB	00H
	DB	00H
	DB	00H
	DB	00H
	DB	00H
	DB	00H
	DB	00H
	DB	00H
	DB	00H
	DB	00H
	DB	00H
	DB	00H
	DB	00H
	DB	00H
	DB	00H
	DB	00H
	DB	00H
	DB	00H
	DB	00H
	DB	00H
	DB	00H
	DB	00H
	DB	00H
	DB	060H
	DB	048H
	DB	08H
	DB	07dH
	DB	070H
	DB	050H
	DB	00H
	DB	0ffH
	DB	080H
	DB	05cH
	DB	00H
	DB	0ffH
	DB	088H
	DB	060H
	DB	00H
	DB	0ffH
	DB	088H
	DB	064H
	DB	00H
	DB	0ffH
	DB	088H
	DB	068H
	DB	08H
	DB	0ffH
	DB	088H
	DB	068H
	DB	00H
	DB	0ffH
	DB	088H
	DB	068H
	DB	00H
	DB	0ffH
	DB	088H
	DB	068H
	DB	08H
	DB	0ffH
	DB	088H
	DB	068H
	DB	00H
	DB	0ffH
	DB	088H
	DB	064H
	DB	00H
	DB	0ffH
	DB	088H
	DB	068H
	DB	08H
	DB	0ffH
	DB	088H
	DB	068H
	DB	00H
	DB	0ffH
	DB	088H
	DB	068H
	DB	00H
	DB	0ffH
	DB	088H
	DB	064H
	DB	00H
	DB	0ffH
	DB	088H
	DB	068H
	DB	08H
	DB	0ffH
	DB	088H
	DB	068H
	DB	00H
	DB	0ffH
	DB	088H
	DB	068H
	DB	00H
	DB	0ffH
	DB	088H
	DB	064H
	DB	00H
	DB	0ffH
	DB	088H
	DB	068H
	DB	00H
	DB	0ffH
	DB	088H
	DB	068H
	DB	00H
	DB	0ffH
	DB	088H
	DB	068H
	DB	00H
	DB	0ffH
	DB	088H
	DB	064H
	DB	00H
	DB	0ffH
	DB	088H
	DB	068H
	DB	08H
	DB	0ffH
	DB	088H
	DB	068H
	DB	00H
	DB	0ffH
	DB	088H
	DB	064H
	DB	00H
	DB	0ffH
	DB	088H
	DB	068H
	DB	00H
	DB	0ffH
	DB	088H
	DB	068H
	DB	08H
	DB	0ffH
	DB	088H
	DB	064H
	DB	00H
	DB	0ffH
	DB	088H
	DB	068H
	DB	00H
	DB	0ffH
	DB	088H
	DB	068H
	DB	00H
	DB	0ffH
	DB	088H
	DB	068H
	DB	00H
	DB	0ffH
	DB	088H
	DB	064H
	DB	00H
	DB	0ffH
	DB	088H
	DB	068H
	DB	00H
	DB	0ffH
	DB	088H
	DB	068H
	DB	00H
	DB	0ffH
	DB	088H
	DB	064H
	DB	00H
	DB	0ffH
	DB	088H
	DB	068H
	DB	00H
	DB	0ffH
	DB	088H
	DB	068H
	DB	00H
	DB	0ffH
	DB	088H
	DB	068H
	DB	00H
	DB	0ffH
	DB	088H
	DB	068H
	DB	00H
	DB	0ffH
	DB	088H
	DB	068H
	DB	00H
	DB	0ffH
	DB	088H
	DB	068H
	DB	00H
	DB	0ffH
	DB	088H
	DB	068H
	DB	00H
	DB	0ffH
	DB	088H
	DB	064H
	DB	00H
	DB	0ffH
	DB	088H
	DB	060H
	DB	00H
	DB	0ffH
	DB	078H
	DB	05cH
	DB	00H
	DB	0ffH
	DB	070H
	DB	050H
	DB	00H
	DB	0ffH
	DB	060H
	DB	048H
	DB	08H
	DB	086H
	DB	00H
	DB	00H
	DB	00H
	DB	00H
	DB	00H
	DB	00H
	DB	00H
	DB	00H
	DB	00H
	DB	00H
	DB	00H
	DB	00H
	DB	00H
	DB	00H
	DB	00H
	DB	00H
	DB	00H
	DB	00H
	DB	00H
	DB	00H
	DB	00H
	DB	00H
	DB	00H
	DB	00H
	DB	00H
	DB	00H
	DB	00H
	DB	00H
	DB	00H
	DB	00H
	DB	00H
	DB	00H
	DB	00H
	DB	00H
	DB	00H
	DB	00H
	DB	00H
	DB	00H
	DB	00H
	DB	00H
	DB	00H
	DB	00H
	DB	00H
	DB	00H
	DB	00H
	DB	00H
	DB	00H
	DB	00H
	DB	068H
	DB	04cH
	DB	08H
	DB	0dbH
	DB	070H
	DB	058H
	DB	00H
	DB	0ffH
	DB	080H
	DB	060H
	DB	00H
	DB	0ffH
	DB	088H
	DB	064H
	DB	00H
	DB	0ffH
	DB	088H
	DB	064H
	DB	00H
	DB	0ffH
	DB	088H
	DB	068H
	DB	00H
	DB	0ffH
	DB	088H
	DB	064H
	DB	00H
	DB	0ffH
	DB	088H
	DB	064H
	DB	00H
	DB	0ffH
	DB	088H
	DB	064H
	DB	00H
	DB	0ffH
	DB	088H
	DB	064H
	DB	00H
	DB	0ffH
	DB	090H
	DB	068H
	DB	00H
	DB	0ffH
	DB	088H
	DB	064H
	DB	00H
	DB	0ffH
	DB	088H
	DB	064H
	DB	00H
	DB	0ffH
	DB	090H
	DB	064H
	DB	00H
	DB	0ffH
	DB	088H
	DB	068H
	DB	00H
	DB	0ffH
	DB	088H
	DB	064H
	DB	00H
	DB	0ffH
	DB	090H
	DB	064H
	DB	00H
	DB	0ffH
	DB	088H
	DB	064H
	DB	00H
	DB	0ffH
	DB	088H
	DB	068H
	DB	08H
	DB	0ffH
	DB	090H
	DB	064H
	DB	00H
	DB	0ffH
	DB	088H
	DB	064H
	DB	00H
	DB	0ffH
	DB	088H
	DB	064H
	DB	00H
	DB	0ffH
	DB	088H
	DB	068H
	DB	00H
	DB	0ffH
	DB	088H
	DB	064H
	DB	00H
	DB	0ffH
	DB	090H
	DB	064H
	DB	00H
	DB	0ffH
	DB	088H
	DB	064H
	DB	00H
	DB	0ffH
	DB	088H
	DB	068H
	DB	00H
	DB	0ffH
	DB	090H
	DB	064H
	DB	00H
	DB	0ffH
	DB	088H
	DB	064H
	DB	00H
	DB	0ffH
	DB	088H
	DB	068H
	DB	00H
	DB	0ffH
	DB	088H
	DB	064H
	DB	08H
	DB	0ffH
	DB	088H
	DB	064H
	DB	00H
	DB	0ffH
	DB	088H
	DB	064H
	DB	00H
	DB	0ffH
	DB	088H
	DB	068H
	DB	00H
	DB	0ffH
	DB	088H
	DB	064H
	DB	00H
	DB	0ffH
	DB	088H
	DB	064H
	DB	00H
	DB	0ffH
	DB	088H
	DB	068H
	DB	08H
	DB	0ffH
	DB	088H
	DB	064H
	DB	00H
	DB	0ffH
	DB	088H
	DB	064H
	DB	00H
	DB	0ffH
	DB	088H
	DB	064H
	DB	00H
	DB	0ffH
	DB	088H
	DB	068H
	DB	00H
	DB	0ffH
	DB	088H
	DB	064H
	DB	08H
	DB	0ffH
	DB	088H
	DB	064H
	DB	00H
	DB	0ffH
	DB	088H
	DB	068H
	DB	00H
	DB	0ffH
	DB	088H
	DB	064H
	DB	00H
	DB	0ffH
	DB	080H
	DB	060H
	DB	00H
	DB	0ffH
	DB	070H
	DB	058H
	DB	00H
	DB	0ffH
	DB	068H
	DB	04cH
	DB	08H
	DB	0dbH
	DB	00H
	DB	00H
	DB	00H
	DB	00H
	DB	00H
	DB	00H
	DB	00H
	DB	00H
	DB	00H
	DB	00H
	DB	00H
	DB	00H
	DB	00H
	DB	00H
	DB	00H
	DB	00H
	DB	00H
	DB	00H
	DB	00H
	DB	00H
	DB	00H
	DB	00H
	DB	00H
	DB	00H
	DB	00H
	DB	00H
	DB	00H
	DB	00H
	DB	00H
	DB	00H
	DB	00H
	DB	00H
	DB	00H
	DB	00H
	DB	00H
	DB	00H
	DB	00H
	DB	00H
	DB	00H
	DB	00H
	DB	00H
	DB	00H
	DB	00H
	DB	00H
	DB	058H
	DB	040H
	DB	00H
	DB	01cH
	DB	068H
	DB	04cH
	DB	00H
	DB	0ffH
	DB	078H
	DB	058H
	DB	00H
	DB	0ffH
	DB	088H
	DB	064H
	DB	00H
	DB	0ffH
	DB	088H
	DB	064H
	DB	00H
	DB	0ffH
	DB	088H
	DB	068H
	DB	00H
	DB	0ffH
	DB	088H
	DB	064H
	DB	00H
	DB	0ffH
	DB	090H
	DB	068H
	DB	00H
	DB	0ffH
	DB	090H
	DB	068H
	DB	00H
	DB	0ffH
	DB	088H
	DB	064H
	DB	00H
	DB	0ffH
	DB	090H
	DB	068H
	DB	00H
	DB	0ffH
	DB	090H
	DB	068H
	DB	00H
	DB	0ffH
	DB	088H
	DB	064H
	DB	00H
	DB	0ffH
	DB	090H
	DB	068H
	DB	00H
	DB	0ffH
	DB	090H
	DB	068H
	DB	08H
	DB	0ffH
	DB	088H
	DB	064H
	DB	00H
	DB	0ffH
	DB	090H
	DB	068H
	DB	00H
	DB	0ffH
	DB	090H
	DB	064H
	DB	00H
	DB	0ffH
	DB	088H
	DB	068H
	DB	00H
	DB	0ffH
	DB	090H
	DB	068H
	DB	00H
	DB	0ffH
	DB	088H
	DB	064H
	DB	00H
	DB	0ffH
	DB	090H
	DB	068H
	DB	08H
	DB	0ffH
	DB	090H
	DB	068H
	DB	00H
	DB	0ffH
	DB	090H
	DB	064H
	DB	00H
	DB	0ffH
	DB	088H
	DB	068H
	DB	00H
	DB	0ffH
	DB	090H
	DB	068H
	DB	00H
	DB	0ffH
	DB	088H
	DB	064H
	DB	08H
	DB	0ffH
	DB	090H
	DB	068H
	DB	00H
	DB	0ffH
	DB	090H
	DB	068H
	DB	00H
	DB	0ffH
	DB	088H
	DB	064H
	DB	00H
	DB	0ffH
	DB	090H
	DB	068H
	DB	00H
	DB	0ffH
	DB	090H
	DB	068H
	DB	00H
	DB	0ffH
	DB	090H
	DB	064H
	DB	00H
	DB	0ffH
	DB	090H
	DB	068H
	DB	00H
	DB	0ffH
	DB	090H
	DB	068H
	DB	08H
	DB	0ffH
	DB	090H
	DB	064H
	DB	00H
	DB	0ffH
	DB	090H
	DB	068H
	DB	00H
	DB	0ffH
	DB	090H
	DB	064H
	DB	00H
	DB	0ffH
	DB	090H
	DB	068H
	DB	00H
	DB	0ffH
	DB	090H
	DB	064H
	DB	00H
	DB	0ffH
	DB	090H
	DB	068H
	DB	08H
	DB	0ffH
	DB	090H
	DB	064H
	DB	00H
	DB	0ffH
	DB	090H
	DB	068H
	DB	00H
	DB	0ffH
	DB	088H
	DB	064H
	DB	00H
	DB	0ffH
	DB	088H
	DB	068H
	DB	00H
	DB	0ffH
	DB	088H
	DB	064H
	DB	08H
	DB	0ffH
	DB	088H
	DB	060H
	DB	00H
	DB	0ffH
	DB	078H
	DB	05cH
	DB	00H
	DB	0ffH
	DB	068H
	DB	04cH
	DB	00H
	DB	0ffH
	DB	058H
	DB	040H
	DB	00H
	DB	024H
	DB	00H
	DB	00H
	DB	00H
	DB	00H
	DB	00H
	DB	00H
	DB	00H
	DB	00H
	DB	00H
	DB	00H
	DB	00H
	DB	00H
	DB	00H
	DB	00H
	DB	00H
	DB	00H
	DB	00H
	DB	00H
	DB	00H
	DB	00H
	DB	00H
	DB	00H
	DB	00H
	DB	00H
	DB	00H
	DB	00H
	DB	00H
	DB	00H
	DB	00H
	DB	00H
	DB	00H
	DB	00H
	DB	00H
	DB	00H
	DB	00H
	DB	00H
	DB	00H
	DB	00H
	DB	00H
	DB	00H
	DB	060H
	DB	048H
	DB	08H
	DB	061H
	DB	070H
	DB	050H
	DB	00H
	DB	0ffH
	DB	080H
	DB	05cH
	DB	00H
	DB	0ffH
	DB	088H
	DB	064H
	DB	00H
	DB	0ffH
	DB	088H
	DB	068H
	DB	00H
	DB	0ffH
	DB	088H
	DB	068H
	DB	08H
	DB	0ffH
	DB	090H
	DB	068H
	DB	00H
	DB	0ffH
	DB	088H
	DB	068H
	DB	00H
	DB	0ffH
	DB	088H
	DB	068H
	DB	08H
	DB	0ffH
	DB	090H
	DB	068H
	DB	00H
	DB	0ffH
	DB	088H
	DB	068H
	DB	00H
	DB	0ffH
	DB	088H
	DB	068H
	DB	08H
	DB	0ffH
	DB	088H
	DB	068H
	DB	00H
	DB	0ffH
	DB	088H
	DB	068H
	DB	00H
	DB	0ffH
	DB	088H
	DB	068H
	DB	00H
	DB	0ffH
	DB	088H
	DB	068H
	DB	00H
	DB	0ffH
	DB	088H
	DB	068H
	DB	00H
	DB	0ffH
	DB	088H
	DB	068H
	DB	08H
	DB	0ffH
	DB	088H
	DB	068H
	DB	00H
	DB	0ffH
	DB	088H
	DB	068H
	DB	00H
	DB	0ffH
	DB	088H
	DB	068H
	DB	00H
	DB	0ffH
	DB	088H
	DB	068H
	DB	00H
	DB	0ffH
	DB	088H
	DB	068H
	DB	00H
	DB	0ffH
	DB	088H
	DB	068H
	DB	00H
	DB	0ffH
	DB	090H
	DB	068H
	DB	08H
	DB	0ffH
	DB	088H
	DB	068H
	DB	00H
	DB	0ffH
	DB	088H
	DB	068H
	DB	00H
	DB	0ffH
	DB	088H
	DB	068H
	DB	00H
	DB	0ffH
	DB	088H
	DB	068H
	DB	00H
	DB	0ffH
	DB	088H
	DB	068H
	DB	08H
	DB	0ffH
	DB	088H
	DB	068H
	DB	00H
	DB	0ffH
	DB	088H
	DB	068H
	DB	00H
	DB	0ffH
	DB	088H
	DB	068H
	DB	00H
	DB	0ffH
	DB	088H
	DB	068H
	DB	00H
	DB	0ffH
	DB	088H
	DB	068H
	DB	00H
	DB	0ffH
	DB	088H
	DB	068H
	DB	00H
	DB	0ffH
	DB	088H
	DB	068H
	DB	00H
	DB	0ffH
	DB	088H
	DB	068H
	DB	00H
	DB	0ffH
	DB	088H
	DB	068H
	DB	00H
	DB	0ffH
	DB	088H
	DB	068H
	DB	00H
	DB	0ffH
	DB	088H
	DB	068H
	DB	00H
	DB	0ffH
	DB	088H
	DB	068H
	DB	00H
	DB	0ffH
	DB	090H
	DB	068H
	DB	00H
	DB	0ffH
	DB	090H
	DB	068H
	DB	00H
	DB	0ffH
	DB	088H
	DB	068H
	DB	00H
	DB	0ffH
	DB	088H
	DB	068H
	DB	00H
	DB	0ffH
	DB	088H
	DB	064H
	DB	00H
	DB	0ffH
	DB	080H
	DB	05cH
	DB	00H
	DB	0ffH
	DB	070H
	DB	050H
	DB	00H
	DB	0ffH
	DB	060H
	DB	048H
	DB	010H
	DB	065H
	DB	00H
	DB	00H
	DB	00H
	DB	00H
	DB	00H
	DB	00H
	DB	00H
	DB	00H
	DB	00H
	DB	00H
	DB	00H
	DB	00H
	DB	00H
	DB	00H
	DB	00H
	DB	00H
	DB	00H
	DB	00H
	DB	00H
	DB	00H
	DB	00H
	DB	00H
	DB	00H
	DB	00H
	DB	00H
	DB	00H
	DB	00H
	DB	00H
	DB	00H
	DB	00H
	DB	00H
	DB	00H
	DB	00H
	DB	00H
	DB	00H
	DB	00H
	DB	00H
	DB	00H
	DB	00H
	DB	00H
	DB	068H
	DB	050H
	DB	010H
	DB	09aH
	DB	070H
	DB	054H
	DB	00H
	DB	0ffH
	DB	080H
	DB	060H
	DB	00H
	DB	0ffH
	DB	088H
	DB	064H
	DB	00H
	DB	0ffH
	DB	088H
	DB	068H
	DB	00H
	DB	0ffH
	DB	090H
	DB	068H
	DB	00H
	DB	0ffH
	DB	090H
	DB	064H
	DB	00H
	DB	0ffH
	DB	088H
	DB	068H
	DB	00H
	DB	0ffH
	DB	090H
	DB	068H
	DB	00H
	DB	0ffH
	DB	090H
	DB	064H
	DB	00H
	DB	0ffH
	DB	088H
	DB	068H
	DB	00H
	DB	0ffH
	DB	090H
	DB	068H
	DB	00H
	DB	0ffH
	DB	090H
	DB	064H
	DB	00H
	DB	0ffH
	DB	090H
	DB	068H
	DB	00H
	DB	0ffH
	DB	090H
	DB	068H
	DB	00H
	DB	0ffH
	DB	090H
	DB	064H
	DB	00H
	DB	0ffH
	DB	090H
	DB	068H
	DB	00H
	DB	0ffH
	DB	090H
	DB	068H
	DB	00H
	DB	0ffH
	DB	090H
	DB	064H
	DB	00H
	DB	0ffH
	DB	090H
	DB	068H
	DB	00H
	DB	0ffH
	DB	090H
	DB	068H
	DB	00H
	DB	0ffH
	DB	090H
	DB	064H
	DB	00H
	DB	0ffH
	DB	088H
	DB	068H
	DB	00H
	DB	0ffH
	DB	090H
	DB	068H
	DB	00H
	DB	0ffH
	DB	090H
	DB	064H
	DB	00H
	DB	0ffH
	DB	088H
	DB	068H
	DB	00H
	DB	0ffH
	DB	090H
	DB	068H
	DB	00H
	DB	0ffH
	DB	090H
	DB	064H
	DB	00H
	DB	0ffH
	DB	090H
	DB	068H
	DB	00H
	DB	0ffH
	DB	090H
	DB	068H
	DB	00H
	DB	0ffH
	DB	090H
	DB	064H
	DB	00H
	DB	0ffH
	DB	090H
	DB	068H
	DB	00H
	DB	0ffH
	DB	088H
	DB	068H
	DB	08H
	DB	0ffH
	DB	090H
	DB	064H
	DB	00H
	DB	0ffH
	DB	090H
	DB	068H
	DB	00H
	DB	0ffH
	DB	088H
	DB	068H
	DB	00H
	DB	0ffH
	DB	090H
	DB	064H
	DB	08H
	DB	0ffH
	DB	090H
	DB	068H
	DB	00H
	DB	0ffH
	DB	088H
	DB	068H
	DB	00H
	DB	0ffH
	DB	090H
	DB	068H
	DB	08H
	DB	0ffH
	DB	088H
	DB	068H
	DB	00H
	DB	0ffH
	DB	088H
	DB	068H
	DB	00H
	DB	0ffH
	DB	090H
	DB	064H
	DB	00H
	DB	0ffH
	DB	090H
	DB	068H
	DB	08H
	DB	0ffH
	DB	088H
	DB	068H
	DB	00H
	DB	0ffH
	DB	090H
	DB	068H
	DB	00H
	DB	0ffH
	DB	088H
	DB	064H
	DB	00H
	DB	0ffH
	DB	080H
	DB	060H
	DB	00H
	DB	0ffH
	DB	078H
	DB	054H
	DB	00H
	DB	0ffH
	DB	068H
	DB	050H
	DB	010H
	DB	09aH
	DB	00H
	DB	00H
	DB	00H
	DB	00H
	DB	00H
	DB	00H
	DB	00H
	DB	00H
	DB	00H
	DB	00H
	DB	00H
	DB	00H
	DB	00H
	DB	00H
	DB	00H
	DB	00H
	DB	00H
	DB	00H
	DB	00H
	DB	00H
	DB	00H
	DB	00H
	DB	00H
	DB	00H
	DB	00H
	DB	00H
	DB	00H
	DB	00H
	DB	00H
	DB	00H
	DB	00H
	DB	00H
	DB	00H
	DB	00H
	DB	00H
	DB	00H
	DB	00H
	DB	00H
	DB	00H
	DB	00H
	DB	068H
	DB	050H
	DB	08H
	DB	0beH
	DB	078H
	DB	058H
	DB	00H
	DB	0ffH
	DB	088H
	DB	064H
	DB	00H
	DB	0ffH
	DB	088H
	DB	064H
	DB	00H
	DB	0ffH
	DB	090H
	DB	068H
	DB	00H
	DB	0ffH
	DB	088H
	DB	068H
	DB	00H
	DB	0ffH
	DB	088H
	DB	064H
	DB	00H
	DB	0ffH
	DB	090H
	DB	068H
	DB	08H
	DB	0ffH
	DB	088H
	DB	068H
	DB	00H
	DB	0ffH
	DB	088H
	DB	064H
	DB	00H
	DB	0ffH
	DB	090H
	DB	068H
	DB	00H
	DB	0ffH
	DB	088H
	DB	068H
	DB	00H
	DB	0ffH
	DB	088H
	DB	064H
	DB	08H
	DB	0ffH
	DB	090H
	DB	068H
	DB	00H
	DB	0ffH
	DB	088H
	DB	068H
	DB	00H
	DB	0ffH
	DB	088H
	DB	064H
	DB	08H
	DB	0ffH
	DB	088H
	DB	068H
	DB	00H
	DB	0ffH
	DB	090H
	DB	068H
	DB	00H
	DB	0ffH
	DB	088H
	DB	064H
	DB	00H
	DB	0ffH
	DB	088H
	DB	068H
	DB	08H
	DB	0ffH
	DB	090H
	DB	068H
	DB	00H
	DB	0ffH
	DB	090H
	DB	064H
	DB	00H
	DB	0ffH
	DB	088H
	DB	068H
	DB	08H
	DB	0ffH
	DB	090H
	DB	068H
	DB	00H
	DB	0ffH
	DB	088H
	DB	064H
	DB	00H
	DB	0ffH
	DB	090H
	DB	068H
	DB	00H
	DB	0ffH
	DB	088H
	DB	068H
	DB	00H
	DB	0ffH
	DB	090H
	DB	064H
	DB	08H
	DB	0ffH
	DB	088H
	DB	068H
	DB	00H
	DB	0ffH
	DB	088H
	DB	068H
	DB	00H
	DB	0ffH
	DB	090H
	DB	064H
	DB	00H
	DB	0ffH
	DB	088H
	DB	068H
	DB	00H
	DB	0ffH
	DB	090H
	DB	068H
	DB	00H
	DB	0ffH
	DB	090H
	DB	064H
	DB	00H
	DB	0ffH
	DB	088H
	DB	068H
	DB	00H
	DB	0ffH
	DB	090H
	DB	068H
	DB	00H
	DB	0ffH
	DB	090H
	DB	064H
	DB	00H
	DB	0ffH
	DB	088H
	DB	068H
	DB	00H
	DB	0ffH
	DB	090H
	DB	068H
	DB	00H
	DB	0ffH
	DB	090H
	DB	064H
	DB	00H
	DB	0ffH
	DB	090H
	DB	068H
	DB	00H
	DB	0ffH
	DB	088H
	DB	068H
	DB	00H
	DB	0ffH
	DB	088H
	DB	064H
	DB	00H
	DB	0ffH
	DB	090H
	DB	068H
	DB	00H
	DB	0ffH
	DB	088H
	DB	068H
	DB	00H
	DB	0ffH
	DB	090H
	DB	064H
	DB	00H
	DB	0ffH
	DB	088H
	DB	064H
	DB	08H
	DB	0ffH
	DB	080H
	DB	064H
	DB	00H
	DB	0ffH
	DB	078H
	DB	058H
	DB	00H
	DB	0ffH
	DB	068H
	DB	050H
	DB	08H
	DB	0c3H
	DB	00H
	DB	00H
	DB	00H
	DB	00H
	DB	00H
	DB	00H
	DB	00H
	DB	00H
	DB	00H
	DB	00H
	DB	00H
	DB	00H
	DB	00H
	DB	00H
	DB	00H
	DB	00H
	DB	00H
	DB	00H
	DB	00H
	DB	00H
	DB	00H
	DB	00H
	DB	00H
	DB	00H
	DB	00H
	DB	00H
	DB	00H
	DB	00H
	DB	00H
	DB	00H
	DB	00H
	DB	00H
	DB	00H
	DB	00H
	DB	00H
	DB	00H
	DB	00H
	DB	00H
	DB	00H
	DB	00H
	DB	068H
	DB	050H
	DB	08H
	DB	0e3H
	DB	078H
	DB	05cH
	DB	00H
	DB	0ffH
	DB	088H
	DB	064H
	DB	00H
	DB	0ffH
	DB	090H
	DB	068H
	DB	08H
	DB	0ffH
	DB	090H
	DB	068H
	DB	00H
	DB	0ffH
	DB	090H
	DB	068H
	DB	00H
	DB	0ffH
	DB	090H
	DB	068H
	DB	00H
	DB	0ffH
	DB	090H
	DB	068H
	DB	00H
	DB	0ffH
	DB	090H
	DB	068H
	DB	00H
	DB	0ffH
	DB	090H
	DB	068H
	DB	00H
	DB	0ffH
	DB	090H
	DB	068H
	DB	08H
	DB	0ffH
	DB	090H
	DB	068H
	DB	00H
	DB	0ffH
	DB	088H
	DB	068H
	DB	00H
	DB	0ffH
	DB	090H
	DB	068H
	DB	00H
	DB	0ffH
	DB	090H
	DB	068H
	DB	00H
	DB	0ffH
	DB	088H
	DB	068H
	DB	00H
	DB	0ffH
	DB	090H
	DB	068H
	DB	00H
	DB	0ffH
	DB	090H
	DB	068H
	DB	00H
	DB	0ffH
	DB	088H
	DB	068H
	DB	00H
	DB	0ffH
	DB	090H
	DB	068H
	DB	00H
	DB	0ffH
	DB	090H
	DB	068H
	DB	00H
	DB	0ffH
	DB	088H
	DB	068H
	DB	00H
	DB	0ffH
	DB	090H
	DB	068H
	DB	00H
	DB	0ffH
	DB	090H
	DB	068H
	DB	00H
	DB	0ffH
	DB	088H
	DB	068H
	DB	00H
	DB	0ffH
	DB	090H
	DB	068H
	DB	00H
	DB	0ffH
	DB	090H
	DB	068H
	DB	00H
	DB	0ffH
	DB	088H
	DB	068H
	DB	00H
	DB	0ffH
	DB	090H
	DB	068H
	DB	00H
	DB	0ffH
	DB	090H
	DB	068H
	DB	00H
	DB	0ffH
	DB	088H
	DB	068H
	DB	08H
	DB	0ffH
	DB	090H
	DB	068H
	DB	00H
	DB	0ffH
	DB	090H
	DB	068H
	DB	00H
	DB	0ffH
	DB	088H
	DB	068H
	DB	00H
	DB	0ffH
	DB	090H
	DB	068H
	DB	08H
	DB	0ffH
	DB	090H
	DB	068H
	DB	00H
	DB	0ffH
	DB	088H
	DB	068H
	DB	00H
	DB	0ffH
	DB	090H
	DB	068H
	DB	00H
	DB	0ffH
	DB	088H
	DB	068H
	DB	00H
	DB	0ffH
	DB	090H
	DB	068H
	DB	00H
	DB	0ffH
	DB	090H
	DB	068H
	DB	00H
	DB	0ffH
	DB	090H
	DB	068H
	DB	08H
	DB	0ffH
	DB	090H
	DB	068H
	DB	00H
	DB	0ffH
	DB	088H
	DB	068H
	DB	00H
	DB	0ffH
	DB	090H
	DB	068H
	DB	00H
	DB	0ffH
	DB	090H
	DB	068H
	DB	00H
	DB	0ffH
	DB	088H
	DB	068H
	DB	00H
	DB	0ffH
	DB	088H
	DB	064H
	DB	00H
	DB	0ffH
	DB	078H
	DB	058H
	DB	00H
	DB	0ffH
	DB	070H
	DB	050H
	DB	08H
	DB	0dfH
	DB	00H
	DB	00H
	DB	00H
	DB	00H
	DB	00H
	DB	00H
	DB	00H
	DB	00H
	DB	00H
	DB	00H
	DB	00H
	DB	00H
	DB	00H
	DB	00H
	DB	00H
	DB	00H
	DB	00H
	DB	00H
	DB	00H
	DB	00H
	DB	00H
	DB	00H
	DB	00H
	DB	00H
	DB	00H
	DB	00H
	DB	00H
	DB	00H
	DB	00H
	DB	00H
	DB	00H
	DB	00H
	DB	00H
	DB	00H
	DB	00H
	DB	00H
	DB	00H
	DB	00H
	DB	00H
	DB	00H
	DB	070H
	DB	050H
	DB	00H
	DB	0f3H
	DB	080H
	DB	05cH
	DB	00H
	DB	0ffH
	DB	088H
	DB	064H
	DB	00H
	DB	0ffH
	DB	088H
	DB	068H
	DB	00H
	DB	0ffH
	DB	088H
	DB	068H
	DB	00H
	DB	0ffH
	DB	090H
	DB	068H
	DB	00H
	DB	0ffH
	DB	088H
	DB	068H
	DB	08H
	DB	0ffH
	DB	088H
	DB	068H
	DB	00H
	DB	0ffH
	DB	090H
	DB	068H
	DB	00H
	DB	0ffH
	DB	088H
	DB	068H
	DB	00H
	DB	0ffH
	DB	090H
	DB	068H
	DB	00H
	DB	0ffH
	DB	090H
	DB	068H
	DB	00H
	DB	0ffH
	DB	088H
	DB	068H
	DB	00H
	DB	0ffH
	DB	090H
	DB	068H
	DB	00H
	DB	0ffH
	DB	090H
	DB	068H
	DB	00H
	DB	0ffH
	DB	090H
	DB	068H
	DB	00H
	DB	0ffH
	DB	090H
	DB	068H
	DB	08H
	DB	0ffH
	DB	088H
	DB	068H
	DB	00H
	DB	0ffH
	DB	090H
	DB	068H
	DB	00H
	DB	0ffH
	DB	090H
	DB	068H
	DB	00H
	DB	0ffH
	DB	088H
	DB	068H
	DB	00H
	DB	0ffH
	DB	088H
	DB	068H
	DB	00H
	DB	0ffH
	DB	090H
	DB	068H
	DB	00H
	DB	0ffH
	DB	090H
	DB	068H
	DB	08H
	DB	0ffH
	DB	088H
	DB	068H
	DB	00H
	DB	0ffH
	DB	090H
	DB	068H
	DB	00H
	DB	0ffH
	DB	090H
	DB	068H
	DB	08H
	DB	0ffH
	DB	088H
	DB	068H
	DB	00H
	DB	0ffH
	DB	090H
	DB	068H
	DB	00H
	DB	0ffH
	DB	090H
	DB	068H
	DB	00H
	DB	0ffH
	DB	088H
	DB	068H
	DB	00H
	DB	0ffH
	DB	090H
	DB	068H
	DB	00H
	DB	0ffH
	DB	088H
	DB	068H
	DB	00H
	DB	0ffH
	DB	090H
	DB	068H
	DB	00H
	DB	0ffH
	DB	088H
	DB	068H
	DB	00H
	DB	0ffH
	DB	090H
	DB	068H
	DB	00H
	DB	0ffH
	DB	090H
	DB	068H
	DB	00H
	DB	0ffH
	DB	088H
	DB	068H
	DB	08H
	DB	0ffH
	DB	090H
	DB	068H
	DB	00H
	DB	0ffH
	DB	088H
	DB	068H
	DB	00H
	DB	0ffH
	DB	088H
	DB	068H
	DB	00H
	DB	0ffH
	DB	090H
	DB	068H
	DB	00H
	DB	0ffH
	DB	090H
	DB	068H
	DB	00H
	DB	0ffH
	DB	088H
	DB	068H
	DB	00H
	DB	0ffH
	DB	090H
	DB	068H
	DB	08H
	DB	0ffH
	DB	090H
	DB	068H
	DB	00H
	DB	0ffH
	DB	088H
	DB	068H
	DB	00H
	DB	0ffH
	DB	088H
	DB	064H
	DB	00H
	DB	0ffH
	DB	080H
	DB	05cH
	DB	00H
	DB	0ffH
	DB	070H
	DB	054H
	DB	08H
	DB	0efH
	DB	00H
	DB	00H
	DB	00H
	DB	00H
	DB	00H
	DB	00H
	DB	00H
	DB	00H
	DB	00H
	DB	00H
	DB	00H
	DB	00H
	DB	00H
	DB	00H
	DB	00H
	DB	00H
	DB	00H
	DB	00H
	DB	00H
	DB	00H
	DB	00H
	DB	00H
	DB	00H
	DB	00H
	DB	00H
	DB	00H
	DB	00H
	DB	00H
	DB	00H
	DB	00H
	DB	00H
	DB	00H
	DB	00H
	DB	00H
	DB	00H
	DB	00H
	DB	00H
	DB	00H
	DB	00H
	DB	00H
	DB	070H
	DB	050H
	DB	00H
	DB	0ffH
	DB	080H
	DB	05cH
	DB	00H
	DB	0ffH
	DB	088H
	DB	064H
	DB	00H
	DB	0ffH
	DB	088H
	DB	068H
	DB	00H
	DB	0ffH
	DB	090H
	DB	068H
	DB	00H
	DB	0ffH
	DB	090H
	DB	068H
	DB	00H
	DB	0ffH
	DB	088H
	DB	068H
	DB	00H
	DB	0ffH
	DB	090H
	DB	068H
	DB	00H
	DB	0ffH
	DB	090H
	DB	068H
	DB	00H
	DB	0ffH
	DB	088H
	DB	068H
	DB	00H
	DB	0ffH
	DB	088H
	DB	068H
	DB	00H
	DB	0ffH
	DB	090H
	DB	068H
	DB	00H
	DB	0ffH
	DB	090H
	DB	068H
	DB	08H
	DB	0ffH
	DB	088H
	DB	068H
	DB	00H
	DB	0ffH
	DB	088H
	DB	068H
	DB	00H
	DB	0ffH
	DB	090H
	DB	068H
	DB	00H
	DB	0ffH
	DB	088H
	DB	068H
	DB	00H
	DB	0ffH
	DB	090H
	DB	068H
	DB	00H
	DB	0ffH
	DB	090H
	DB	068H
	DB	08H
	DB	0ffH
	DB	088H
	DB	068H
	DB	00H
	DB	0ffH
	DB	090H
	DB	068H
	DB	00H
	DB	0ffH
	DB	090H
	DB	068H
	DB	08H
	DB	0ffH
	DB	088H
	DB	068H
	DB	00H
	DB	0ffH
	DB	090H
	DB	068H
	DB	00H
	DB	0ffH
	DB	090H
	DB	068H
	DB	00H
	DB	0ffH
	DB	088H
	DB	068H
	DB	00H
	DB	0ffH
	DB	090H
	DB	068H
	DB	00H
	DB	0ffH
	DB	090H
	DB	068H
	DB	00H
	DB	0ffH
	DB	088H
	DB	068H
	DB	00H
	DB	0ffH
	DB	090H
	DB	068H
	DB	00H
	DB	0ffH
	DB	090H
	DB	068H
	DB	00H
	DB	0ffH
	DB	088H
	DB	068H
	DB	00H
	DB	0ffH
	DB	090H
	DB	068H
	DB	08H
	DB	0ffH
	DB	090H
	DB	068H
	DB	00H
	DB	0ffH
	DB	088H
	DB	068H
	DB	00H
	DB	0ffH
	DB	090H
	DB	068H
	DB	00H
	DB	0ffH
	DB	088H
	DB	068H
	DB	00H
	DB	0ffH
	DB	090H
	DB	068H
	DB	00H
	DB	0ffH
	DB	090H
	DB	068H
	DB	00H
	DB	0ffH
	DB	090H
	DB	068H
	DB	08H
	DB	0ffH
	DB	088H
	DB	068H
	DB	00H
	DB	0ffH
	DB	090H
	DB	068H
	DB	00H
	DB	0ffH
	DB	090H
	DB	068H
	DB	00H
	DB	0ffH
	DB	088H
	DB	068H
	DB	00H
	DB	0ffH
	DB	090H
	DB	068H
	DB	00H
	DB	0ffH
	DB	090H
	DB	068H
	DB	00H
	DB	0ffH
	DB	088H
	DB	068H
	DB	00H
	DB	0ffH
	DB	088H
	DB	068H
	DB	08H
	DB	0ffH
	DB	080H
	DB	05cH
	DB	00H
	DB	0ffH
	DB	070H
	DB	050H
	DB	00H
	DB	0fbH
	DB	00H
	DB	00H
	DB	00H
	DB	00H
	DB	00H
	DB	00H
	DB	00H
	DB	00H
	DB	00H
	DB	00H
	DB	00H
	DB	00H
	DB	00H
	DB	00H
	DB	00H
	DB	00H
	DB	00H
	DB	00H
	DB	00H
	DB	00H
	DB	00H
	DB	00H
	DB	00H
	DB	00H
	DB	00H
	DB	00H
	DB	00H
	DB	00H
	DB	00H
	DB	00H
	DB	00H
	DB	00H
	DB	00H
	DB	00H
	DB	00H
	DB	00H
	DB	00H
	DB	00H
	DB	00H
	DB	00H
	DB	070H
	DB	054H
	DB	00H
	DB	0ffH
	DB	080H
	DB	060H
	DB	00H
	DB	0ffH
	DB	088H
	DB	068H
	DB	08H
	DB	0ffH
	DB	090H
	DB	068H
	DB	00H
	DB	0ffH
	DB	090H
	DB	068H
	DB	00H
	DB	0ffH
	DB	090H
	DB	068H
	DB	08H
	DB	0ffH
	DB	090H
	DB	068H
	DB	00H
	DB	0ffH
	DB	090H
	DB	068H
	DB	00H
	DB	0ffH
	DB	090H
	DB	068H
	DB	08H
	DB	0ffH
	DB	090H
	DB	068H
	DB	00H
	DB	0ffH
	DB	090H
	DB	068H
	DB	00H
	DB	0ffH
	DB	090H
	DB	068H
	DB	00H
	DB	0ffH
	DB	090H
	DB	068H
	DB	00H
	DB	0ffH
	DB	090H
	DB	068H
	DB	00H
	DB	0ffH
	DB	090H
	DB	068H
	DB	00H
	DB	0ffH
	DB	090H
	DB	068H
	DB	08H
	DB	0ffH
	DB	090H
	DB	068H
	DB	00H
	DB	0ffH
	DB	090H
	DB	068H
	DB	00H
	DB	0ffH
	DB	090H
	DB	068H
	DB	00H
	DB	0ffH
	DB	090H
	DB	068H
	DB	00H
	DB	0ffH
	DB	090H
	DB	068H
	DB	00H
	DB	0ffH
	DB	090H
	DB	068H
	DB	00H
	DB	0ffH
	DB	090H
	DB	068H
	DB	00H
	DB	0ffH
	DB	090H
	DB	068H
	DB	00H
	DB	0ffH
	DB	090H
	DB	068H
	DB	00H
	DB	0ffH
	DB	088H
	DB	068H
	DB	00H
	DB	0ffH
	DB	090H
	DB	068H
	DB	00H
	DB	0ffH
	DB	090H
	DB	068H
	DB	00H
	DB	0ffH
	DB	090H
	DB	068H
	DB	08H
	DB	0ffH
	DB	090H
	DB	068H
	DB	00H
	DB	0ffH
	DB	090H
	DB	068H
	DB	00H
	DB	0ffH
	DB	090H
	DB	068H
	DB	00H
	DB	0ffH
	DB	090H
	DB	068H
	DB	00H
	DB	0ffH
	DB	090H
	DB	068H
	DB	00H
	DB	0ffH
	DB	090H
	DB	068H
	DB	00H
	DB	0ffH
	DB	090H
	DB	068H
	DB	08H
	DB	0ffH
	DB	090H
	DB	068H
	DB	00H
	DB	0ffH
	DB	090H
	DB	068H
	DB	00H
	DB	0ffH
	DB	090H
	DB	068H
	DB	00H
	DB	0ffH
	DB	090H
	DB	068H
	DB	00H
	DB	0ffH
	DB	090H
	DB	068H
	DB	00H
	DB	0ffH
	DB	090H
	DB	068H
	DB	00H
	DB	0ffH
	DB	090H
	DB	068H
	DB	08H
	DB	0ffH
	DB	090H
	DB	068H
	DB	00H
	DB	0ffH
	DB	090H
	DB	068H
	DB	00H
	DB	0ffH
	DB	090H
	DB	068H
	DB	00H
	DB	0ffH
	DB	090H
	DB	068H
	DB	00H
	DB	0ffH
	DB	088H
	DB	068H
	DB	00H
	DB	0ffH
	DB	080H
	DB	060H
	DB	00H
	DB	0ffH
	DB	070H
	DB	054H
	DB	00H
	DB	0fbH
	DB	00H
	DB	00H
	DB	00H
	DB	00H
	DB	00H
	DB	00H
	DB	00H
	DB	00H
	DB	00H
	DB	00H
	DB	00H
	DB	00H
	DB	00H
	DB	00H
	DB	00H
	DB	00H
	DB	00H
	DB	00H
	DB	00H
	DB	00H
	DB	00H
	DB	00H
	DB	00H
	DB	00H
	DB	00H
	DB	00H
	DB	00H
	DB	00H
	DB	00H
	DB	00H
	DB	00H
	DB	00H
	DB	00H
	DB	00H
	DB	00H
	DB	00H
	DB	00H
	DB	00H
	DB	00H
	DB	00H
	DB	070H
	DB	054H
	DB	08H
	DB	0f3H
	DB	080H
	DB	060H
	DB	00H
	DB	0ffH
	DB	088H
	DB	068H
	DB	00H
	DB	0ffH
	DB	090H
	DB	068H
	DB	00H
	DB	0ffH
	DB	090H
	DB	068H
	DB	00H
	DB	0ffH
	DB	088H
	DB	068H
	DB	00H
	DB	0ffH
	DB	090H
	DB	068H
	DB	00H
	DB	0ffH
	DB	090H
	DB	068H
	DB	00H
	DB	0ffH
	DB	088H
	DB	068H
	DB	00H
	DB	0ffH
	DB	090H
	DB	068H
	DB	00H
	DB	0ffH
	DB	090H
	DB	068H
	DB	00H
	DB	0ffH
	DB	088H
	DB	068H
	DB	08H
	DB	0ffH
	DB	090H
	DB	068H
	DB	00H
	DB	0ffH
	DB	090H
	DB	068H
	DB	00H
	DB	0ffH
	DB	088H
	DB	068H
	DB	00H
	DB	0ffH
	DB	090H
	DB	068H
	DB	00H
	DB	0ffH
	DB	090H
	DB	068H
	DB	00H
	DB	0ffH
	DB	088H
	DB	068H
	DB	00H
	DB	0ffH
	DB	090H
	DB	068H
	DB	00H
	DB	0ffH
	DB	088H
	DB	068H
	DB	00H
	DB	0ffH
	DB	090H
	DB	068H
	DB	00H
	DB	0ffH
	DB	090H
	DB	068H
	DB	00H
	DB	0ffH
	DB	088H
	DB	068H
	DB	00H
	DB	0ffH
	DB	090H
	DB	068H
	DB	08H
	DB	0ffH
	DB	090H
	DB	068H
	DB	00H
	DB	0ffH
	DB	090H
	DB	068H
	DB	00H
	DB	0ffH
	DB	088H
	DB	068H
	DB	08H
	DB	0ffH
	DB	090H
	DB	068H
	DB	00H
	DB	0ffH
	DB	090H
	DB	068H
	DB	00H
	DB	0ffH
	DB	088H
	DB	068H
	DB	00H
	DB	0ffH
	DB	088H
	DB	068H
	DB	00H
	DB	0ffH
	DB	090H
	DB	068H
	DB	08H
	DB	0ffH
	DB	090H
	DB	068H
	DB	00H
	DB	0ffH
	DB	088H
	DB	068H
	DB	00H
	DB	0ffH
	DB	090H
	DB	068H
	DB	00H
	DB	0ffH
	DB	090H
	DB	068H
	DB	00H
	DB	0ffH
	DB	088H
	DB	068H
	DB	00H
	DB	0ffH
	DB	088H
	DB	068H
	DB	00H
	DB	0ffH
	DB	090H
	DB	068H
	DB	00H
	DB	0ffH
	DB	088H
	DB	068H
	DB	00H
	DB	0ffH
	DB	090H
	DB	068H
	DB	00H
	DB	0ffH
	DB	088H
	DB	068H
	DB	00H
	DB	0ffH
	DB	088H
	DB	068H
	DB	00H
	DB	0ffH
	DB	090H
	DB	068H
	DB	00H
	DB	0ffH
	DB	088H
	DB	068H
	DB	00H
	DB	0ffH
	DB	090H
	DB	068H
	DB	08H
	DB	0ffH
	DB	090H
	DB	068H
	DB	00H
	DB	0ffH
	DB	088H
	DB	068H
	DB	00H
	DB	0ffH
	DB	080H
	DB	060H
	DB	00H
	DB	0ffH
	DB	070H
	DB	054H
	DB	08H
	DB	0efH
	DB	00H
	DB	00H
	DB	00H
	DB	00H
	DB	00H
	DB	00H
	DB	00H
	DB	00H
	DB	00H
	DB	00H
	DB	00H
	DB	00H
	DB	00H
	DB	00H
	DB	00H
	DB	00H
	DB	00H
	DB	00H
	DB	00H
	DB	00H
	DB	00H
	DB	00H
	DB	00H
	DB	00H
	DB	00H
	DB	00H
	DB	00H
	DB	00H
	DB	00H
	DB	00H
	DB	00H
	DB	00H
	DB	00H
	DB	00H
	DB	00H
	DB	00H
	DB	00H
	DB	00H
	DB	00H
	DB	00H
	DB	070H
	DB	054H
	DB	08H
	DB	0e3H
	DB	080H
	DB	05cH
	DB	00H
	DB	0ffH
	DB	088H
	DB	064H
	DB	00H
	DB	0ffH
	DB	090H
	DB	068H
	DB	00H
	DB	0ffH
	DB	090H
	DB	068H
	DB	00H
	DB	0ffH
	DB	090H
	DB	06cH
	DB	00H
	DB	0ffH
	DB	090H
	DB	068H
	DB	00H
	DB	0ffH
	DB	090H
	DB	06cH
	DB	00H
	DB	0ffH
	DB	090H
	DB	068H
	DB	00H
	DB	0ffH
	DB	090H
	DB	06cH
	DB	00H
	DB	0ffH
	DB	090H
	DB	068H
	DB	00H
	DB	0ffH
	DB	090H
	DB	06cH
	DB	00H
	DB	0ffH
	DB	090H
	DB	068H
	DB	00H
	DB	0ffH
	DB	090H
	DB	06cH
	DB	00H
	DB	0ffH
	DB	090H
	DB	068H
	DB	00H
	DB	0ffH
	DB	090H
	DB	06cH
	DB	00H
	DB	0ffH
	DB	090H
	DB	068H
	DB	00H
	DB	0ffH
	DB	090H
	DB	06cH
	DB	00H
	DB	0ffH
	DB	090H
	DB	06cH
	DB	08H
	DB	0ffH
	DB	090H
	DB	068H
	DB	00H
	DB	0ffH
	DB	090H
	DB	06cH
	DB	00H
	DB	0ffH
	DB	090H
	DB	068H
	DB	08H
	DB	0ffH
	DB	090H
	DB	06cH
	DB	00H
	DB	0ffH
	DB	090H
	DB	068H
	DB	00H
	DB	0ffH
	DB	090H
	DB	06cH
	DB	00H
	DB	0ffH
	DB	090H
	DB	068H
	DB	00H
	DB	0ffH
	DB	090H
	DB	06cH
	DB	00H
	DB	0ffH
	DB	090H
	DB	068H
	DB	00H
	DB	0ffH
	DB	090H
	DB	06cH
	DB	00H
	DB	0ffH
	DB	090H
	DB	068H
	DB	00H
	DB	0ffH
	DB	090H
	DB	06cH
	DB	00H
	DB	0ffH
	DB	090H
	DB	068H
	DB	00H
	DB	0ffH
	DB	090H
	DB	06cH
	DB	00H
	DB	0ffH
	DB	090H
	DB	068H
	DB	00H
	DB	0ffH
	DB	090H
	DB	06cH
	DB	00H
	DB	0ffH
	DB	090H
	DB	068H
	DB	00H
	DB	0ffH
	DB	090H
	DB	06cH
	DB	08H
	DB	0ffH
	DB	090H
	DB	068H
	DB	00H
	DB	0ffH
	DB	090H
	DB	068H
	DB	00H
	DB	0ffH
	DB	090H
	DB	06cH
	DB	08H
	DB	0ffH
	DB	090H
	DB	068H
	DB	00H
	DB	0ffH
	DB	090H
	DB	068H
	DB	00H
	DB	0ffH
	DB	090H
	DB	06cH
	DB	00H
	DB	0ffH
	DB	090H
	DB	068H
	DB	00H
	DB	0ffH
	DB	090H
	DB	06cH
	DB	00H
	DB	0ffH
	DB	090H
	DB	068H
	DB	00H
	DB	0ffH
	DB	090H
	DB	068H
	DB	00H
	DB	0ffH
	DB	088H
	DB	068H
	DB	00H
	DB	0ffH
	DB	080H
	DB	05cH
	DB	00H
	DB	0ffH
	DB	070H
	DB	054H
	DB	08H
	DB	0e3H
	DB	00H
	DB	00H
	DB	00H
	DB	00H
	DB	00H
	DB	00H
	DB	00H
	DB	00H
	DB	00H
	DB	00H
	DB	00H
	DB	00H
	DB	00H
	DB	00H
	DB	00H
	DB	00H
	DB	00H
	DB	00H
	DB	00H
	DB	00H
	DB	00H
	DB	00H
	DB	00H
	DB	00H
	DB	00H
	DB	00H
	DB	00H
	DB	00H
	DB	00H
	DB	00H
	DB	00H
	DB	00H
	DB	00H
	DB	00H
	DB	00H
	DB	00H
	DB	00H
	DB	00H
	DB	00H
	DB	00H
	DB	070H
	DB	058H
	DB	010H
	DB	0c3H
	DB	080H
	DB	05cH
	DB	00H
	DB	0ffH
	DB	088H
	DB	068H
	DB	00H
	DB	0ffH
	DB	090H
	DB	06cH
	DB	00H
	DB	0ffH
	DB	090H
	DB	06cH
	DB	08H
	DB	0ffH
	DB	090H
	DB	06cH
	DB	00H
	DB	0ffH
	DB	090H
	DB	06cH
	DB	00H
	DB	0ffH
	DB	090H
	DB	068H
	DB	08H
	DB	0ffH
	DB	090H
	DB	06cH
	DB	00H
	DB	0ffH
	DB	090H
	DB	06cH
	DB	00H
	DB	0ffH
	DB	090H
	DB	06cH
	DB	08H
	DB	0ffH
	DB	090H
	DB	068H
	DB	00H
	DB	0ffH
	DB	090H
	DB	06cH
	DB	00H
	DB	0ffH
	DB	090H
	DB	06cH
	DB	08H
	DB	0ffH
	DB	090H
	DB	06cH
	DB	00H
	DB	0ffH
	DB	090H
	DB	068H
	DB	00H
	DB	0ffH
	DB	090H
	DB	06cH
	DB	08H
	DB	0ffH
	DB	090H
	DB	06cH
	DB	00H
	DB	0ffH
	DB	090H
	DB	068H
	DB	00H
	DB	0ffH
	DB	090H
	DB	06cH
	DB	00H
	DB	0ffH
	DB	090H
	DB	06cH
	DB	00H
	DB	0ffH
	DB	090H
	DB	06cH
	DB	00H
	DB	0ffH
	DB	090H
	DB	068H
	DB	00H
	DB	0ffH
	DB	088H
	DB	06cH
	DB	00H
	DB	0ffH
	DB	090H
	DB	06cH
	DB	00H
	DB	0ffH
	DB	090H
	DB	06cH
	DB	00H
	DB	0ffH
	DB	090H
	DB	068H
	DB	00H
	DB	0ffH
	DB	090H
	DB	06cH
	DB	00H
	DB	0ffH
	DB	090H
	DB	06cH
	DB	08H
	DB	0ffH
	DB	090H
	DB	06cH
	DB	00H
	DB	0ffH
	DB	090H
	DB	068H
	DB	00H
	DB	0ffH
	DB	090H
	DB	06cH
	DB	00H
	DB	0ffH
	DB	090H
	DB	06cH
	DB	00H
	DB	0ffH
	DB	090H
	DB	06cH
	DB	08H
	DB	0ffH
	DB	090H
	DB	068H
	DB	00H
	DB	0ffH
	DB	090H
	DB	06cH
	DB	00H
	DB	0ffH
	DB	090H
	DB	06cH
	DB	00H
	DB	0ffH
	DB	090H
	DB	06cH
	DB	00H
	DB	0ffH
	DB	090H
	DB	06cH
	DB	00H
	DB	0ffH
	DB	090H
	DB	06cH
	DB	00H
	DB	0ffH
	DB	090H
	DB	06cH
	DB	00H
	DB	0ffH
	DB	090H
	DB	06cH
	DB	08H
	DB	0ffH
	DB	090H
	DB	06cH
	DB	00H
	DB	0ffH
	DB	090H
	DB	06cH
	DB	00H
	DB	0ffH
	DB	090H
	DB	06cH
	DB	08H
	DB	0ffH
	DB	090H
	DB	06cH
	DB	00H
	DB	0ffH
	DB	090H
	DB	068H
	DB	00H
	DB	0ffH
	DB	088H
	DB	068H
	DB	00H
	DB	0ffH
	DB	080H
	DB	05cH
	DB	00H
	DB	0ffH
	DB	070H
	DB	054H
	DB	010H
	DB	0c3H
	DB	00H
	DB	00H
	DB	00H
	DB	00H
	DB	00H
	DB	00H
	DB	00H
	DB	00H
	DB	00H
	DB	00H
	DB	00H
	DB	00H
	DB	00H
	DB	00H
	DB	00H
	DB	00H
	DB	00H
	DB	00H
	DB	00H
	DB	00H
	DB	00H
	DB	00H
	DB	00H
	DB	00H
	DB	00H
	DB	00H
	DB	00H
	DB	00H
	DB	00H
	DB	00H
	DB	00H
	DB	00H
	DB	00H
	DB	00H
	DB	00H
	DB	00H
	DB	00H
	DB	00H
	DB	00H
	DB	00H
	DB	070H
	DB	058H
	DB	018H
	DB	0a2H
	DB	080H
	DB	05cH
	DB	00H
	DB	0ffH
	DB	088H
	DB	064H
	DB	00H
	DB	0ffH
	DB	090H
	DB	06cH
	DB	00H
	DB	0ffH
	DB	090H
	DB	068H
	DB	00H
	DB	0ffH
	DB	090H
	DB	068H
	DB	00H
	DB	0ffH
	DB	090H
	DB	068H
	DB	00H
	DB	0ffH
	DB	090H
	DB	06cH
	DB	00H
	DB	0ffH
	DB	090H
	DB	068H
	DB	00H
	DB	0ffH
	DB	090H
	DB	068H
	DB	00H
	DB	0ffH
	DB	090H
	DB	06cH
	DB	00H
	DB	0ffH
	DB	090H
	DB	068H
	DB	00H
	DB	0ffH
	DB	090H
	DB	068H
	DB	00H
	DB	0ffH
	DB	090H
	DB	06cH
	DB	00H
	DB	0ffH
	DB	090H
	DB	068H
	DB	00H
	DB	0ffH
	DB	090H
	DB	068H
	DB	00H
	DB	0ffH
	DB	090H
	DB	06cH
	DB	00H
	DB	0ffH
	DB	090H
	DB	068H
	DB	00H
	DB	0ffH
	DB	090H
	DB	068H
	DB	00H
	DB	0ffH
	DB	090H
	DB	068H
	DB	00H
	DB	0ffH
	DB	090H
	DB	068H
	DB	00H
	DB	0ffH
	DB	090H
	DB	06cH
	DB	00H
	DB	0ffH
	DB	090H
	DB	068H
	DB	00H
	DB	0ffH
	DB	090H
	DB	068H
	DB	00H
	DB	0ffH
	DB	090H
	DB	06cH
	DB	08H
	DB	0ffH
	DB	090H
	DB	068H
	DB	00H
	DB	0ffH
	DB	090H
	DB	068H
	DB	00H
	DB	0ffH
	DB	090H
	DB	06cH
	DB	00H
	DB	0ffH
	DB	090H
	DB	068H
	DB	00H
	DB	0ffH
	DB	090H
	DB	068H
	DB	00H
	DB	0ffH
	DB	090H
	DB	06cH
	DB	00H
	DB	0ffH
	DB	090H
	DB	068H
	DB	08H
	DB	0ffH
	DB	090H
	DB	068H
	DB	00H
	DB	0ffH
	DB	090H
	DB	06cH
	DB	00H
	DB	0ffH
	DB	090H
	DB	068H
	DB	00H
	DB	0ffH
	DB	090H
	DB	068H
	DB	00H
	DB	0ffH
	DB	090H
	DB	068H
	DB	00H
	DB	0ffH
	DB	090H
	DB	068H
	DB	00H
	DB	0ffH
	DB	090H
	DB	068H
	DB	00H
	DB	0ffH
	DB	090H
	DB	068H
	DB	00H
	DB	0ffH
	DB	090H
	DB	068H
	DB	00H
	DB	0ffH
	DB	090H
	DB	068H
	DB	00H
	DB	0ffH
	DB	090H
	DB	068H
	DB	00H
	DB	0ffH
	DB	090H
	DB	068H
	DB	00H
	DB	0ffH
	DB	090H
	DB	068H
	DB	00H
	DB	0ffH
	DB	090H
	DB	06cH
	DB	00H
	DB	0ffH
	DB	090H
	DB	068H
	DB	00H
	DB	0ffH
	DB	088H
	DB	068H
	DB	08H
	DB	0ffH
	DB	078H
	DB	05cH
	DB	00H
	DB	0ffH
	DB	070H
	DB	058H
	DB	018H
	DB	0a2H
	DB	00H
	DB	00H
	DB	00H
	DB	00H
	DB	00H
	DB	00H
	DB	00H
	DB	00H
	DB	00H
	DB	00H
	DB	00H
	DB	00H
	DB	00H
	DB	00H
	DB	00H
	DB	00H
	DB	00H
	DB	00H
	DB	00H
	DB	00H
	DB	00H
	DB	00H
	DB	00H
	DB	00H
	DB	00H
	DB	00H
	DB	00H
	DB	00H
	DB	00H
	DB	00H
	DB	00H
	DB	00H
	DB	00H
	DB	00H
	DB	00H
	DB	00H
	DB	00H
	DB	00H
	DB	00H
	DB	00H
	DB	078H
	DB	060H
	DB	028H
	DB	071H
	DB	078H
	DB	058H
	DB	00H
	DB	0ffH
	DB	088H
	DB	064H
	DB	00H
	DB	0ffH
	DB	090H
	DB	068H
	DB	00H
	DB	0ffH
	DB	090H
	DB	06cH
	DB	00H
	DB	0ffH
	DB	090H
	DB	068H
	DB	00H
	DB	0ffH
	DB	090H
	DB	06cH
	DB	00H
	DB	0ffH
	DB	090H
	DB	06cH
	DB	00H
	DB	0ffH
	DB	090H
	DB	068H
	DB	00H
	DB	0ffH
	DB	090H
	DB	068H
	DB	00H
	DB	0ffH
	DB	090H
	DB	06cH
	DB	00H
	DB	0ffH
	DB	090H
	DB	06cH
	DB	00H
	DB	0ffH
	DB	090H
	DB	068H
	DB	00H
	DB	0ffH
	DB	090H
	DB	068H
	DB	00H
	DB	0ffH
	DB	090H
	DB	06cH
	DB	00H
	DB	0ffH
	DB	090H
	DB	06cH
	DB	00H
	DB	0ffH
	DB	090H
	DB	068H
	DB	00H
	DB	0ffH
	DB	090H
	DB	06cH
	DB	00H
	DB	0ffH
	DB	090H
	DB	06cH
	DB	08H
	DB	0ffH
	DB	090H
	DB	068H
	DB	00H
	DB	0ffH
	DB	090H
	DB	06cH
	DB	00H
	DB	0ffH
	DB	090H
	DB	06cH
	DB	08H
	DB	0ffH
	DB	090H
	DB	068H
	DB	00H
	DB	0ffH
	DB	090H
	DB	06cH
	DB	00H
	DB	0ffH
	DB	090H
	DB	068H
	DB	00H
	DB	0ffH
	DB	090H
	DB	06cH
	DB	00H
	DB	0ffH
	DB	090H
	DB	06cH
	DB	00H
	DB	0ffH
	DB	090H
	DB	068H
	DB	08H
	DB	0ffH
	DB	090H
	DB	068H
	DB	00H
	DB	0ffH
	DB	090H
	DB	06cH
	DB	00H
	DB	0ffH
	DB	090H
	DB	06cH
	DB	00H
	DB	0ffH
	DB	090H
	DB	068H
	DB	00H
	DB	0ffH
	DB	090H
	DB	068H
	DB	00H
	DB	0ffH
	DB	090H
	DB	06cH
	DB	00H
	DB	0ffH
	DB	090H
	DB	06cH
	DB	00H
	DB	0ffH
	DB	090H
	DB	06cH
	DB	08H
	DB	0ffH
	DB	090H
	DB	06cH
	DB	00H
	DB	0ffH
	DB	090H
	DB	06cH
	DB	00H
	DB	0ffH
	DB	090H
	DB	068H
	DB	08H
	DB	0ffH
	DB	090H
	DB	06cH
	DB	00H
	DB	0ffH
	DB	090H
	DB	06cH
	DB	00H
	DB	0ffH
	DB	090H
	DB	06cH
	DB	00H
	DB	0ffH
	DB	090H
	DB	068H
	DB	00H
	DB	0ffH
	DB	090H
	DB	06cH
	DB	00H
	DB	0ffH
	DB	090H
	DB	068H
	DB	00H
	DB	0ffH
	DB	090H
	DB	068H
	DB	00H
	DB	0ffH
	DB	090H
	DB	06cH
	DB	00H
	DB	0ffH
	DB	088H
	DB	064H
	DB	00H
	DB	0ffH
	DB	078H
	DB	058H
	DB	00H
	DB	0ffH
	DB	078H
	DB	064H
	DB	028H
	DB	075H
	DB	00H
	DB	00H
	DB	00H
	DB	00H
	DB	00H
	DB	00H
	DB	00H
	DB	00H
	DB	00H
	DB	00H
	DB	00H
	DB	00H
	DB	00H
	DB	00H
	DB	00H
	DB	00H
	DB	00H
	DB	00H
	DB	00H
	DB	00H
	DB	00H
	DB	00H
	DB	00H
	DB	00H
	DB	00H
	DB	00H
	DB	00H
	DB	00H
	DB	00H
	DB	00H
	DB	00H
	DB	00H
	DB	00H
	DB	00H
	DB	00H
	DB	00H
	DB	00H
	DB	00H
	DB	00H
	DB	00H
	DB	098H
	DB	084H
	DB	058H
	DB	02cH
	DB	070H
	DB	058H
	DB	00H
	DB	0ffH
	DB	088H
	DB	064H
	DB	00H
	DB	0ffH
	DB	090H
	DB	06cH
	DB	00H
	DB	0ffH
	DB	090H
	DB	06cH
	DB	00H
	DB	0ffH
	DB	090H
	DB	06cH
	DB	00H
	DB	0ffH
	DB	090H
	DB	06cH
	DB	00H
	DB	0ffH
	DB	090H
	DB	06cH
	DB	00H
	DB	0ffH
	DB	090H
	DB	06cH
	DB	00H
	DB	0ffH
	DB	090H
	DB	06cH
	DB	00H
	DB	0ffH
	DB	090H
	DB	06cH
	DB	00H
	DB	0ffH
	DB	090H
	DB	06cH
	DB	00H
	DB	0ffH
	DB	090H
	DB	06cH
	DB	00H
	DB	0ffH
	DB	090H
	DB	06cH
	DB	00H
	DB	0ffH
	DB	090H
	DB	06cH
	DB	00H
	DB	0ffH
	DB	090H
	DB	06cH
	DB	00H
	DB	0ffH
	DB	090H
	DB	06cH
	DB	00H
	DB	0ffH
	DB	090H
	DB	06cH
	DB	00H
	DB	0ffH
	DB	090H
	DB	06cH
	DB	00H
	DB	0ffH
	DB	090H
	DB	06cH
	DB	00H
	DB	0ffH
	DB	090H
	DB	06cH
	DB	00H
	DB	0ffH
	DB	090H
	DB	06cH
	DB	00H
	DB	0ffH
	DB	090H
	DB	06cH
	DB	00H
	DB	0ffH
	DB	090H
	DB	06cH
	DB	00H
	DB	0ffH
	DB	090H
	DB	06cH
	DB	00H
	DB	0ffH
	DB	090H
	DB	06cH
	DB	00H
	DB	0ffH
	DB	090H
	DB	06cH
	DB	00H
	DB	0ffH
	DB	090H
	DB	06cH
	DB	00H
	DB	0ffH
	DB	090H
	DB	06cH
	DB	00H
	DB	0ffH
	DB	090H
	DB	06cH
	DB	00H
	DB	0ffH
	DB	090H
	DB	06cH
	DB	00H
	DB	0ffH
	DB	090H
	DB	06cH
	DB	00H
	DB	0ffH
	DB	090H
	DB	06cH
	DB	00H
	DB	0ffH
	DB	090H
	DB	06cH
	DB	00H
	DB	0ffH
	DB	090H
	DB	06cH
	DB	00H
	DB	0ffH
	DB	090H
	DB	06cH
	DB	00H
	DB	0ffH
	DB	090H
	DB	06cH
	DB	00H
	DB	0ffH
	DB	090H
	DB	06cH
	DB	00H
	DB	0ffH
	DB	090H
	DB	06cH
	DB	00H
	DB	0ffH
	DB	090H
	DB	06cH
	DB	00H
	DB	0ffH
	DB	090H
	DB	06cH
	DB	00H
	DB	0ffH
	DB	090H
	DB	06cH
	DB	00H
	DB	0ffH
	DB	090H
	DB	06cH
	DB	00H
	DB	0ffH
	DB	090H
	DB	06cH
	DB	00H
	DB	0ffH
	DB	090H
	DB	06cH
	DB	00H
	DB	0ffH
	DB	090H
	DB	06cH
	DB	00H
	DB	0ffH
	DB	090H
	DB	068H
	DB	00H
	DB	0ffH
	DB	088H
	DB	064H
	DB	00H
	DB	0ffH
	DB	078H
	DB	058H
	DB	00H
	DB	0ffH
	DB	090H
	DB	080H
	DB	050H
	DB	030H
	DB	00H
	DB	00H
	DB	00H
	DB	00H
	DB	00H
	DB	00H
	DB	00H
	DB	00H
	DB	00H
	DB	00H
	DB	00H
	DB	00H
	DB	00H
	DB	00H
	DB	00H
	DB	00H
	DB	00H
	DB	00H
	DB	00H
	DB	00H
	DB	00H
	DB	00H
	DB	00H
	DB	00H
	DB	00H
	DB	00H
	DB	00H
	DB	00H
	DB	00H
	DB	00H
	DB	00H
	DB	00H
	DB	00H
	DB	00H
	DB	00H
	DB	00H
	DB	00H
	DB	00H
	DB	00H
	DB	00H
	DB	0f8H
	DB	0fcH
	DB	0f8H
	DB	04H
	DB	070H
	DB	054H
	DB	08H
	DB	0dbH
	DB	080H
	DB	060H
	DB	00H
	DB	0ffH
	DB	088H
	DB	068H
	DB	00H
	DB	0ffH
	DB	090H
	DB	06cH
	DB	00H
	DB	0ffH
	DB	090H
	DB	06cH
	DB	00H
	DB	0ffH
	DB	090H
	DB	068H
	DB	00H
	DB	0ffH
	DB	090H
	DB	06cH
	DB	00H
	DB	0ffH
	DB	090H
	DB	06cH
	DB	00H
	DB	0ffH
	DB	090H
	DB	06cH
	DB	00H
	DB	0ffH
	DB	090H
	DB	068H
	DB	00H
	DB	0ffH
	DB	090H
	DB	06cH
	DB	00H
	DB	0ffH
	DB	090H
	DB	06cH
	DB	00H
	DB	0ffH
	DB	090H
	DB	06cH
	DB	00H
	DB	0ffH
	DB	090H
	DB	068H
	DB	00H
	DB	0ffH
	DB	090H
	DB	06cH
	DB	00H
	DB	0ffH
	DB	090H
	DB	06cH
	DB	00H
	DB	0ffH
	DB	090H
	DB	068H
	DB	00H
	DB	0ffH
	DB	090H
	DB	06cH
	DB	00H
	DB	0ffH
	DB	090H
	DB	06cH
	DB	00H
	DB	0ffH
	DB	090H
	DB	068H
	DB	00H
	DB	0ffH
	DB	090H
	DB	06cH
	DB	00H
	DB	0ffH
	DB	090H
	DB	06cH
	DB	00H
	DB	0ffH
	DB	090H
	DB	068H
	DB	00H
	DB	0ffH
	DB	090H
	DB	06cH
	DB	00H
	DB	0ffH
	DB	090H
	DB	06cH
	DB	00H
	DB	0ffH
	DB	090H
	DB	068H
	DB	00H
	DB	0ffH
	DB	090H
	DB	06cH
	DB	00H
	DB	0ffH
	DB	090H
	DB	06cH
	DB	00H
	DB	0ffH
	DB	090H
	DB	068H
	DB	00H
	DB	0ffH
	DB	090H
	DB	06cH
	DB	00H
	DB	0ffH
	DB	090H
	DB	06cH
	DB	00H
	DB	0ffH
	DB	090H
	DB	06cH
	DB	00H
	DB	0ffH
	DB	090H
	DB	068H
	DB	00H
	DB	0ffH
	DB	090H
	DB	068H
	DB	00H
	DB	0ffH
	DB	090H
	DB	06cH
	DB	00H
	DB	0ffH
	DB	090H
	DB	068H
	DB	00H
	DB	0ffH
	DB	090H
	DB	06cH
	DB	00H
	DB	0ffH
	DB	090H
	DB	06cH
	DB	00H
	DB	0ffH
	DB	090H
	DB	068H
	DB	00H
	DB	0ffH
	DB	090H
	DB	06cH
	DB	00H
	DB	0ffH
	DB	090H
	DB	06cH
	DB	00H
	DB	0ffH
	DB	090H
	DB	06cH
	DB	00H
	DB	0ffH
	DB	090H
	DB	06cH
	DB	00H
	DB	0ffH
	DB	090H
	DB	06cH
	DB	00H
	DB	0ffH
	DB	090H
	DB	06cH
	DB	00H
	DB	0ffH
	DB	088H
	DB	068H
	DB	00H
	DB	0ffH
	DB	080H
	DB	060H
	DB	00H
	DB	0ffH
	DB	070H
	DB	054H
	DB	08H
	DB	0e3H
	DB	0f8H
	DB	0fcH
	DB	0f8H
	DB	04H
	DB	00H
	DB	00H
	DB	00H
	DB	00H
	DB	00H
	DB	00H
	DB	00H
	DB	00H
	DB	00H
	DB	00H
	DB	00H
	DB	00H
	DB	00H
	DB	00H
	DB	00H
	DB	00H
	DB	00H
	DB	00H
	DB	00H
	DB	00H
	DB	00H
	DB	00H
	DB	00H
	DB	00H
	DB	00H
	DB	00H
	DB	00H
	DB	00H
	DB	00H
	DB	00H
	DB	00H
	DB	00H
	DB	00H
	DB	00H
	DB	00H
	DB	00H
	DB	00H
	DB	00H
	DB	00H
	DB	00H
	DB	00H
	DB	00H
	DB	00H
	DB	00H
	DB	078H
	DB	064H
	DB	028H
	DB	08eH
	DB	080H
	DB	05cH
	DB	00H
	DB	0ffH
	DB	088H
	DB	064H
	DB	00H
	DB	0ffH
	DB	090H
	DB	06cH
	DB	00H
	DB	0ffH
	DB	090H
	DB	06cH
	DB	00H
	DB	0ffH
	DB	090H
	DB	06cH
	DB	00H
	DB	0ffH
	DB	090H
	DB	068H
	DB	00H
	DB	0ffH
	DB	090H
	DB	06cH
	DB	00H
	DB	0ffH
	DB	090H
	DB	06cH
	DB	00H
	DB	0ffH
	DB	090H
	DB	068H
	DB	00H
	DB	0ffH
	DB	090H
	DB	06cH
	DB	00H
	DB	0ffH
	DB	090H
	DB	06cH
	DB	00H
	DB	0ffH
	DB	090H
	DB	068H
	DB	00H
	DB	0ffH
	DB	090H
	DB	06cH
	DB	00H
	DB	0ffH
	DB	090H
	DB	06cH
	DB	00H
	DB	0ffH
	DB	090H
	DB	068H
	DB	00H
	DB	0ffH
	DB	090H
	DB	06cH
	DB	00H
	DB	0ffH
	DB	090H
	DB	06cH
	DB	00H
	DB	0ffH
	DB	090H
	DB	068H
	DB	00H
	DB	0ffH
	DB	090H
	DB	06cH
	DB	00H
	DB	0ffH
	DB	090H
	DB	06cH
	DB	00H
	DB	0ffH
	DB	090H
	DB	068H
	DB	00H
	DB	0ffH
	DB	090H
	DB	06cH
	DB	00H
	DB	0ffH
	DB	090H
	DB	06cH
	DB	00H
	DB	0ffH
	DB	090H
	DB	068H
	DB	00H
	DB	0ffH
	DB	090H
	DB	06cH
	DB	00H
	DB	0ffH
	DB	090H
	DB	06cH
	DB	00H
	DB	0ffH
	DB	090H
	DB	06cH
	DB	00H
	DB	0ffH
	DB	090H
	DB	06cH
	DB	00H
	DB	0ffH
	DB	090H
	DB	068H
	DB	00H
	DB	0ffH
	DB	090H
	DB	06cH
	DB	00H
	DB	0ffH
	DB	090H
	DB	06cH
	DB	00H
	DB	0ffH
	DB	090H
	DB	06cH
	DB	00H
	DB	0ffH
	DB	090H
	DB	06cH
	DB	00H
	DB	0ffH
	DB	090H
	DB	06cH
	DB	00H
	DB	0ffH
	DB	090H
	DB	06cH
	DB	00H
	DB	0ffH
	DB	090H
	DB	068H
	DB	00H
	DB	0ffH
	DB	090H
	DB	06cH
	DB	00H
	DB	0ffH
	DB	090H
	DB	06cH
	DB	00H
	DB	0ffH
	DB	090H
	DB	068H
	DB	00H
	DB	0ffH
	DB	090H
	DB	06cH
	DB	00H
	DB	0ffH
	DB	090H
	DB	068H
	DB	00H
	DB	0ffH
	DB	090H
	DB	06cH
	DB	00H
	DB	0ffH
	DB	090H
	DB	06cH
	DB	00H
	DB	0ffH
	DB	090H
	DB	06cH
	DB	00H
	DB	0ffH
	DB	090H
	DB	064H
	DB	00H
	DB	0ffH
	DB	080H
	DB	05cH
	DB	00H
	DB	0ffH
	DB	078H
	DB	060H
	DB	020H
	DB	096H
	DB	00H
	DB	00H
	DB	00H
	DB	00H
	DB	00H
	DB	00H
	DB	00H
	DB	00H
	DB	00H
	DB	00H
	DB	00H
	DB	00H
	DB	00H
	DB	00H
	DB	00H
	DB	00H
	DB	00H
	DB	00H
	DB	00H
	DB	00H
	DB	00H
	DB	00H
	DB	00H
	DB	00H
	DB	00H
	DB	00H
	DB	00H
	DB	00H
	DB	00H
	DB	00H
	DB	00H
	DB	00H
	DB	00H
	DB	00H
	DB	00H
	DB	00H
	DB	00H
	DB	00H
	DB	00H
	DB	00H
	DB	00H
	DB	00H
	DB	00H
	DB	00H
	DB	00H
	DB	00H
	DB	00H
	DB	00H
	DB	098H
	DB	08cH
	DB	060H
	DB	034H
	DB	078H
	DB	058H
	DB	00H
	DB	0ffH
	DB	088H
	DB	064H
	DB	00H
	DB	0ffH
	DB	090H
	DB	068H
	DB	00H
	DB	0ffH
	DB	090H
	DB	06cH
	DB	00H
	DB	0ffH
	DB	090H
	DB	06cH
	DB	00H
	DB	0ffH
	DB	090H
	DB	06cH
	DB	00H
	DB	0ffH
	DB	090H
	DB	06cH
	DB	00H
	DB	0ffH
	DB	090H
	DB	06cH
	DB	00H
	DB	0ffH
	DB	090H
	DB	06cH
	DB	00H
	DB	0ffH
	DB	090H
	DB	06cH
	DB	00H
	DB	0ffH
	DB	090H
	DB	06cH
	DB	00H
	DB	0ffH
	DB	090H
	DB	06cH
	DB	00H
	DB	0ffH
	DB	090H
	DB	06cH
	DB	00H
	DB	0ffH
	DB	090H
	DB	06cH
	DB	00H
	DB	0ffH
	DB	090H
	DB	06cH
	DB	00H
	DB	0ffH
	DB	090H
	DB	06cH
	DB	00H
	DB	0ffH
	DB	090H
	DB	06cH
	DB	00H
	DB	0ffH
	DB	090H
	DB	06cH
	DB	00H
	DB	0ffH
	DB	090H
	DB	06cH
	DB	00H
	DB	0ffH
	DB	090H
	DB	06cH
	DB	00H
	DB	0ffH
	DB	090H
	DB	06cH
	DB	00H
	DB	0ffH
	DB	090H
	DB	06cH
	DB	00H
	DB	0ffH
	DB	090H
	DB	06cH
	DB	00H
	DB	0ffH
	DB	090H
	DB	06cH
	DB	00H
	DB	0ffH
	DB	090H
	DB	06cH
	DB	00H
	DB	0ffH
	DB	090H
	DB	06cH
	DB	00H
	DB	0ffH
	DB	090H
	DB	06cH
	DB	00H
	DB	0ffH
	DB	090H
	DB	06cH
	DB	00H
	DB	0ffH
	DB	090H
	DB	06cH
	DB	00H
	DB	0ffH
	DB	090H
	DB	06cH
	DB	00H
	DB	0ffH
	DB	090H
	DB	06cH
	DB	00H
	DB	0ffH
	DB	090H
	DB	06cH
	DB	00H
	DB	0ffH
	DB	090H
	DB	06cH
	DB	00H
	DB	0ffH
	DB	090H
	DB	06cH
	DB	00H
	DB	0ffH
	DB	090H
	DB	06cH
	DB	00H
	DB	0ffH
	DB	090H
	DB	06cH
	DB	00H
	DB	0ffH
	DB	090H
	DB	06cH
	DB	00H
	DB	0ffH
	DB	090H
	DB	06cH
	DB	00H
	DB	0ffH
	DB	090H
	DB	06cH
	DB	00H
	DB	0ffH
	DB	090H
	DB	06cH
	DB	00H
	DB	0ffH
	DB	090H
	DB	06cH
	DB	00H
	DB	0ffH
	DB	090H
	DB	06cH
	DB	00H
	DB	0ffH
	DB	090H
	DB	06cH
	DB	00H
	DB	0ffH
	DB	090H
	DB	06cH
	DB	00H
	DB	0ffH
	DB	088H
	DB	064H
	DB	00H
	DB	0ffH
	DB	078H
	DB	058H
	DB	00H
	DB	0ffH
	DB	0a0H
	DB	090H
	DB	068H
	DB	034H
	DB	00H
	DB	00H
	DB	00H
	DB	00H
	DB	00H
	DB	00H
	DB	00H
	DB	00H
	DB	00H
	DB	00H
	DB	00H
	DB	00H
	DB	00H
	DB	00H
	DB	00H
	DB	00H
	DB	00H
	DB	00H
	DB	00H
	DB	00H
	DB	00H
	DB	00H
	DB	00H
	DB	00H
	DB	00H
	DB	00H
	DB	00H
	DB	00H
	DB	00H
	DB	00H
	DB	00H
	DB	00H
	DB	00H
	DB	00H
	DB	00H
	DB	00H
	DB	00H
	DB	00H
	DB	00H
	DB	00H
	DB	00H
	DB	00H
	DB	00H
	DB	00H
	DB	00H
	DB	00H
	DB	00H
	DB	00H
	DB	0f8H
	DB	0fcH
	DB	0f8H
	DB	04H
	DB	078H
	DB	058H
	DB	010H
	DB	0beH
	DB	080H
	DB	060H
	DB	00H
	DB	0ffH
	DB	090H
	DB	068H
	DB	00H
	DB	0ffH
	DB	098H
	DB	06cH
	DB	00H
	DB	0ffH
	DB	098H
	DB	06cH
	DB	00H
	DB	0ffH
	DB	098H
	DB	06cH
	DB	00H
	DB	0ffH
	DB	098H
	DB	06cH
	DB	00H
	DB	0ffH
	DB	098H
	DB	06cH
	DB	00H
	DB	0ffH
	DB	090H
	DB	06cH
	DB	00H
	DB	0ffH
	DB	098H
	DB	06cH
	DB	00H
	DB	0ffH
	DB	098H
	DB	06cH
	DB	00H
	DB	0ffH
	DB	090H
	DB	06cH
	DB	00H
	DB	0ffH
	DB	098H
	DB	06cH
	DB	00H
	DB	0ffH
	DB	098H
	DB	06cH
	DB	00H
	DB	0ffH
	DB	090H
	DB	06cH
	DB	00H
	DB	0ffH
	DB	098H
	DB	06cH
	DB	00H
	DB	0ffH
	DB	098H
	DB	06cH
	DB	00H
	DB	0ffH
	DB	090H
	DB	06cH
	DB	00H
	DB	0ffH
	DB	098H
	DB	06cH
	DB	00H
	DB	0ffH
	DB	098H
	DB	06cH
	DB	00H
	DB	0ffH
	DB	098H
	DB	06cH
	DB	00H
	DB	0ffH
	DB	098H
	DB	06cH
	DB	00H
	DB	0ffH
	DB	098H
	DB	06cH
	DB	00H
	DB	0ffH
	DB	098H
	DB	06cH
	DB	00H
	DB	0ffH
	DB	098H
	DB	06cH
	DB	00H
	DB	0ffH
	DB	098H
	DB	06cH
	DB	00H
	DB	0ffH
	DB	098H
	DB	06cH
	DB	00H
	DB	0ffH
	DB	098H
	DB	06cH
	DB	00H
	DB	0ffH
	DB	098H
	DB	06cH
	DB	00H
	DB	0ffH
	DB	098H
	DB	06cH
	DB	00H
	DB	0ffH
	DB	090H
	DB	06cH
	DB	00H
	DB	0ffH
	DB	098H
	DB	06cH
	DB	00H
	DB	0ffH
	DB	098H
	DB	06cH
	DB	00H
	DB	0ffH
	DB	098H
	DB	06cH
	DB	00H
	DB	0ffH
	DB	098H
	DB	06cH
	DB	00H
	DB	0ffH
	DB	098H
	DB	06cH
	DB	00H
	DB	0ffH
	DB	098H
	DB	06cH
	DB	00H
	DB	0ffH
	DB	098H
	DB	06cH
	DB	00H
	DB	0ffH
	DB	098H
	DB	06cH
	DB	00H
	DB	0ffH
	DB	098H
	DB	06cH
	DB	00H
	DB	0ffH
	DB	098H
	DB	06cH
	DB	00H
	DB	0ffH
	DB	098H
	DB	06cH
	DB	00H
	DB	0ffH
	DB	090H
	DB	06cH
	DB	00H
	DB	0ffH
	DB	090H
	DB	068H
	DB	00H
	DB	0ffH
	DB	080H
	DB	060H
	DB	00H
	DB	0ffH
	DB	070H
	DB	058H
	DB	018H
	DB	0beH
	DB	0f8H
	DB	0fcH
	DB	0f8H
	DB	08H
	DB	00H
	DB	00H
	DB	00H
	DB	00H
	DB	00H
	DB	00H
	DB	00H
	DB	00H
	DB	00H
	DB	00H
	DB	00H
	DB	00H
	DB	00H
	DB	00H
	DB	00H
	DB	00H
	DB	00H
	DB	00H
	DB	00H
	DB	00H
	DB	00H
	DB	00H
	DB	00H
	DB	00H
	DB	00H
	DB	00H
	DB	00H
	DB	00H
	DB	00H
	DB	00H
	DB	00H
	DB	00H
	DB	00H
	DB	00H
	DB	00H
	DB	00H
	DB	00H
	DB	00H
	DB	00H
	DB	00H
	DB	00H
	DB	00H
	DB	00H
	DB	00H
	DB	00H
	DB	00H
	DB	00H
	DB	00H
	DB	00H
	DB	00H
	DB	00H
	DB	00H
	DB	098H
	DB	088H
	DB	058H
	DB	04dH
	DB	078H
	DB	058H
	DB	00H
	DB	0ffH
	DB	088H
	DB	064H
	DB	00H
	DB	0ffH
	DB	090H
	DB	06cH
	DB	00H
	DB	0ffH
	DB	090H
	DB	06cH
	DB	00H
	DB	0ffH
	DB	090H
	DB	06cH
	DB	00H
	DB	0ffH
	DB	090H
	DB	06cH
	DB	00H
	DB	0ffH
	DB	090H
	DB	06cH
	DB	00H
	DB	0ffH
	DB	098H
	DB	06cH
	DB	00H
	DB	0ffH
	DB	090H
	DB	06cH
	DB	00H
	DB	0ffH
	DB	090H
	DB	06cH
	DB	00H
	DB	0ffH
	DB	098H
	DB	06cH
	DB	00H
	DB	0ffH
	DB	090H
	DB	06cH
	DB	00H
	DB	0ffH
	DB	090H
	DB	06cH
	DB	00H
	DB	0ffH
	DB	098H
	DB	06cH
	DB	00H
	DB	0ffH
	DB	090H
	DB	06cH
	DB	00H
	DB	0ffH
	DB	090H
	DB	06cH
	DB	00H
	DB	0ffH
	DB	098H
	DB	06cH
	DB	00H
	DB	0ffH
	DB	090H
	DB	06cH
	DB	00H
	DB	0ffH
	DB	090H
	DB	06cH
	DB	00H
	DB	0ffH
	DB	090H
	DB	06cH
	DB	00H
	DB	0ffH
	DB	090H
	DB	06cH
	DB	00H
	DB	0ffH
	DB	090H
	DB	06cH
	DB	00H
	DB	0ffH
	DB	090H
	DB	06cH
	DB	00H
	DB	0ffH
	DB	090H
	DB	06cH
	DB	00H
	DB	0ffH
	DB	090H
	DB	06cH
	DB	00H
	DB	0ffH
	DB	090H
	DB	06cH
	DB	00H
	DB	0ffH
	DB	090H
	DB	06cH
	DB	00H
	DB	0ffH
	DB	090H
	DB	06cH
	DB	00H
	DB	0ffH
	DB	090H
	DB	06cH
	DB	00H
	DB	0ffH
	DB	098H
	DB	06cH
	DB	00H
	DB	0ffH
	DB	090H
	DB	06cH
	DB	00H
	DB	0ffH
	DB	090H
	DB	06cH
	DB	00H
	DB	0ffH
	DB	090H
	DB	06cH
	DB	00H
	DB	0ffH
	DB	090H
	DB	06cH
	DB	00H
	DB	0ffH
	DB	090H
	DB	06cH
	DB	00H
	DB	0ffH
	DB	090H
	DB	06cH
	DB	00H
	DB	0ffH
	DB	090H
	DB	06cH
	DB	00H
	DB	0ffH
	DB	090H
	DB	06cH
	DB	00H
	DB	0ffH
	DB	090H
	DB	06cH
	DB	00H
	DB	0ffH
	DB	090H
	DB	06cH
	DB	00H
	DB	0ffH
	DB	090H
	DB	06cH
	DB	00H
	DB	0ffH
	DB	090H
	DB	06cH
	DB	00H
	DB	0ffH
	DB	088H
	DB	064H
	DB	00H
	DB	0ffH
	DB	078H
	DB	058H
	DB	00H
	DB	0ffH
	DB	098H
	DB	088H
	DB	058H
	DB	04dH
	DB	00H
	DB	00H
	DB	00H
	DB	00H
	DB	00H
	DB	00H
	DB	00H
	DB	00H
	DB	00H
	DB	00H
	DB	00H
	DB	00H
	DB	00H
	DB	00H
	DB	00H
	DB	00H
	DB	00H
	DB	00H
	DB	00H
	DB	00H
	DB	00H
	DB	00H
	DB	00H
	DB	00H
	DB	00H
	DB	00H
	DB	00H
	DB	00H
	DB	00H
	DB	00H
	DB	00H
	DB	00H
	DB	00H
	DB	00H
	DB	00H
	DB	00H
	DB	00H
	DB	00H
	DB	00H
	DB	00H
	DB	00H
	DB	00H
	DB	00H
	DB	00H
	DB	00H
	DB	00H
	DB	00H
	DB	00H
	DB	00H
	DB	00H
	DB	00H
	DB	00H
	DB	00H
	DB	00H
	DB	00H
	DB	00H
	DB	0f8H
	DB	0fcH
	DB	0f8H
	DB	08H
	DB	078H
	DB	05cH
	DB	018H
	DB	0b6H
	DB	080H
	DB	060H
	DB	00H
	DB	0ffH
	DB	090H
	DB	068H
	DB	00H
	DB	0ffH
	DB	090H
	DB	06cH
	DB	00H
	DB	0ffH
	DB	098H
	DB	06cH
	DB	00H
	DB	0ffH
	DB	098H
	DB	06cH
	DB	00H
	DB	0ffH
	DB	090H
	DB	06cH
	DB	00H
	DB	0ffH
	DB	098H
	DB	06cH
	DB	00H
	DB	0ffH
	DB	098H
	DB	06cH
	DB	00H
	DB	0ffH
	DB	090H
	DB	06cH
	DB	00H
	DB	0ffH
	DB	098H
	DB	06cH
	DB	00H
	DB	0ffH
	DB	090H
	DB	06cH
	DB	00H
	DB	0ffH
	DB	098H
	DB	06cH
	DB	00H
	DB	0ffH
	DB	098H
	DB	06cH
	DB	00H
	DB	0ffH
	DB	090H
	DB	06cH
	DB	00H
	DB	0ffH
	DB	098H
	DB	06cH
	DB	00H
	DB	0ffH
	DB	098H
	DB	06cH
	DB	00H
	DB	0ffH
	DB	090H
	DB	06cH
	DB	00H
	DB	0ffH
	DB	098H
	DB	06cH
	DB	00H
	DB	0ffH
	DB	098H
	DB	06cH
	DB	00H
	DB	0ffH
	DB	090H
	DB	06cH
	DB	00H
	DB	0ffH
	DB	098H
	DB	06cH
	DB	00H
	DB	0ffH
	DB	098H
	DB	06cH
	DB	00H
	DB	0ffH
	DB	090H
	DB	06cH
	DB	00H
	DB	0ffH
	DB	098H
	DB	06cH
	DB	00H
	DB	0ffH
	DB	098H
	DB	06cH
	DB	00H
	DB	0ffH
	DB	090H
	DB	06cH
	DB	00H
	DB	0ffH
	DB	098H
	DB	06cH
	DB	00H
	DB	0ffH
	DB	098H
	DB	06cH
	DB	00H
	DB	0ffH
	DB	090H
	DB	06cH
	DB	00H
	DB	0ffH
	DB	098H
	DB	06cH
	DB	00H
	DB	0ffH
	DB	098H
	DB	06cH
	DB	00H
	DB	0ffH
	DB	090H
	DB	06cH
	DB	00H
	DB	0ffH
	DB	098H
	DB	06cH
	DB	00H
	DB	0ffH
	DB	098H
	DB	06cH
	DB	00H
	DB	0ffH
	DB	090H
	DB	06cH
	DB	00H
	DB	0ffH
	DB	098H
	DB	06cH
	DB	00H
	DB	0ffH
	DB	098H
	DB	06cH
	DB	00H
	DB	0ffH
	DB	090H
	DB	06cH
	DB	00H
	DB	0ffH
	DB	098H
	DB	06cH
	DB	00H
	DB	0ffH
	DB	090H
	DB	06cH
	DB	00H
	DB	0ffH
	DB	090H
	DB	068H
	DB	00H
	DB	0ffH
	DB	088H
	DB	060H
	DB	00H
	DB	0ffH
	DB	078H
	DB	05cH
	DB	018H
	DB	0b6H
	DB	0f8H
	DB	0fcH
	DB	0f8H
	DB	08H
	DB	00H
	DB	00H
	DB	00H
	DB	00H
	DB	00H
	DB	00H
	DB	00H
	DB	00H
	DB	00H
	DB	00H
	DB	00H
	DB	00H
	DB	00H
	DB	00H
	DB	00H
	DB	00H
	DB	00H
	DB	00H
	DB	00H
	DB	00H
	DB	00H
	DB	00H
	DB	00H
	DB	00H
	DB	00H
	DB	00H
	DB	00H
	DB	00H
	DB	00H
	DB	00H
	DB	00H
	DB	00H
	DB	00H
	DB	00H
	DB	00H
	DB	00H
	DB	00H
	DB	00H
	DB	00H
	DB	00H
	DB	00H
	DB	00H
	DB	00H
	DB	00H
	DB	00H
	DB	00H
	DB	00H
	DB	00H
	DB	00H
	DB	00H
	DB	00H
	DB	00H
	DB	00H
	DB	00H
	DB	00H
	DB	00H
	DB	00H
	DB	00H
	DB	00H
	DB	00H
	DB	0b8H
	DB	0a8H
	DB	080H
	DB	034H
	DB	070H
	DB	054H
	DB	08H
	DB	0f3H
	DB	088H
	DB	064H
	DB	00H
	DB	0ffH
	DB	090H
	DB	06cH
	DB	00H
	DB	0ffH
	DB	090H
	DB	06cH
	DB	00H
	DB	0ffH
	DB	098H
	DB	06cH
	DB	00H
	DB	0ffH
	DB	090H
	DB	06cH
	DB	00H
	DB	0ffH
	DB	090H
	DB	06cH
	DB	00H
	DB	0ffH
	DB	098H
	DB	06cH
	DB	00H
	DB	0ffH
	DB	090H
	DB	06cH
	DB	00H
	DB	0ffH
	DB	098H
	DB	06cH
	DB	00H
	DB	0ffH
	DB	090H
	DB	06cH
	DB	00H
	DB	0ffH
	DB	090H
	DB	06cH
	DB	00H
	DB	0ffH
	DB	098H
	DB	06cH
	DB	00H
	DB	0ffH
	DB	090H
	DB	06cH
	DB	00H
	DB	0ffH
	DB	090H
	DB	06cH
	DB	00H
	DB	0ffH
	DB	098H
	DB	06cH
	DB	00H
	DB	0ffH
	DB	090H
	DB	06cH
	DB	00H
	DB	0ffH
	DB	098H
	DB	06cH
	DB	00H
	DB	0ffH
	DB	090H
	DB	06cH
	DB	00H
	DB	0ffH
	DB	098H
	DB	06cH
	DB	00H
	DB	0ffH
	DB	098H
	DB	06cH
	DB	00H
	DB	0ffH
	DB	090H
	DB	06cH
	DB	00H
	DB	0ffH
	DB	098H
	DB	06cH
	DB	00H
	DB	0ffH
	DB	098H
	DB	06cH
	DB	00H
	DB	0ffH
	DB	090H
	DB	06cH
	DB	00H
	DB	0ffH
	DB	098H
	DB	06cH
	DB	00H
	DB	0ffH
	DB	090H
	DB	06cH
	DB	00H
	DB	0ffH
	DB	098H
	DB	06cH
	DB	00H
	DB	0ffH
	DB	090H
	DB	06cH
	DB	00H
	DB	0ffH
	DB	090H
	DB	06cH
	DB	00H
	DB	0ffH
	DB	098H
	DB	06cH
	DB	00H
	DB	0ffH
	DB	090H
	DB	06cH
	DB	00H
	DB	0ffH
	DB	098H
	DB	06cH
	DB	00H
	DB	0ffH
	DB	098H
	DB	06cH
	DB	00H
	DB	0ffH
	DB	090H
	DB	06cH
	DB	00H
	DB	0ffH
	DB	098H
	DB	06cH
	DB	00H
	DB	0ffH
	DB	098H
	DB	06cH
	DB	00H
	DB	0ffH
	DB	090H
	DB	06cH
	DB	00H
	DB	0ffH
	DB	098H
	DB	06cH
	DB	00H
	DB	0ffH
	DB	090H
	DB	06cH
	DB	00H
	DB	0ffH
	DB	088H
	DB	064H
	DB	00H
	DB	0ffH
	DB	070H
	DB	054H
	DB	08H
	DB	0f3H
	DB	0b8H
	DB	0a8H
	DB	080H
	DB	034H
	DB	00H
	DB	00H
	DB	00H
	DB	00H
	DB	00H
	DB	00H
	DB	00H
	DB	00H
	DB	00H
	DB	00H
	DB	00H
	DB	00H
	DB	00H
	DB	00H
	DB	00H
	DB	00H
	DB	00H
	DB	00H
	DB	00H
	DB	00H
	DB	00H
	DB	00H
	DB	00H
	DB	00H
	DB	00H
	DB	00H
	DB	00H
	DB	00H
	DB	00H
	DB	00H
	DB	00H
	DB	00H
	DB	00H
	DB	00H
	DB	00H
	DB	00H
	DB	00H
	DB	00H
	DB	00H
	DB	00H
	DB	00H
	DB	00H
	DB	00H
	DB	00H
	DB	00H
	DB	00H
	DB	00H
	DB	00H
	DB	00H
	DB	00H
	DB	00H
	DB	00H
	DB	00H
	DB	00H
	DB	00H
	DB	00H
	DB	00H
	DB	00H
	DB	00H
	DB	00H
	DB	00H
	DB	00H
	DB	00H
	DB	00H
	DB	0f8H
	DB	0fcH
	DB	0f8H
	DB	04H
	DB	090H
	DB	078H
	DB	040H
	DB	075H
	DB	078H
	DB	05cH
	DB	00H
	DB	0ffH
	DB	090H
	DB	068H
	DB	00H
	DB	0ffH
	DB	090H
	DB	06cH
	DB	00H
	DB	0ffH
	DB	098H
	DB	06cH
	DB	00H
	DB	0ffH
	DB	090H
	DB	070H
	DB	00H
	DB	0ffH
	DB	098H
	DB	06cH
	DB	00H
	DB	0ffH
	DB	090H
	DB	070H
	DB	00H
	DB	0ffH
	DB	098H
	DB	06cH
	DB	00H
	DB	0ffH
	DB	098H
	DB	070H
	DB	00H
	DB	0ffH
	DB	090H
	DB	06cH
	DB	00H
	DB	0ffH
	DB	098H
	DB	070H
	DB	00H
	DB	0ffH
	DB	098H
	DB	06cH
	DB	00H
	DB	0ffH
	DB	090H
	DB	070H
	DB	00H
	DB	0ffH
	DB	098H
	DB	06cH
	DB	00H
	DB	0ffH
	DB	090H
	DB	070H
	DB	00H
	DB	0ffH
	DB	098H
	DB	06cH
	DB	00H
	DB	0ffH
	DB	090H
	DB	070H
	DB	00H
	DB	0ffH
	DB	090H
	DB	06cH
	DB	00H
	DB	0ffH
	DB	090H
	DB	070H
	DB	00H
	DB	0ffH
	DB	090H
	DB	06cH
	DB	00H
	DB	0ffH
	DB	090H
	DB	070H
	DB	00H
	DB	0ffH
	DB	098H
	DB	06cH
	DB	00H
	DB	0ffH
	DB	090H
	DB	06cH
	DB	00H
	DB	0ffH
	DB	090H
	DB	070H
	DB	00H
	DB	0ffH
	DB	098H
	DB	06cH
	DB	00H
	DB	0ffH
	DB	090H
	DB	06cH
	DB	00H
	DB	0ffH
	DB	090H
	DB	070H
	DB	00H
	DB	0ffH
	DB	098H
	DB	06cH
	DB	00H
	DB	0ffH
	DB	098H
	DB	06cH
	DB	00H
	DB	0ffH
	DB	090H
	DB	070H
	DB	00H
	DB	0ffH
	DB	090H
	DB	06cH
	DB	00H
	DB	0ffH
	DB	090H
	DB	06cH
	DB	00H
	DB	0ffH
	DB	090H
	DB	070H
	DB	00H
	DB	0ffH
	DB	090H
	DB	06cH
	DB	00H
	DB	0ffH
	DB	090H
	DB	06cH
	DB	00H
	DB	0ffH
	DB	090H
	DB	070H
	DB	00H
	DB	0ffH
	DB	098H
	DB	06cH
	DB	00H
	DB	0ffH
	DB	090H
	DB	06cH
	DB	00H
	DB	0ffH
	DB	090H
	DB	068H
	DB	00H
	DB	0ffH
	DB	078H
	DB	05cH
	DB	00H
	DB	0ffH
	DB	090H
	DB	078H
	DB	040H
	DB	075H
	DB	0f8H
	DB	0fcH
	DB	0f8H
	DB	04H
	DB	00H
	DB	00H
	DB	00H
	DB	00H
	DB	00H
	DB	00H
	DB	00H
	DB	00H
	DB	00H
	DB	00H
	DB	00H
	DB	00H
	DB	00H
	DB	00H
	DB	00H
	DB	00H
	DB	00H
	DB	00H
	DB	00H
	DB	00H
	DB	00H
	DB	00H
	DB	00H
	DB	00H
	DB	00H
	DB	00H
	DB	00H
	DB	00H
	DB	00H
	DB	00H
	DB	00H
	DB	00H
	DB	00H
	DB	00H
	DB	00H
	DB	00H
	DB	00H
	DB	00H
	DB	00H
	DB	00H
	DB	00H
	DB	00H
	DB	00H
	DB	00H
	DB	00H
	DB	00H
	DB	00H
	DB	00H
	DB	00H
	DB	00H
	DB	00H
	DB	00H
	DB	00H
	DB	00H
	DB	00H
	DB	00H
	DB	00H
	DB	00H
	DB	00H
	DB	00H
	DB	00H
	DB	00H
	DB	00H
	DB	00H
	DB	00H
	DB	00H
	DB	00H
	DB	00H
	DB	0f8H
	DB	0fcH
	DB	0f8H
	DB	010H
	DB	078H
	DB	060H
	DB	020H
	DB	0aaH
	DB	080H
	DB	060H
	DB	00H
	DB	0ffH
	DB	090H
	DB	068H
	DB	00H
	DB	0ffH
	DB	090H
	DB	06cH
	DB	00H
	DB	0ffH
	DB	098H
	DB	070H
	DB	00H
	DB	0ffH
	DB	098H
	DB	070H
	DB	00H
	DB	0ffH
	DB	098H
	DB	070H
	DB	00H
	DB	0ffH
	DB	090H
	DB	070H
	DB	00H
	DB	0ffH
	DB	098H
	DB	06cH
	DB	00H
	DB	0ffH
	DB	098H
	DB	070H
	DB	00H
	DB	0ffH
	DB	098H
	DB	070H
	DB	00H
	DB	0ffH
	DB	090H
	DB	070H
	DB	00H
	DB	0ffH
	DB	098H
	DB	06cH
	DB	00H
	DB	0ffH
	DB	098H
	DB	070H
	DB	00H
	DB	0ffH
	DB	098H
	DB	070H
	DB	00H
	DB	0ffH
	DB	098H
	DB	070H
	DB	00H
	DB	0ffH
	DB	098H
	DB	06cH
	DB	00H
	DB	0ffH
	DB	098H
	DB	070H
	DB	00H
	DB	0ffH
	DB	098H
	DB	070H
	DB	00H
	DB	0ffH
	DB	098H
	DB	070H
	DB	00H
	DB	0ffH
	DB	098H
	DB	070H
	DB	00H
	DB	0ffH
	DB	098H
	DB	070H
	DB	00H
	DB	0ffH
	DB	098H
	DB	070H
	DB	00H
	DB	0ffH
	DB	098H
	DB	070H
	DB	00H
	DB	0ffH
	DB	098H
	DB	070H
	DB	00H
	DB	0ffH
	DB	098H
	DB	070H
	DB	00H
	DB	0ffH
	DB	098H
	DB	070H
	DB	00H
	DB	0ffH
	DB	098H
	DB	070H
	DB	00H
	DB	0ffH
	DB	098H
	DB	070H
	DB	00H
	DB	0ffH
	DB	098H
	DB	070H
	DB	00H
	DB	0ffH
	DB	098H
	DB	070H
	DB	00H
	DB	0ffH
	DB	098H
	DB	070H
	DB	00H
	DB	0ffH
	DB	098H
	DB	070H
	DB	00H
	DB	0ffH
	DB	098H
	DB	070H
	DB	00H
	DB	0ffH
	DB	098H
	DB	070H
	DB	00H
	DB	0ffH
	DB	098H
	DB	070H
	DB	00H
	DB	0ffH
	DB	090H
	DB	06cH
	DB	00H
	DB	0ffH
	DB	090H
	DB	068H
	DB	00H
	DB	0ffH
	DB	080H
	DB	060H
	DB	00H
	DB	0ffH
	DB	078H
	DB	060H
	DB	020H
	DB	0aaH
	DB	0f8H
	DB	0fcH
	DB	0f8H
	DB	010H
	DB	00H
	DB	00H
	DB	00H
	DB	00H
	DB	00H
	DB	00H
	DB	00H
	DB	00H
	DB	00H
	DB	00H
	DB	00H
	DB	00H
	DB	00H
	DB	00H
	DB	00H
	DB	00H
	DB	00H
	DB	00H
	DB	00H
	DB	00H
	DB	00H
	DB	00H
	DB	00H
	DB	00H
	DB	00H
	DB	00H
	DB	00H
	DB	00H
	DB	00H
	DB	00H
	DB	00H
	DB	00H
	DB	00H
	DB	00H
	DB	00H
	DB	00H
	DB	00H
	DB	00H
	DB	00H
	DB	00H
	DB	00H
	DB	00H
	DB	00H
	DB	00H
	DB	00H
	DB	00H
	DB	00H
	DB	00H
	DB	00H
	DB	00H
	DB	00H
	DB	00H
	DB	00H
	DB	00H
	DB	00H
	DB	00H
	DB	00H
	DB	00H
	DB	00H
	DB	00H
	DB	00H
	DB	00H
	DB	00H
	DB	00H
	DB	00H
	DB	00H
	DB	00H
	DB	00H
	DB	00H
	DB	00H
	DB	00H
	DB	00H
	DB	00H
	DB	00H
	DB	00H
	DB	00H
	DB	0e0H
	DB	0dcH
	DB	0d0H
	DB	020H
	DB	078H
	DB	05cH
	DB	010H
	DB	0c7H
	DB	088H
	DB	064H
	DB	00H
	DB	0ffH
	DB	090H
	DB	068H
	DB	00H
	DB	0ffH
	DB	090H
	DB	06cH
	DB	00H
	DB	0ffH
	DB	098H
	DB	06cH
	DB	00H
	DB	0ffH
	DB	090H
	DB	06cH
	DB	00H
	DB	0ffH
	DB	098H
	DB	070H
	DB	00H
	DB	0ffH
	DB	090H
	DB	06cH
	DB	00H
	DB	0ffH
	DB	098H
	DB	06cH
	DB	00H
	DB	0ffH
	DB	090H
	DB	070H
	DB	00H
	DB	0ffH
	DB	098H
	DB	06cH
	DB	00H
	DB	0ffH
	DB	090H
	DB	06cH
	DB	00H
	DB	0ffH
	DB	090H
	DB	070H
	DB	00H
	DB	0ffH
	DB	098H
	DB	06cH
	DB	00H
	DB	0ffH
	DB	090H
	DB	06cH
	DB	00H
	DB	0ffH
	DB	098H
	DB	070H
	DB	00H
	DB	0ffH
	DB	098H
	DB	06cH
	DB	00H
	DB	0ffH
	DB	090H
	DB	06cH
	DB	00H
	DB	0ffH
	DB	098H
	DB	06cH
	DB	00H
	DB	0ffH
	DB	090H
	DB	06cH
	DB	00H
	DB	0ffH
	DB	090H
	DB	06cH
	DB	00H
	DB	0ffH
	DB	098H
	DB	06cH
	DB	00H
	DB	0ffH
	DB	090H
	DB	06cH
	DB	00H
	DB	0ffH
	DB	090H
	DB	06cH
	DB	00H
	DB	0ffH
	DB	098H
	DB	06cH
	DB	00H
	DB	0ffH
	DB	090H
	DB	06cH
	DB	00H
	DB	0ffH
	DB	090H
	DB	06cH
	DB	00H
	DB	0ffH
	DB	090H
	DB	06cH
	DB	00H
	DB	0ffH
	DB	098H
	DB	06cH
	DB	00H
	DB	0ffH
	DB	098H
	DB	06cH
	DB	00H
	DB	0ffH
	DB	090H
	DB	06cH
	DB	00H
	DB	0ffH
	DB	098H
	DB	06cH
	DB	00H
	DB	0ffH
	DB	098H
	DB	06cH
	DB	00H
	DB	0ffH
	DB	098H
	DB	06cH
	DB	00H
	DB	0ffH
	DB	090H
	DB	06cH
	DB	00H
	DB	0ffH
	DB	090H
	DB	06cH
	DB	00H
	DB	0ffH
	DB	088H
	DB	064H
	DB	00H
	DB	0ffH
	DB	078H
	DB	058H
	DB	010H
	DB	0cbH
	DB	0e0H
	DB	0dcH
	DB	0d0H
	DB	020H
	DB	00H
	DB	00H
	DB	00H
	DB	00H
	DB	00H
	DB	00H
	DB	00H
	DB	00H
	DB	00H
	DB	00H
	DB	00H
	DB	00H
	DB	00H
	DB	00H
	DB	00H
	DB	00H
	DB	00H
	DB	00H
	DB	00H
	DB	00H
	DB	00H
	DB	00H
	DB	00H
	DB	00H
	DB	00H
	DB	00H
	DB	00H
	DB	00H
	DB	00H
	DB	00H
	DB	00H
	DB	00H
	DB	00H
	DB	00H
	DB	00H
	DB	00H
	DB	00H
	DB	00H
	DB	00H
	DB	00H
	DB	00H
	DB	00H
	DB	00H
	DB	00H
	DB	00H
	DB	00H
	DB	00H
	DB	00H
	DB	00H
	DB	00H
	DB	00H
	DB	00H
	DB	00H
	DB	00H
	DB	00H
	DB	00H
	DB	00H
	DB	00H
	DB	00H
	DB	00H
	DB	00H
	DB	00H
	DB	00H
	DB	00H
	DB	00H
	DB	00H
	DB	00H
	DB	00H
	DB	00H
	DB	00H
	DB	00H
	DB	00H
	DB	00H
	DB	00H
	DB	00H
	DB	00H
	DB	00H
	DB	00H
	DB	00H
	DB	00H
	DB	0f8H
	DB	0fcH
	DB	0f8H
	DB	00H
	DB	0d8H
	DB	0d4H
	DB	0c0H
	DB	02cH
	DB	078H
	DB	05cH
	DB	010H
	DB	0cfH
	DB	080H
	DB	060H
	DB	00H
	DB	0ffH
	DB	090H
	DB	068H
	DB	00H
	DB	0ffH
	DB	090H
	DB	06cH
	DB	00H
	DB	0ffH
	DB	090H
	DB	070H
	DB	00H
	DB	0ffH
	DB	098H
	DB	06cH
	DB	00H
	DB	0ffH
	DB	098H
	DB	070H
	DB	00H
	DB	0ffH
	DB	090H
	DB	06cH
	DB	00H
	DB	0ffH
	DB	098H
	DB	070H
	DB	00H
	DB	0ffH
	DB	098H
	DB	06cH
	DB	00H
	DB	0ffH
	DB	098H
	DB	070H
	DB	00H
	DB	0ffH
	DB	098H
	DB	070H
	DB	00H
	DB	0ffH
	DB	090H
	DB	06cH
	DB	00H
	DB	0ffH
	DB	090H
	DB	06cH
	DB	00H
	DB	0ffH
	DB	098H
	DB	070H
	DB	00H
	DB	0ffH
	DB	090H
	DB	070H
	DB	00H
	DB	0ffH
	DB	098H
	DB	06cH
	DB	00H
	DB	0ffH
	DB	098H
	DB	070H
	DB	00H
	DB	0ffH
	DB	090H
	DB	070H
	DB	00H
	DB	0ffH
	DB	098H
	DB	06cH
	DB	00H
	DB	0ffH
	DB	098H
	DB	070H
	DB	00H
	DB	0ffH
	DB	090H
	DB	070H
	DB	00H
	DB	0ffH
	DB	098H
	DB	06cH
	DB	00H
	DB	0ffH
	DB	098H
	DB	070H
	DB	00H
	DB	0ffH
	DB	098H
	DB	070H
	DB	00H
	DB	0ffH
	DB	090H
	DB	06cH
	DB	00H
	DB	0ffH
	DB	098H
	DB	070H
	DB	00H
	DB	0ffH
	DB	098H
	DB	070H
	DB	00H
	DB	0ffH
	DB	090H
	DB	06cH
	DB	00H
	DB	0ffH
	DB	090H
	DB	070H
	DB	00H
	DB	0ffH
	DB	098H
	DB	070H
	DB	00H
	DB	0ffH
	DB	090H
	DB	06cH
	DB	00H
	DB	0ffH
	DB	090H
	DB	06cH
	DB	00H
	DB	0ffH
	DB	090H
	DB	068H
	DB	00H
	DB	0ffH
	DB	080H
	DB	060H
	DB	00H
	DB	0ffH
	DB	078H
	DB	05cH
	DB	010H
	DB	0cfH
	DB	0d8H
	DB	0d8H
	DB	0c8H
	DB	02cH
	DB	0f8H
	DB	0fcH
	DB	0f8H
	DB	00H
	DB	00H
	DB	00H
	DB	00H
	DB	00H
	DB	00H
	DB	00H
	DB	00H
	DB	00H
	DB	00H
	DB	00H
	DB	00H
	DB	00H
	DB	00H
	DB	00H
	DB	00H
	DB	00H
	DB	00H
	DB	00H
	DB	00H
	DB	00H
	DB	00H
	DB	00H
	DB	00H
	DB	00H
	DB	00H
	DB	00H
	DB	00H
	DB	00H
	DB	00H
	DB	00H
	DB	00H
	DB	00H
	DB	00H
	DB	00H
	DB	00H
	DB	00H
	DB	00H
	DB	00H
	DB	00H
	DB	00H
	DB	00H
	DB	00H
	DB	00H
	DB	00H
	DB	00H
	DB	00H
	DB	00H
	DB	00H
	DB	00H
	DB	00H
	DB	00H
	DB	00H
	DB	00H
	DB	00H
	DB	00H
	DB	00H
	DB	00H
	DB	00H
	DB	00H
	DB	00H
	DB	00H
	DB	00H
	DB	00H
	DB	00H
	DB	00H
	DB	00H
	DB	00H
	DB	00H
	DB	00H
	DB	00H
	DB	00H
	DB	00H
	DB	00H
	DB	00H
	DB	00H
	DB	00H
	DB	00H
	DB	00H
	DB	00H
	DB	00H
	DB	00H
	DB	00H
	DB	00H
	DB	00H
	DB	0f8H
	DB	0fcH
	DB	0f8H
	DB	04H
	DB	0d8H
	DB	0d0H
	DB	0c0H
	DB	030H
	DB	078H
	DB	05cH
	DB	010H
	DB	0c7H
	DB	080H
	DB	060H
	DB	00H
	DB	0ffH
	DB	090H
	DB	068H
	DB	00H
	DB	0ffH
	DB	090H
	DB	06cH
	DB	00H
	DB	0ffH
	DB	098H
	DB	070H
	DB	00H
	DB	0ffH
	DB	098H
	DB	06cH
	DB	00H
	DB	0ffH
	DB	098H
	DB	070H
	DB	00H
	DB	0ffH
	DB	098H
	DB	06cH
	DB	00H
	DB	0ffH
	DB	090H
	DB	070H
	DB	00H
	DB	0ffH
	DB	098H
	DB	06cH
	DB	00H
	DB	0ffH
	DB	098H
	DB	070H
	DB	00H
	DB	0ffH
	DB	098H
	DB	070H
	DB	00H
	DB	0ffH
	DB	098H
	DB	06cH
	DB	00H
	DB	0ffH
	DB	098H
	DB	070H
	DB	00H
	DB	0ffH
	DB	098H
	DB	06cH
	DB	00H
	DB	0ffH
	DB	098H
	DB	070H
	DB	00H
	DB	0ffH
	DB	098H
	DB	070H
	DB	00H
	DB	0ffH
	DB	098H
	DB	06cH
	DB	00H
	DB	0ffH
	DB	098H
	DB	070H
	DB	00H
	DB	0ffH
	DB	098H
	DB	070H
	DB	00H
	DB	0ffH
	DB	098H
	DB	06cH
	DB	00H
	DB	0ffH
	DB	098H
	DB	070H
	DB	00H
	DB	0ffH
	DB	098H
	DB	070H
	DB	00H
	DB	0ffH
	DB	098H
	DB	06cH
	DB	00H
	DB	0ffH
	DB	098H
	DB	070H
	DB	00H
	DB	0ffH
	DB	098H
	DB	070H
	DB	00H
	DB	0ffH
	DB	098H
	DB	06cH
	DB	00H
	DB	0ffH
	DB	098H
	DB	070H
	DB	00H
	DB	0ffH
	DB	098H
	DB	070H
	DB	00H
	DB	0ffH
	DB	098H
	DB	070H
	DB	00H
	DB	0ffH
	DB	090H
	DB	06cH
	DB	00H
	DB	0ffH
	DB	090H
	DB	068H
	DB	00H
	DB	0ffH
	DB	080H
	DB	060H
	DB	00H
	DB	0ffH
	DB	078H
	DB	05cH
	DB	010H
	DB	0c7H
	DB	0d8H
	DB	0d0H
	DB	0c0H
	DB	02cH
	DB	0f8H
	DB	0fcH
	DB	0f8H
	DB	00H
	DB	00H
	DB	00H
	DB	00H
	DB	00H
	DB	00H
	DB	00H
	DB	00H
	DB	00H
	DB	00H
	DB	00H
	DB	00H
	DB	00H
	DB	00H
	DB	00H
	DB	00H
	DB	00H
	DB	00H
	DB	00H
	DB	00H
	DB	00H
	DB	00H
	DB	00H
	DB	00H
	DB	00H
	DB	00H
	DB	00H
	DB	00H
	DB	00H
	DB	00H
	DB	00H
	DB	00H
	DB	00H
	DB	00H
	DB	00H
	DB	00H
	DB	00H
	DB	00H
	DB	00H
	DB	00H
	DB	00H
	DB	00H
	DB	00H
	DB	00H
	DB	00H
	DB	00H
	DB	00H
	DB	00H
	DB	00H
	DB	00H
	DB	00H
	DB	00H
	DB	00H
	DB	00H
	DB	00H
	DB	00H
	DB	00H
	DB	00H
	DB	00H
	DB	00H
	DB	00H
	DB	00H
	DB	00H
	DB	00H
	DB	00H
	DB	00H
	DB	00H
	DB	00H
	DB	00H
	DB	00H
	DB	00H
	DB	00H
	DB	00H
	DB	00H
	DB	00H
	DB	00H
	DB	00H
	DB	00H
	DB	00H
	DB	00H
	DB	00H
	DB	00H
	DB	00H
	DB	00H
	DB	00H
	DB	00H
	DB	00H
	DB	00H
	DB	00H
	DB	00H
	DB	00H
	DB	00H
	DB	00H
	DB	0f8H
	DB	0fcH
	DB	0f8H
	DB	00H
	DB	0e8H
	DB	0e4H
	DB	0d8H
	DB	024H
	DB	080H
	DB	064H
	DB	020H
	DB	0aaH
	DB	078H
	DB	05cH
	DB	00H
	DB	0ffH
	DB	090H
	DB	068H
	DB	00H
	DB	0ffH
	DB	090H
	DB	06cH
	DB	00H
	DB	0ffH
	DB	090H
	DB	06cH
	DB	00H
	DB	0ffH
	DB	098H
	DB	070H
	DB	00H
	DB	0ffH
	DB	098H
	DB	070H
	DB	00H
	DB	0ffH
	DB	098H
	DB	070H
	DB	00H
	DB	0ffH
	DB	090H
	DB	070H
	DB	00H
	DB	0ffH
	DB	098H
	DB	070H
	DB	00H
	DB	0ffH
	DB	098H
	DB	070H
	DB	00H
	DB	0ffH
	DB	098H
	DB	070H
	DB	00H
	DB	0ffH
	DB	090H
	DB	070H
	DB	00H
	DB	0ffH
	DB	098H
	DB	070H
	DB	00H
	DB	0ffH
	DB	098H
	DB	070H
	DB	00H
	DB	0ffH
	DB	090H
	DB	070H
	DB	00H
	DB	0ffH
	DB	098H
	DB	070H
	DB	00H
	DB	0ffH
	DB	098H
	DB	070H
	DB	00H
	DB	0ffH
	DB	090H
	DB	070H
	DB	00H
	DB	0ffH
	DB	098H
	DB	070H
	DB	00H
	DB	0ffH
	DB	090H
	DB	070H
	DB	00H
	DB	0ffH
	DB	098H
	DB	070H
	DB	00H
	DB	0ffH
	DB	090H
	DB	070H
	DB	00H
	DB	0ffH
	DB	098H
	DB	070H
	DB	00H
	DB	0ffH
	DB	098H
	DB	070H
	DB	00H
	DB	0ffH
	DB	090H
	DB	070H
	DB	00H
	DB	0ffH
	DB	098H
	DB	06cH
	DB	00H
	DB	0ffH
	DB	098H
	DB	06cH
	DB	00H
	DB	0ffH
	DB	090H
	DB	06cH
	DB	00H
	DB	0ffH
	DB	088H
	DB	068H
	DB	00H
	DB	0ffH
	DB	078H
	DB	05cH
	DB	00H
	DB	0ffH
	DB	080H
	DB	064H
	DB	020H
	DB	0aaH
	DB	0e8H
	DB	0e4H
	DB	0d8H
	DB	028H
	DB	0f8H
	DB	0fcH
	DB	0f8H
	DB	04H
	DB	00H
	DB	00H
	DB	00H
	DB	00H
	DB	00H
	DB	00H
	DB	00H
	DB	00H
	DB	00H
	DB	00H
	DB	00H
	DB	00H
	DB	00H
	DB	00H
	DB	00H
	DB	00H
	DB	00H
	DB	00H
	DB	00H
	DB	00H
	DB	00H
	DB	00H
	DB	00H
	DB	00H
	DB	00H
	DB	00H
	DB	00H
	DB	00H
	DB	00H
	DB	00H
	DB	00H
	DB	00H
	DB	00H
	DB	00H
	DB	00H
	DB	00H
	DB	00H
	DB	00H
	DB	00H
	DB	00H
	DB	00H
	DB	00H
	DB	00H
	DB	00H
	DB	00H
	DB	00H
	DB	00H
	DB	00H
	DB	00H
	DB	00H
	DB	00H
	DB	00H
	DB	00H
	DB	00H
	DB	00H
	DB	00H
	DB	00H
	DB	00H
	DB	00H
	DB	00H
	DB	00H
	DB	00H
	DB	00H
	DB	00H
	DB	00H
	DB	00H
	DB	00H
	DB	00H
	DB	00H
	DB	00H
	DB	00H
	DB	00H
	DB	00H
	DB	00H
	DB	00H
	DB	00H
	DB	00H
	DB	00H
	DB	00H
	DB	00H
	DB	00H
	DB	00H
	DB	00H
	DB	00H
	DB	00H
	DB	00H
	DB	00H
	DB	00H
	DB	00H
	DB	00H
	DB	00H
	DB	00H
	DB	00H
	DB	00H
	DB	00H
	DB	00H
	DB	00H
	DB	00H
	DB	00H
	DB	00H
	DB	0f8H
	DB	0fcH
	DB	0f8H
	DB	00H
	DB	0f8H
	DB	0fcH
	DB	0f8H
	DB	01cH
	DB	090H
	DB	07cH
	DB	048H
	DB	075H
	DB	078H
	DB	058H
	DB	00H
	DB	0f3H
	DB	080H
	DB	060H
	DB	00H
	DB	0ffH
	DB	090H
	DB	068H
	DB	00H
	DB	0ffH
	DB	090H
	DB	06cH
	DB	00H
	DB	0ffH
	DB	090H
	DB	070H
	DB	00H
	DB	0ffH
	DB	098H
	DB	070H
	DB	00H
	DB	0ffH
	DB	098H
	DB	06cH
	DB	00H
	DB	0ffH
	DB	090H
	DB	070H
	DB	00H
	DB	0ffH
	DB	098H
	DB	06cH
	DB	00H
	DB	0ffH
	DB	098H
	DB	070H
	DB	00H
	DB	0ffH
	DB	090H
	DB	070H
	DB	00H
	DB	0ffH
	DB	098H
	DB	06cH
	DB	00H
	DB	0ffH
	DB	098H
	DB	070H
	DB	00H
	DB	0ffH
	DB	090H
	DB	06cH
	DB	00H
	DB	0ffH
	DB	098H
	DB	070H
	DB	00H
	DB	0ffH
	DB	098H
	DB	06cH
	DB	00H
	DB	0ffH
	DB	098H
	DB	06cH
	DB	00H
	DB	0ffH
	DB	090H
	DB	070H
	DB	00H
	DB	0ffH
	DB	098H
	DB	06cH
	DB	00H
	DB	0ffH
	DB	098H
	DB	070H
	DB	00H
	DB	0ffH
	DB	098H
	DB	06cH
	DB	00H
	DB	0ffH
	DB	090H
	DB	070H
	DB	00H
	DB	0ffH
	DB	098H
	DB	070H
	DB	00H
	DB	0ffH
	DB	090H
	DB	06cH
	DB	00H
	DB	0ffH
	DB	090H
	DB	06cH
	DB	00H
	DB	0ffH
	DB	090H
	DB	068H
	DB	00H
	DB	0ffH
	DB	080H
	DB	060H
	DB	00H
	DB	0ffH
	DB	078H
	DB	058H
	DB	08H
	DB	0f3H
	DB	090H
	DB	07cH
	DB	040H
	DB	075H
	DB	0f8H
	DB	0fcH
	DB	0f8H
	DB	01cH
	DB	0f8H
	DB	0fcH
	DB	0f8H
	DB	00H
	DB	00H
	DB	00H
	DB	00H
	DB	00H
	DB	00H
	DB	00H
	DB	00H
	DB	00H
	DB	00H
	DB	00H
	DB	00H
	DB	00H
	DB	00H
	DB	00H
	DB	00H
	DB	00H
	DB	00H
	DB	00H
	DB	00H
	DB	00H
	DB	00H
	DB	00H
	DB	00H
	DB	00H
	DB	00H
	DB	00H
	DB	00H
	DB	00H
	DB	00H
	DB	00H
	DB	00H
	DB	00H
	DB	00H
	DB	00H
	DB	00H
	DB	00H
	DB	00H
	DB	00H
	DB	00H
	DB	00H
	DB	00H
	DB	00H
	DB	00H
	DB	00H
	DB	00H
	DB	00H
	DB	00H
	DB	00H
	DB	00H
	DB	00H
	DB	00H
	DB	00H
	DB	00H
	DB	00H
	DB	00H
	DB	00H
	DB	00H
	DB	00H
	DB	00H
	DB	00H
	DB	00H
	DB	00H
	DB	00H
	DB	00H
	DB	00H
	DB	00H
	DB	00H
	DB	00H
	DB	00H
	DB	00H
	DB	00H
	DB	00H
	DB	00H
	DB	00H
	DB	00H
	DB	00H
	DB	00H
	DB	00H
	DB	00H
	DB	00H
	DB	00H
	DB	00H
	DB	00H
	DB	00H
	DB	00H
	DB	00H
	DB	00H
	DB	00H
	DB	00H
	DB	00H
	DB	00H
	DB	00H
	DB	00H
	DB	00H
	DB	00H
	DB	00H
	DB	00H
	DB	00H
	DB	00H
	DB	00H
	DB	00H
	DB	00H
	DB	00H
	DB	00H
	DB	00H
	DB	00H
	DB	00H
	DB	00H
	DB	00H
	DB	00H
	DB	00H
	DB	00H
	DB	0f8H
	DB	0fcH
	DB	0f8H
	DB	010H
	DB	0c8H
	DB	0c0H
	DB	0a0H
	DB	03cH
	DB	080H
	DB	064H
	DB	018H
	DB	0b2H
	DB	078H
	DB	058H
	DB	00H
	DB	0ffH
	DB	088H
	DB	064H
	DB	00H
	DB	0ffH
	DB	090H
	DB	068H
	DB	00H
	DB	0ffH
	DB	090H
	DB	06cH
	DB	00H
	DB	0ffH
	DB	098H
	DB	06cH
	DB	00H
	DB	0ffH
	DB	098H
	DB	070H
	DB	00H
	DB	0ffH
	DB	098H
	DB	070H
	DB	00H
	DB	0ffH
	DB	098H
	DB	06cH
	DB	00H
	DB	0ffH
	DB	098H
	DB	070H
	DB	00H
	DB	0ffH
	DB	098H
	DB	070H
	DB	00H
	DB	0ffH
	DB	098H
	DB	06cH
	DB	00H
	DB	0ffH
	DB	098H
	DB	070H
	DB	00H
	DB	0ffH
	DB	098H
	DB	070H
	DB	00H
	DB	0ffH
	DB	098H
	DB	070H
	DB	00H
	DB	0ffH
	DB	098H
	DB	070H
	DB	00H
	DB	0ffH
	DB	098H
	DB	070H
	DB	00H
	DB	0ffH
	DB	098H
	DB	070H
	DB	00H
	DB	0ffH
	DB	098H
	DB	06cH
	DB	00H
	DB	0ffH
	DB	098H
	DB	070H
	DB	00H
	DB	0ffH
	DB	090H
	DB	06cH
	DB	00H
	DB	0ffH
	DB	090H
	DB	06cH
	DB	00H
	DB	0ffH
	DB	090H
	DB	068H
	DB	00H
	DB	0ffH
	DB	088H
	DB	064H
	DB	00H
	DB	0ffH
	DB	078H
	DB	058H
	DB	00H
	DB	0ffH
	DB	080H
	DB	064H
	DB	018H
	DB	0b2H
	DB	0c8H
	DB	0c0H
	DB	0a8H
	DB	03cH
	DB	0f8H
	DB	0fcH
	DB	0f8H
	DB	010H
	DB	00H
	DB	00H
	DB	00H
	DB	00H
	DB	00H
	DB	00H
	DB	00H
	DB	00H
	DB	00H
	DB	00H
	DB	00H
	DB	00H
	DB	00H
	DB	00H
	DB	00H
	DB	00H
	DB	00H
	DB	00H
	DB	00H
	DB	00H
	DB	00H
	DB	00H
	DB	00H
	DB	00H
	DB	00H
	DB	00H
	DB	00H
	DB	00H
	DB	00H
	DB	00H
	DB	00H
	DB	00H
	DB	00H
	DB	00H
	DB	00H
	DB	00H
	DB	00H
	DB	00H
	DB	00H
	DB	00H
	DB	00H
	DB	00H
	DB	00H
	DB	00H
	DB	00H
	DB	00H
	DB	00H
	DB	00H
	DB	00H
	DB	00H
	DB	00H
	DB	00H
	DB	00H
	DB	00H
	DB	00H
	DB	00H
	DB	00H
	DB	00H
	DB	00H
	DB	00H
	DB	00H
	DB	00H
	DB	00H
	DB	00H
	DB	00H
	DB	00H
	DB	00H
	DB	00H
	DB	00H
	DB	00H
	DB	00H
	DB	00H
	DB	00H
	DB	00H
	DB	00H
	DB	00H
	DB	00H
	DB	00H
	DB	00H
	DB	00H
	DB	00H
	DB	00H
	DB	00H
	DB	00H
	DB	00H
	DB	00H
	DB	00H
	DB	00H
	DB	00H
	DB	00H
	DB	00H
	DB	00H
	DB	00H
	DB	00H
	DB	00H
	DB	00H
	DB	00H
	DB	00H
	DB	00H
	DB	00H
	DB	00H
	DB	00H
	DB	00H
	DB	00H
	DB	00H
	DB	00H
	DB	00H
	DB	00H
	DB	00H
	DB	00H
	DB	00H
	DB	00H
	DB	00H
	DB	00H
	DB	00H
	DB	00H
	DB	00H
	DB	00H
	DB	00H
	DB	00H
	DB	00H
	DB	00H
	DB	00H
	DB	00H
	DB	0f8H
	DB	0fcH
	DB	0f8H
	DB	04H
	DB	0f8H
	DB	0fcH
	DB	0f8H
	DB	01cH
	DB	0a8H
	DB	09cH
	DB	070H
	DB	055H
	DB	080H
	DB	060H
	DB	018H
	DB	0baH
	DB	078H
	DB	058H
	DB	00H
	DB	0fbH
	DB	080H
	DB	060H
	DB	00H
	DB	0ffH
	DB	088H
	DB	068H
	DB	00H
	DB	0ffH
	DB	090H
	DB	06cH
	DB	00H
	DB	0ffH
	DB	090H
	DB	06cH
	DB	00H
	DB	0ffH
	DB	090H
	DB	06cH
	DB	00H
	DB	0ffH
	DB	098H
	DB	06cH
	DB	00H
	DB	0ffH
	DB	098H
	DB	070H
	DB	00H
	DB	0ffH
	DB	090H
	DB	070H
	DB	00H
	DB	0ffH
	DB	098H
	DB	070H
	DB	00H
	DB	0ffH
	DB	098H
	DB	070H
	DB	00H
	DB	0ffH
	DB	090H
	DB	070H
	DB	00H
	DB	0ffH
	DB	098H
	DB	06cH
	DB	00H
	DB	0ffH
	DB	090H
	DB	06cH
	DB	00H
	DB	0ffH
	DB	090H
	DB	06cH
	DB	00H
	DB	0ffH
	DB	090H
	DB	06cH
	DB	00H
	DB	0ffH
	DB	090H
	DB	06cH
	DB	00H
	DB	0ffH
	DB	090H
	DB	068H
	DB	00H
	DB	0ffH
	DB	080H
	DB	060H
	DB	00H
	DB	0ffH
	DB	078H
	DB	058H
	DB	00H
	DB	0ffH
	DB	080H
	DB	060H
	DB	018H
	DB	0baH
	DB	0a8H
	DB	09cH
	DB	070H
	DB	055H
	DB	0f8H
	DB	0fcH
	DB	0f8H
	DB	01cH
	DB	0f8H
	DB	0fcH
	DB	0f8H
	DB	04H
	DB	00H
	DB	00H
	DB	00H
	DB	00H
	DB	00H
	DB	00H
	DB	00H
	DB	00H
	DB	00H
	DB	00H
	DB	00H
	DB	00H
	DB	00H
	DB	00H
	DB	00H
	DB	00H
	DB	00H
	DB	00H
	DB	00H
	DB	00H
	DB	00H
	DB	00H
	DB	00H
	DB	00H
	DB	00H
	DB	00H
	DB	00H
	DB	00H
	DB	00H
	DB	00H
	DB	00H
	DB	00H
	DB	00H
	DB	00H
	DB	00H
	DB	00H
	DB	00H
	DB	00H
	DB	00H
	DB	00H
	DB	00H
	DB	00H
	DB	00H
	DB	00H
	DB	00H
	DB	00H
	DB	00H
	DB	00H
	DB	00H
	DB	00H
	DB	00H
	DB	00H
	DB	00H
	DB	00H
	DB	00H
	DB	00H
	DB	00H
	DB	00H
	DB	00H
	DB	00H
	DB	00H
	DB	00H
	DB	00H
	DB	00H
	DB	00H
	DB	00H
	DB	00H
	DB	00H
	DB	00H
	DB	00H
	DB	00H
	DB	00H
	DB	00H
	DB	00H
	DB	00H
	DB	00H
	DB	00H
	DB	00H
	DB	00H
	DB	00H
	DB	00H
	DB	00H
	DB	00H
	DB	00H
	DB	00H
	DB	00H
	DB	00H
	DB	00H
	DB	00H
	DB	00H
	DB	00H
	DB	00H
	DB	00H
	DB	00H
	DB	00H
	DB	00H
	DB	00H
	DB	00H
	DB	00H
	DB	00H
	DB	00H
	DB	00H
	DB	00H
	DB	00H
	DB	00H
	DB	00H
	DB	00H
	DB	00H
	DB	00H
	DB	00H
	DB	00H
	DB	00H
	DB	00H
	DB	00H
	DB	00H
	DB	00H
	DB	00H
	DB	00H
	DB	00H
	DB	00H
	DB	00H
	DB	00H
	DB	00H
	DB	00H
	DB	00H
	DB	00H
	DB	00H
	DB	00H
	DB	00H
	DB	00H
	DB	00H
	DB	00H
	DB	00H
	DB	00H
	DB	00H
	DB	00H
	DB	0f8H
	DB	0fcH
	DB	0f8H
	DB	08H
	DB	0f8H
	DB	0fcH
	DB	0f8H
	DB	020H
	DB	0c0H
	DB	0b4H
	DB	098H
	DB	049H
	DB	088H
	DB	06cH
	DB	028H
	DB	092H
	DB	078H
	DB	05cH
	DB	08H
	DB	0dfH
	DB	078H
	DB	058H
	DB	00H
	DB	0ffH
	DB	080H
	DB	05cH
	DB	00H
	DB	0ffH
	DB	088H
	DB	064H
	DB	00H
	DB	0ffH
	DB	088H
	DB	068H
	DB	00H
	DB	0ffH
	DB	088H
	DB	068H
	DB	00H
	DB	0ffH
	DB	090H
	DB	06cH
	DB	00H
	DB	0ffH
	DB	090H
	DB	068H
	DB	00H
	DB	0ffH
	DB	090H
	DB	06cH
	DB	00H
	DB	0ffH
	DB	090H
	DB	06cH
	DB	00H
	DB	0ffH
	DB	088H
	DB	068H
	DB	00H
	DB	0ffH
	DB	088H
	DB	068H
	DB	00H
	DB	0ffH
	DB	088H
	DB	064H
	DB	00H
	DB	0ffH
	DB	080H
	DB	05cH
	DB	00H
	DB	0ffH
	DB	078H
	DB	058H
	DB	00H
	DB	0ffH
	DB	078H
	DB	05cH
	DB	08H
	DB	0dfH
	DB	088H
	DB	06cH
	DB	028H
	DB	092H
	DB	0c0H
	DB	0b4H
	DB	090H
	DB	045H
	DB	0f8H
	DB	0fcH
	DB	0f8H
	DB	020H
	DB	0f8H
	DB	0fcH
	DB	0f8H
	DB	08H
	DB	00H
	DB	00H
	DB	00H
	DB	00H
	DB	00H
	DB	00H
	DB	00H
	DB	00H
	DB	00H
	DB	00H
	DB	00H
	DB	00H
	DB	00H
	DB	00H
	DB	00H
	DB	00H
	DB	00H
	DB	00H
	DB	00H
	DB	00H
	DB	00H
	DB	00H
	DB	00H
	DB	00H
	DB	00H
	DB	00H
	DB	00H
	DB	00H
	DB	00H
	DB	00H
	DB	00H
	DB	00H
	DB	00H
	DB	00H
	DB	00H
	DB	00H
	DB	00H
	DB	00H
	DB	00H
	DB	00H
	DB	00H
	DB	00H
	DB	00H
	DB	00H
	DB	00H
	DB	00H
	DB	00H
	DB	00H
	DB	00H
	DB	00H
	DB	00H
	DB	00H
	DB	00H
	DB	00H
	DB	00H
	DB	00H
	DB	00H
	DB	00H
	DB	00H
	DB	00H
	DB	00H
	DB	00H
	DB	00H
	DB	00H
	DB	00H
	DB	00H
	DB	00H
	DB	00H
	DB	00H
	DB	00H
	DB	00H
	DB	00H
	DB	00H
	DB	00H
	DB	00H
	DB	00H
	DB	00H
	DB	00H
	DB	00H
	DB	00H
	DB	00H
	DB	00H
	DB	00H
	DB	00H
	DB	00H
	DB	00H
	DB	00H
	DB	00H
	DB	00H
	DB	00H
	DB	00H
	DB	00H
	DB	00H
	DB	00H
	DB	00H
	DB	00H
	DB	00H
	DB	00H
	DB	00H
	DB	00H
	DB	00H
	DB	00H
	DB	00H
	DB	00H
	DB	00H
	DB	00H
	DB	00H
	DB	00H
	DB	00H
	DB	00H
	DB	00H
	DB	00H
	DB	00H
	DB	00H
	DB	00H
	DB	00H
	DB	00H
	DB	00H
	DB	00H
	DB	00H
	DB	00H
	DB	00H
	DB	00H
	DB	00H
	DB	00H
	DB	00H
	DB	00H
	DB	00H
	DB	00H
	DB	00H
	DB	00H
	DB	00H
	DB	00H
	DB	00H
	DB	00H
	DB	00H
	DB	00H
	DB	00H
	DB	00H
	DB	00H
	DB	00H
	DB	00H
	DB	00H
	DB	00H
	DB	00H
	DB	00H
	DB	00H
	DB	00H
	DB	00H
	DB	00H
	DB	00H
	DB	00H
	DB	0f8H
	DB	0fcH
	DB	0f8H
	DB	04H
	DB	0f8H
	DB	0fcH
	DB	0f8H
	DB	018H
	DB	0f8H
	DB	0fcH
	DB	0f8H
	DB	028H
	DB	0c0H
	DB	0b4H
	DB	098H
	DB	045H
	DB	090H
	DB	07cH
	DB	040H
	DB	07dH
	DB	080H
	DB	068H
	DB	020H
	DB	0a6H
	DB	078H
	DB	060H
	DB	010H
	DB	0c7H
	DB	078H
	DB	05cH
	DB	08H
	DB	0e3H
	DB	078H
	DB	058H
	DB	08H
	DB	0efH
	DB	078H
	DB	058H
	DB	00H
	DB	0fbH
	DB	078H
	DB	058H
	DB	00H
	DB	0fbH
	DB	078H
	DB	058H
	DB	08H
	DB	0f3H
	DB	078H
	DB	05cH
	DB	08H
	DB	0dfH
	DB	080H
	DB	060H
	DB	010H
	DB	0c7H
	DB	080H
	DB	068H
	DB	020H
	DB	0a6H
	DB	090H
	DB	078H
	DB	040H
	DB	07dH
	DB	0c0H
	DB	0b4H
	DB	098H
	DB	049H
	DB	0f8H
	DB	0fcH
	DB	0f8H
	DB	028H
	DB	0f8H
	DB	0fcH
	DB	0f8H
	DB	018H
	DB	0f8H
	DB	0fcH
	DB	0f8H
	DB	04H
	DB	00H
	DB	00H
	DB	00H
	DB	00H
	DB	00H
	DB	00H
	DB	00H
	DB	00H
	DB	00H
	DB	00H
	DB	00H
	DB	00H
	DB	00H
	DB	00H
	DB	00H
	DB	00H
	DB	00H
	DB	00H
	DB	00H
	DB	00H
	DB	00H
	DB	00H
	DB	00H
	DB	00H
	DB	00H
	DB	00H
	DB	00H
	DB	00H
	DB	00H
	DB	00H
	DB	00H
	DB	00H
	DB	00H
	DB	00H
	DB	00H
	DB	00H
	DB	00H
	DB	00H
	DB	00H
	DB	00H
	DB	00H
	DB	00H
	DB	00H
	DB	00H
	DB	00H
	DB	00H
	DB	00H
	DB	00H
	DB	00H
	DB	00H
	DB	00H
	DB	00H
	DB	00H
	DB	00H
	DB	00H
	DB	00H
	DB	00H
	DB	00H
	DB	00H
	DB	00H
	DB	00H
	DB	00H
	DB	00H
	DB	00H
	DB	00H
	DB	00H
	DB	00H
	DB	00H
	DB	00H
	DB	00H
	DB	00H
	DB	00H
	DB	00H
	DB	00H
	DB	00H
	DB	00H
	DB	00H
	DB	00H
	DB	00H
	DB	00H
	DB	00H
	DB	00H
	DB	00H
	DB	00H
	DB	00H
	DB	00H
	DB	00H
	DB	00H
	DB	00H
	DB	00H
	DB	00H
	DB	00H
	DB	00H
	DB	00H
	DB	00H
	DB	00H
	DB	00H
	DB	00H
	DB	00H
	DB	00H
	DB	00H
	DB	00H
	DB	00H
	DB	00H
	DB	00H
	DB	00H
	DB	00H
	DB	00H
	DB	00H
	DB	00H
	DB	00H
	DB	00H
	DB	00H
	DB	00H
	DB	00H
	DB	00H
	DB	00H
	DB	00H
	DB	00H
	DB	00H
	DB	00H
	DB	00H
	DB	00H
	DB	00H
	DB	00H
	DB	00H
	DB	00H
	DB	00H
	DB	00H
	DB	00H
	DB	00H
	DB	00H
	DB	00H
	DB	00H
	DB	00H
	DB	00H
	DB	00H
	DB	00H
	DB	00H
	DB	00H
	DB	00H
	DB	00H
	DB	00H
	DB	00H
	DB	00H
	DB	00H
	DB	00H
	DB	00H
	DB	00H
	DB	00H
	DB	00H
	DB	00H
	DB	00H
	DB	00H
	DB	00H
	DB	00H
	DB	00H
	DB	00H
	DB	00H
	DB	00H
	DB	00H
	DB	00H
	DB	00H
	DB	00H
	DB	00H
	DB	00H
	DB	00H
	DB	00H
	DB	00H
	DB	00H
	DB	00H
	DB	00H
	DB	0f8H
	DB	0fcH
	DB	0f8H
	DB	04H
	DB	0f8H
	DB	0fcH
	DB	0f8H
	DB	010H
	DB	0f8H
	DB	0fcH
	DB	0f8H
	DB	01cH
	DB	0f8H
	DB	0fcH
	DB	0f8H
	DB	020H
	DB	0f8H
	DB	0fcH
	DB	0f8H
	DB	028H
	DB	0f8H
	DB	0fcH
	DB	0f8H
	DB	02cH
	DB	0f8H
	DB	0fcH
	DB	0f8H
	DB	02cH
	DB	0f8H
	DB	0fcH
	DB	0f8H
	DB	02cH
	DB	0f8H
	DB	0fcH
	DB	0f8H
	DB	02cH
	DB	0f8H
	DB	0fcH
	DB	0f8H
	DB	028H
	DB	0f8H
	DB	0fcH
	DB	0f8H
	DB	020H
	DB	0f8H
	DB	0fcH
	DB	0f8H
	DB	01cH
	DB	0f8H
	DB	0fcH
	DB	0f8H
	DB	010H
	DB	0f8H
	DB	0fcH
	DB	0f8H
	DB	04H
	DB	00H
	DB	00H
	DB	00H
	DB	00H
	DB	00H
	DB	00H
	DB	00H
	DB	00H
	DB	00H
	DB	00H
	DB	00H
	DB	00H
	DB	00H
	DB	00H
	DB	00H
	DB	00H
	DB	00H
	DB	00H
	DB	00H
	DB	00H
	DB	00H
	DB	00H
	DB	00H
	DB	00H
	DB	00H
	DB	00H
	DB	00H
	DB	00H
	DB	00H
	DB	00H
	DB	00H
	DB	00H
	DB	00H
	DB	00H
	DB	00H
	DB	00H
	DB	00H
	DB	00H
	DB	00H
	DB	00H
	DB	00H
	DB	00H
	DB	00H
	DB	00H
	DB	00H
	DB	00H
	DB	00H
	DB	00H
	DB	00H
	DB	00H
	DB	00H
	DB	00H
	DB	00H
	DB	00H
	DB	00H
	DB	00H
	DB	00H
	DB	00H
	DB	00H
	DB	00H
	DB	00H
	DB	00H
	DB	00H
	DB	00H
	DB	00H
	DB	00H
	DB	00H
	DB	00H
	DB	00H
	DB	00H
	DB	00H
	DB	00H
	DB	00H
	DB	00H
	DB	00H
	DB	00H
	DB	00H
	DB	00H
	DB	00H
	DB	00H
	DB	00H
	DB	00H
	DB	00H
	DB	00H
	DB	00H
	DB	00H
	DB	00H
	DB	00H
	DB	00H
	DB	00H
	DB	00H
	DB	00H
	DB	00H
	DB	00H
	DB	00H
	DB	00H
	DB	00H
	DB	00H
	DB	00H
	DB	00H
	DB	00H
	DB	00H
	DB	00H
	DB	00H
	DB	00H
	DB	00H
	DB	00H
	DB	00H
	DB	00H
	DB	00H
	DB	00H
	DB	00H
	DB	00H
	DB	00H
	DB	00H
	DB	00H
	DB	00H
	DB	00H
	DB	00H
	DB	00H
	DB	00H
	DB	00H
	DB	00H
	DB	00H
	DB	00H
	DB	00H
	DB	00H
	DB	00H
	DB	00H
	DB	00H
	DB	00H
	DB	00H
	DB	00H
	DB	00H
	DB	00H
	DB	00H
	DB	00H
	DB	00H
	DB	00H
	DB	00H
	DB	00H
	DB	00H
	DB	00H
	DB	00H
	DB	00H
	DB	00H
	DB	00H
	DB	00H
	DB	00H
	DB	00H
	DB	00H
	DB	00H
	DB	00H
	DB	00H
	DB	00H
	DB	00H
	DB	00H
	DB	00H
	DB	00H
	DB	00H
	DB	00H
	DB	00H
	DB	00H
	DB	00H
	DB	00H
	DB	00H
	DB	00H
	DB	00H
	DB	00H
	DB	00H
	DB	00H
	DB	00H
	DB	00H
	DB	00H
	DB	00H
	DB	00H
	DB	00H
	DB	00H
	DB	00H
	DB	00H
	DB	00H
	DB	00H
	DB	00H
	DB	00H
	DB	00H
	DB	00H
	DB	00H
	DB	00H
	DB	00H
	DB	00H
	DB	00H
	DB	00H
	DB	00H
	DB	00H
	DB	00H
	DB	00H
	DB	00H
	DB	00H
	DB	00H
	DB	00H
	DB	00H
	DB	00H
	DB	00H
	DB	00H
	DB	00H
	DB	00H
	DB	00H
	DB	00H
	DB	00H
	DB	00H
	DB	00H
	DB	00H
	DB	00H
	DB	00H
	DB	00H
	DB	00H
	DB	00H
	DB	00H
	DB	00H
	DB	00H
	DB	00H
	DB	00H
	DB	00H
	DB	00H
	DB	00H
	DB	00H
	DB	00H
	DB	00H
	DB	00H
	DB	00H
	DB	00H
	DB	00H
	DB	00H
	DB	00H
	DB	00H
	DB	00H
	DB	00H
	DB	00H
	DB	00H
	DB	00H
	DB	00H
	DB	00H
	DB	00H
	DB	00H
	DB	00H
	DB	00H
	DB	00H
	DB	00H
	DB	00H
	DB	00H
	DB	00H
	DB	00H
	DB	00H
	DB	00H
	DB	00H
	DB	00H
	DB	00H
	DB	00H
	DB	00H
	DB	00H
	DB	00H
	DB	00H
	DB	00H
	DB	00H
	DB	00H
	DB	00H
	DB	00H
	DB	00H
	DB	00H
	DB	00H
	DB	00H
	DB	00H
	DB	00H
	DB	00H
	DB	00H
	DB	00H
	DB	00H
	DB	00H
	DB	00H
	DB	00H
	DB	00H
	DB	00H
	DB	00H
	DB	00H
	DB	00H
	DB	00H
	DB	00H
	DB	00H
	DB	00H
	DB	00H
	DB	00H
	DB	00H
	DB	00H
	DB	00H
	DB	00H
	DB	00H
	DB	00H
	DB	00H
	DB	00H
	DB	00H
	DB	00H
	DB	00H
	DB	00H
	DB	00H
	DB	00H
	DB	00H
	DB	00H
	DB	00H
	DB	00H
	DB	00H
	DB	00H
	DB	00H
	DB	00H
	DB	00H
	DB	00H
	DB	00H
	DB	00H
	DB	00H
	DB	00H
	DB	00H
	DB	00H
	DB	00H
	DB	00H
	DB	00H
	DB	00H
	DB	00H
	DB	00H
	DB	00H
	DB	00H
	DB	00H
	DB	00H
	DB	00H
	DB	00H
	DB	00H
	DB	00H
	DB	00H
	DB	00H
	DB	00H
	DB	00H
	DB	00H
	DB	00H
	DB	00H
	DB	00H
	DB	00H
	DB	00H
	DB	00H
	DB	00H
	DB	00H
	DB	00H
	DB	00H
	DB	00H
	DB	00H
	DB	00H
	DB	00H
	DB	00H
	DB	00H
	DB	00H
	DB	00H
	DB	00H
	DB	00H
	DB	00H
	DB	00H
	DB	00H
	DB	00H
	DB	00H
	DB	00H
	DB	00H
	DB	00H
	DB	00H
	DB	00H
	DB	00H
	DB	00H
	DB	00H
	DB	00H
	DB	00H
	DB	00H
	DB	00H
	DB	00H
	DB	00H
	DB	00H
	DB	00H
	DB	00H
	DB	00H
	DB	00H
	DB	00H
	DB	00H
	DB	00H
	DB	00H
	DB	00H
	DB	00H
	DB	00H
	DB	00H
	DB	00H
	DB	00H
	DB	00H
	DB	00H
	DB	00H
	DB	00H
	DB	00H
	DB	00H
	DB	00H
	DB	00H
	DB	00H
	DB	00H
	DB	00H
	DB	00H
	DB	00H
	DB	00H
	DB	00H
	DB	00H
	DB	00H
	DB	00H
	DB	00H
	DB	00H
	DB	00H
	DB	00H
	DB	00H
	DB	00H
	DB	00H
	DB	00H
	DB	00H
	DB	00H
	DB	00H
	DB	00H
	DB	00H
	DB	00H
	DB	00H
	DB	00H
	DB	00H
	DB	00H
	DB	00H
	DB	00H
	DB	00H
	DB	00H
	DB	00H
	DB	00H
	DB	00H
	DB	00H
	DB	00H
	DB	00H
	DB	00H
	DB	00H
	DB	00H
	DB	00H
	DB	00H
	DB	00H
	DB	00H
	DB	00H
	DB	00H
	DB	00H
	DB	00H
	DB	00H
	DB	00H
	DB	00H
	DB	00H
	DB	00H
	DB	00H
	DB	00H
	DB	00H
	DB	00H
	DB	00H
	DB	00H
	DB	00H
	DB	00H
	DB	00H
	DB	00H
	DB	00H
	DB	00H
	DB	00H
	DB	00H
	DB	00H
	DB	00H
	DB	00H
	DB	00H
	DB	00H
	DB	00H
	DB	00H
	DB	00H
	DB	00H
	DB	00H
	DB	00H
	DB	00H
	DB	00H
	DB	00H
	DB	00H
	DB	00H
	DB	00H
	DB	00H
	DB	00H
	DB	00H
	DB	00H
	DB	00H
	DB	00H
	DB	00H
	DB	00H
	DB	00H
	DB	00H
	DB	00H
	DB	00H
	DB	00H
	DB	00H
	DB	00H
	DB	00H
	DB	00H
	DB	00H
	DB	00H
	DB	00H
	DB	00H
	DB	00H
	DB	00H
	DB	00H
	DB	00H
	DB	00H
	DB	00H
	DB	00H
	DB	00H
	DB	00H
	DB	00H
	DB	00H
	DB	00H
	DB	00H
	DB	00H
	DB	00H
	DB	00H
	DB	00H
	DB	00H
	DB	00H
	DB	00H
	DB	00H
	DB	00H
	DB	00H
	DB	00H
	DB	00H
	DB	00H
	DB	00H
	DB	00H
	DB	00H
	DB	00H
	DB	00H
	DB	00H
	DB	00H
	DB	00H
	DB	00H
	DB	00H
	DB	00H
	DB	00H
	DB	00H
	DB	00H
	DB	00H
	DB	00H
	DB	00H
	DB	00H
	DB	00H
	DB	00H
	DB	00H
	DB	00H
	DB	00H
	DB	00H
	DB	00H
	DB	00H
	DB	00H
	DB	00H
	DB	00H
	DB	00H
	DB	00H
	DB	00H
	DB	00H
	DB	00H
	DB	00H
	DB	00H
	DB	00H
	DB	00H
	DB	00H
	DB	00H
	DB	00H
	DB	00H
	DB	00H
	DB	00H
	DB	00H
	DB	00H
	DB	00H
	DB	00H
	DB	00H
	DB	00H
	DB	00H
	DB	00H
	DB	00H
	DB	00H
	DB	00H
	DB	00H
	DB	00H
	DB	00H
	DB	00H
	DB	00H
	DB	00H
	DB	00H
	DB	00H
	DB	00H
	DB	00H
	DB	00H
	DB	00H
	DB	00H
	DB	00H
	DB	00H
	DB	00H
	DB	00H
	DB	00H
	DB	00H
	DB	00H
	DB	00H
	DB	00H
	DB	00H
	DB	00H
	DB	00H
	DB	00H
	DB	00H
	DB	00H
	DB	00H
	DB	00H
	DB	00H
	DB	00H
	DB	00H
	DB	00H
	DB	00H
	DB	00H
	DB	00H
	DB	00H
	DB	00H
	DB	00H
	DB	00H
	DB	00H
	DB	00H
	DB	00H
	DB	00H
	DB	00H
	DB	00H
	DB	00H
	DB	00H
	DB	00H
	DB	00H
	DB	00H
	DB	00H
	DB	00H
	DB	00H
	DB	00H
	DB	00H
	DB	00H
	DB	00H
	DB	00H
	DB	00H
	DB	00H
	DB	00H
	DB	00H
	DB	00H
	DB	00H
	DB	00H
	DB	00H
	DB	00H
	DB	00H
	DB	00H
	DB	00H
	DB	00H
	DB	00H
	DB	00H
	DB	00H
	DB	00H
	DB	00H
	DB	00H
	DB	00H
	DB	00H
	DB	00H
	DB	00H
	DB	00H
	DB	00H
	DB	00H
	DB	00H
	DB	00H
	DB	00H
	DB	00H
	DB	00H
	DB	00H
	DB	00H
	DB	00H
	DB	00H
	DB	00H
	DB	00H
	DB	00H
	DB	00H
	DB	00H
	DB	00H
	DB	00H
	DB	00H
	DB	00H
	DB	00H
	DB	00H
	DB	00H
	DB	00H
	DB	00H
	DB	00H
	DB	00H
	DB	00H
	DB	00H
	DB	00H
	DB	00H
	DB	00H
	DB	00H
	DB	00H
	DB	00H
	DB	00H
	DB	00H
	DB	00H
	DB	00H
	DB	00H
	DB	00H
	DB	00H
	DB	00H
	DB	00H
	DB	00H
	DB	00H
	DB	00H
	DB	00H
	DB	00H
	DB	00H
	DB	00H
	DB	00H
	DB	00H
	DB	00H
	DB	00H
	DB	00H
	DB	00H
	DB	00H
	DB	00H
	DB	00H
	DB	00H
	DB	00H
	DB	00H
	DB	00H
	DB	00H
	DB	00H
	DB	00H
	DB	00H
	DB	00H
	DB	00H
	DB	00H
	DB	00H
	DB	00H
	DB	00H
	DB	00H
	DB	00H
	DB	00H
	DB	00H
	DB	00H
	DB	00H
	DB	00H
	DB	00H
	DB	00H
	DB	00H
	DB	00H
	DB	00H
	DB	00H
	DB	00H
	DB	00H
	DB	00H
	DB	00H
	DB	00H
	DB	00H
	DB	00H
	DB	00H
	DB	00H
	DB	00H
	DB	00H
	DB	00H
	DB	00H
	DB	00H
	DB	00H
	DB	00H
	DB	00H
	DB	00H
	DB	00H
	DB	00H
	DB	00H
	DB	00H
	DB	00H
	DB	00H
	DB	00H
	DB	00H
	DB	00H
	DB	00H
	DB	00H
	DB	00H
	DB	00H
	DB	00H
	DB	00H
	DB	00H
	DB	00H
	DB	00H
	DB	00H
	DB	00H
	DB	00H
	DB	00H
	DB	00H
	DB	00H
	DB	00H
	DB	00H
	DB	00H
	DB	00H
	DB	00H
	DB	00H
	DB	00H
	DB	00H
	DB	00H
	DB	00H
	DB	00H
	DB	00H
	DB	00H
	DB	00H
	DB	00H
	DB	00H
	DB	00H
	DB	00H
	DB	00H
	DB	00H
	DB	00H
	DB	00H
	DB	00H
	DB	00H
	DB	00H
	DB	00H
	DB	00H
	DB	00H
	DB	00H
	DB	00H
	DB	00H
	DB	00H
	DB	00H
	DB	00H
	DB	00H
	DB	00H
	DB	00H
	DB	00H
	DB	00H
	DB	00H
	DB	00H
	DB	00H
	DB	00H
	DB	00H
	DB	00H
	DB	00H
	DB	00H
	DB	00H
	DB	00H
	DB	00H
	DB	00H
	DB	00H
	DB	00H
	DB	00H
	DB	00H
	DB	00H
	DB	00H
	DB	00H
	DB	00H
	DB	00H
	DB	00H
	DB	00H
	DB	00H
	DB	00H
	DB	00H
	DB	00H
	DB	00H
	DB	00H
	DB	00H
	DB	00H
	DB	00H
	DB	00H
	DB	00H
	DB	00H
	DB	00H
	DB	00H
	DB	00H
	DB	00H
	DB	00H
	DB	00H
	DB	00H
	DB	00H
	DB	00H
	DB	00H
	DB	00H
	DB	00H
	DB	00H
	DB	00H
	DB	00H
	DB	00H
	DB	00H
	DB	00H
	DB	00H
	DB	00H
	DB	00H
	DB	00H
	DB	00H
	DB	00H
	DB	00H
	DB	00H
	DB	00H
	DB	00H
	DB	00H
	DB	00H
	DB	00H
	DB	00H
	DB	00H
	DB	00H
	DB	00H
	DB	00H
	DB	00H
	DB	00H
	DB	00H
	DB	00H
	DB	00H
	DB	00H
	DB	00H
	DB	00H
	DB	00H
	DB	00H
	DB	00H
	DB	00H
	DB	00H
	DB	00H
	DB	00H
	DB	00H
	DB	00H
	DB	00H
	DB	00H
	DB	00H
	DB	00H
	DB	00H
	DB	00H
	DB	00H
	DB	00H
	DB	00H
	DB	00H
	DB	00H
	DB	00H
	DB	00H
	DB	00H
	DB	00H
	DB	00H
	DB	00H
	DB	00H
	DB	00H
	DB	00H
	DB	00H
	DB	00H
	DB	00H
	DB	00H
	DB	00H
	DB	00H
	DB	00H
	DB	00H
	DB	00H
	DB	00H
	DB	00H
	DB	00H
	DB	00H
	DB	00H
	DB	00H
	DB	00H
	DB	00H
	DB	00H
	DB	00H
	DB	00H
	DB	00H
	DB	00H
	DB	00H
	DB	00H
	DB	00H
	DB	00H
	DB	00H
	DB	00H
	DB	00H
	DB	00H
	DB	00H
	DB	00H
	DB	00H
	DB	00H
	DB	00H
	DB	00H
	DB	00H
	DB	00H
	DB	00H
	DB	00H
	DB	00H
	DB	00H
	DB	00H
	DB	00H
	DB	00H
	DB	00H
	DB	00H
	DB	00H
	DB	00H
	DB	00H
	DB	00H
	DB	00H
	DB	00H
	DB	00H
	DB	00H
	DB	00H
	DB	00H
	DB	00H
	DB	00H
	DB	00H
	DB	00H
	DB	00H
	DB	00H
	DB	00H
	DB	00H
	DB	00H
	DB	00H
	DB	00H
	DB	00H
	DB	00H
	DB	00H
	DB	00H
	DB	00H
	DB	00H
	DB	00H
	DB	00H
	DB	00H
	DB	00H
	DB	00H
	DB	00H
	DB	00H
	DB	00H
	DB	00H
	DB	00H
	DB	00H
	DB	00H
	DB	00H
	DB	00H
	DB	00H
	DB	00H
	DB	00H
	DB	00H
	DB	00H
	DB	00H
	DB	00H
	DB	00H
	DB	00H
	DB	00H
	DB	00H
	DB	00H
	DB	00H
	DB	00H
	DB	00H
	DB	00H
	DB	00H
	DB	00H
	DB	00H
	DB	00H
	DB	00H
	DB	00H
	DB	00H
	DB	00H
	DB	00H
	DB	00H
	DB	00H
	DB	00H
	DB	00H
	DB	00H
	DB	00H
	DB	00H
	DB	00H
	DB	00H
	DB	00H
	DB	00H
	DB	00H
	DB	00H
	DB	00H
	DB	00H
	DB	00H
	DB	00H
	DB	00H
	DB	00H
	DB	00H
	DB	00H
	DB	00H
	DB	00H
	DB	00H
	DB	00H
	DB	00H
	DB	00H
	DB	00H
	DB	00H
	DB	00H
	DB	00H
	DB	00H
	DB	00H
	DB	00H
	DB	00H
	DB	00H
	DB	00H
	DB	00H
	DB	00H
	DB	00H
	DB	00H
	DB	00H
	DB	00H
	DB	00H
	DB	00H
	DB	00H
	DB	00H
	DB	00H
	DB	00H
	DB	00H
	DB	00H
	DB	00H
	DB	00H
	DB	00H
	DB	00H
	DB	00H
	DB	00H
	DB	00H
	DB	00H
	DB	00H
	DB	00H
	DB	00H
	DB	00H
	DB	00H
	DB	00H
	DB	00H
	DB	00H
	DB	00H
	DB	00H
	DB	00H
	DB	00H
	DB	00H
	DB	00H
	DB	00H
	DB	00H
	DB	00H
	DB	00H
	DB	00H
	DB	00H
	DB	00H
	DB	00H
	DB	00H
	DB	00H
	DB	00H
	DB	00H
	DB	00H
	DB	00H
	DB	00H
	DB	00H
	DB	00H
	DB	00H
	DB	00H
	DB	00H
	DB	00H
	DB	00H
	DB	00H
	DB	00H
	DB	00H
	DB	00H
	DB	00H
	DB	00H
	DB	00H
	DB	00H
	DB	00H
	DB	00H
	DB	00H
	DB	00H
	DB	00H
	DB	00H
	DB	00H
	DB	00H
	DB	00H
	DB	00H
	DB	00H
	DB	00H
	DB	00H
	DB	00H
	DB	00H
	DB	00H
	DB	00H
	DB	00H
	DB	00H
	DB	00H
	DB	00H
	DB	00H
	DB	00H
	DB	00H
	DB	00H
	DB	00H
	DB	00H
	DB	00H
	DB	00H
	DB	00H
	DB	00H
	DB	00H
	DB	00H
	DB	00H
	DB	00H
	DB	00H
	DB	00H
	DB	00H
	DB	00H
	DB	00H
	DB	00H
	DB	00H
	DB	00H
	DB	00H
	DB	00H
	DB	00H
	DB	00H
	DB	00H
	DB	00H
	DB	00H
	DB	00H
	DB	00H
	DB	00H
	DB	00H
	DB	00H
	DB	00H
	DB	00H
	DB	00H
	DB	00H
	DB	00H
	DB	00H
	DB	00H
	DB	00H
	DB	00H
	DB	00H
	DB	00H
	DB	00H
	DB	00H
	DB	00H
	DB	00H
	DB	00H
	DB	00H
	DB	00H
	DB	00H
	DB	00H
	DB	00H
	DB	00H
	DB	00H
	DB	00H
	DB	00H
	DB	00H
	DB	00H
	DB	00H
	DB	00H
	DB	00H
	DB	00H
	DB	00H
	DB	00H
	DB	00H
	DB	00H
	DB	00H
	DB	00H
	DB	00H
	DB	00H
	DB	00H
	DB	00H
	DB	00H
	DB	00H
	DB	00H
	DB	00H
	DB	00H
	DB	00H
	DB	00H
	DB	00H
	DB	00H
	DB	00H
	DB	00H
	DB	00H
	DB	00H
	DB	00H
	DB	00H
	DB	00H
	DB	00H
	DB	00H
	DB	00H
	DB	00H
	DB	00H
	DB	00H
	DB	00H
	DB	00H
	DB	00H
	DB	00H
	DB	00H
	DB	00H
	DB	00H
	DB	00H
	DB	00H
CONST	ENDS
END
