; Listing generated by Microsoft (R) Optimizing Compiler Version 19.29.30038.1 

	TITLE	C:\TouchGFXProjects\MyApplication_9\TouchGFX\build\Debug\obj\image_Blue_Togglebars_Toggle_round_large_button_OFF.obj
	.686P
	.XMM
	include listing.inc
	.model	flat

INCLUDELIB MSVCRTD
INCLUDELIB OLDNAMES

PUBLIC	?image_blue_togglebars_toggle_round_large_button_off@@3QBEB ; image_blue_togglebars_toggle_round_large_button_off
CONST	SEGMENT
?image_blue_togglebars_toggle_round_large_button_off@@3QBEB DB 00H ; image_blue_togglebars_toggle_round_large_button_off
	DB	00H
	DB	00H
	DB	00H
	DB	00H
	DB	00H
	DB	00H
	DB	00H
	DB	00H
	DB	00H
	DB	00H
	DB	00H
	DB	00H
	DB	00H
	DB	00H
	DB	00H
	DB	00H
	DB	00H
	DB	00H
	DB	00H
	DB	00H
	DB	00H
	DB	00H
	DB	00H
	DB	00H
	DB	00H
	DB	00H
	DB	00H
	DB	00H
	DB	00H
	DB	00H
	DB	00H
	DB	00H
	DB	00H
	DB	00H
	DB	00H
	DB	00H
	DB	00H
	DB	00H
	DB	00H
	DB	00H
	DB	00H
	DB	00H
	DB	00H
	DB	00H
	DB	00H
	DB	00H
	DB	00H
	DB	00H
	DB	00H
	DB	00H
	DB	00H
	DB	0f8H
	DB	0fcH
	DB	0f8H
	DB	02cH
	DB	0f8H
	DB	0fcH
	DB	0f8H
	DB	071H
	DB	0f8H
	DB	0fcH
	DB	0f8H
	DB	0aaH
	DB	0f8H
	DB	0fcH
	DB	0f8H
	DB	0cfH
	DB	0f8H
	DB	0fcH
	DB	0f8H
	DB	0ebH
	DB	0f8H
	DB	0fcH
	DB	0f8H
	DB	0f7H
	DB	0f8H
	DB	0fcH
	DB	0f8H
	DB	0ffH
	DB	0f8H
	DB	0fcH
	DB	0f8H
	DB	0ffH
	DB	0f8H
	DB	0fcH
	DB	0f8H
	DB	0ffH
	DB	0f8H
	DB	0fcH
	DB	0f8H
	DB	0ffH
	DB	0f8H
	DB	0fcH
	DB	0f8H
	DB	0ffH
	DB	0f8H
	DB	0fcH
	DB	0f8H
	DB	0ffH
	DB	0f8H
	DB	0fcH
	DB	0f8H
	DB	0ffH
	DB	0f8H
	DB	0fcH
	DB	0f8H
	DB	0ffH
	DB	0f8H
	DB	0fcH
	DB	0f8H
	DB	0ffH
	DB	0f8H
	DB	0fcH
	DB	0f8H
	DB	0ffH
	DB	0f8H
	DB	0fcH
	DB	0f8H
	DB	0ffH
	DB	0f8H
	DB	0fcH
	DB	0f8H
	DB	0ffH
	DB	0f8H
	DB	0fcH
	DB	0f8H
	DB	0ffH
	DB	0f8H
	DB	0fcH
	DB	0f8H
	DB	0ffH
	DB	0f8H
	DB	0fcH
	DB	0f8H
	DB	0ffH
	DB	0f8H
	DB	0fcH
	DB	0f8H
	DB	0ffH
	DB	0f8H
	DB	0fcH
	DB	0f8H
	DB	0ffH
	DB	0f8H
	DB	0fcH
	DB	0f8H
	DB	0ffH
	DB	0f8H
	DB	0fcH
	DB	0f8H
	DB	0ffH
	DB	0f8H
	DB	0fcH
	DB	0f8H
	DB	0ffH
	DB	0f8H
	DB	0fcH
	DB	0f8H
	DB	0ffH
	DB	0f8H
	DB	0fcH
	DB	0f8H
	DB	0ffH
	DB	0f8H
	DB	0fcH
	DB	0f8H
	DB	0ffH
	DB	0f8H
	DB	0fcH
	DB	0f8H
	DB	0ffH
	DB	0f8H
	DB	0fcH
	DB	0f8H
	DB	0ffH
	DB	0f8H
	DB	0fcH
	DB	0f8H
	DB	0ffH
	DB	0f8H
	DB	0fcH
	DB	0f8H
	DB	0ffH
	DB	0f8H
	DB	0fcH
	DB	0f8H
	DB	0ffH
	DB	0f8H
	DB	0fcH
	DB	0f8H
	DB	0ffH
	DB	0f8H
	DB	0fcH
	DB	0f8H
	DB	0ffH
	DB	0f8H
	DB	0fcH
	DB	0f8H
	DB	0ffH
	DB	0f8H
	DB	0fcH
	DB	0f8H
	DB	0ffH
	DB	0f8H
	DB	0fcH
	DB	0f8H
	DB	0ffH
	DB	0f8H
	DB	0fcH
	DB	0f8H
	DB	0ffH
	DB	0f8H
	DB	0fcH
	DB	0f8H
	DB	0ffH
	DB	0f8H
	DB	0fcH
	DB	0f8H
	DB	0ffH
	DB	0f8H
	DB	0fcH
	DB	0f8H
	DB	0ffH
	DB	0f8H
	DB	0fcH
	DB	0f8H
	DB	0ffH
	DB	0f8H
	DB	0fcH
	DB	0f8H
	DB	0ffH
	DB	0f8H
	DB	0fcH
	DB	0f8H
	DB	0ffH
	DB	0f8H
	DB	0fcH
	DB	0f8H
	DB	0ffH
	DB	0f8H
	DB	0fcH
	DB	0f8H
	DB	0ffH
	DB	0f8H
	DB	0fcH
	DB	0f8H
	DB	0ffH
	DB	0f8H
	DB	0fcH
	DB	0f8H
	DB	0ffH
	DB	0f8H
	DB	0fcH
	DB	0f8H
	DB	0ffH
	DB	0f8H
	DB	0fcH
	DB	0f8H
	DB	0ffH
	DB	0f8H
	DB	0fcH
	DB	0f8H
	DB	0ffH
	DB	0f8H
	DB	0fcH
	DB	0f8H
	DB	0ffH
	DB	0f8H
	DB	0fcH
	DB	0f8H
	DB	0ffH
	DB	0f8H
	DB	0fcH
	DB	0f8H
	DB	0ffH
	DB	0f8H
	DB	0fcH
	DB	0f8H
	DB	0ffH
	DB	0f8H
	DB	0fcH
	DB	0f8H
	DB	0ffH
	DB	0f8H
	DB	0fcH
	DB	0f8H
	DB	0ffH
	DB	0f8H
	DB	0fcH
	DB	0f8H
	DB	0ffH
	DB	0f8H
	DB	0fcH
	DB	0f8H
	DB	0ffH
	DB	0f8H
	DB	0fcH
	DB	0f8H
	DB	0ffH
	DB	0f8H
	DB	0fcH
	DB	0f8H
	DB	0ffH
	DB	0f8H
	DB	0fcH
	DB	0f8H
	DB	0ffH
	DB	0f8H
	DB	0fcH
	DB	0f8H
	DB	0ffH
	DB	0f8H
	DB	0fcH
	DB	0f8H
	DB	0ffH
	DB	0f8H
	DB	0fcH
	DB	0f8H
	DB	0ffH
	DB	0f8H
	DB	0fcH
	DB	0f8H
	DB	0ffH
	DB	0f8H
	DB	0fcH
	DB	0f8H
	DB	0ffH
	DB	0f8H
	DB	0fcH
	DB	0f8H
	DB	0ffH
	DB	0f8H
	DB	0fcH
	DB	0f8H
	DB	0ffH
	DB	0f8H
	DB	0fcH
	DB	0f8H
	DB	0ffH
	DB	0f8H
	DB	0fcH
	DB	0f8H
	DB	0ffH
	DB	0f8H
	DB	0fcH
	DB	0f8H
	DB	0ffH
	DB	0f8H
	DB	0fcH
	DB	0f8H
	DB	0ffH
	DB	0f8H
	DB	0fcH
	DB	0f8H
	DB	0ffH
	DB	0f8H
	DB	0fcH
	DB	0f8H
	DB	0ffH
	DB	0f8H
	DB	0fcH
	DB	0f8H
	DB	0ffH
	DB	0f8H
	DB	0fcH
	DB	0f8H
	DB	0ffH
	DB	0f8H
	DB	0fcH
	DB	0f8H
	DB	0ffH
	DB	0f8H
	DB	0fcH
	DB	0f8H
	DB	0ffH
	DB	0f8H
	DB	0fcH
	DB	0f8H
	DB	0ffH
	DB	0f8H
	DB	0fcH
	DB	0f8H
	DB	0ffH
	DB	0f8H
	DB	0fcH
	DB	0f8H
	DB	0ffH
	DB	0f8H
	DB	0fcH
	DB	0f8H
	DB	0ffH
	DB	0f8H
	DB	0fcH
	DB	0f8H
	DB	0ffH
	DB	0f8H
	DB	0fcH
	DB	0f8H
	DB	0ffH
	DB	0f8H
	DB	0fcH
	DB	0f8H
	DB	0ffH
	DB	0f8H
	DB	0fcH
	DB	0f8H
	DB	0ffH
	DB	0f8H
	DB	0fcH
	DB	0f8H
	DB	0ffH
	DB	0f8H
	DB	0fcH
	DB	0f8H
	DB	0ffH
	DB	0f8H
	DB	0fcH
	DB	0f8H
	DB	0ffH
	DB	0f8H
	DB	0fcH
	DB	0f8H
	DB	0ffH
	DB	0f8H
	DB	0fcH
	DB	0f8H
	DB	0ffH
	DB	0f8H
	DB	0fcH
	DB	0f8H
	DB	0ffH
	DB	0f8H
	DB	0fcH
	DB	0f8H
	DB	0ffH
	DB	0f8H
	DB	0fcH
	DB	0f8H
	DB	0f7H
	DB	0f8H
	DB	0fcH
	DB	0f8H
	DB	0ebH
	DB	0f8H
	DB	0fcH
	DB	0f8H
	DB	0cfH
	DB	0f8H
	DB	0fcH
	DB	0f8H
	DB	0aaH
	DB	0f8H
	DB	0fcH
	DB	0f8H
	DB	071H
	DB	0f8H
	DB	0fcH
	DB	0f8H
	DB	02cH
	DB	00H
	DB	00H
	DB	00H
	DB	00H
	DB	00H
	DB	00H
	DB	00H
	DB	00H
	DB	00H
	DB	00H
	DB	00H
	DB	00H
	DB	00H
	DB	00H
	DB	00H
	DB	00H
	DB	00H
	DB	00H
	DB	00H
	DB	00H
	DB	00H
	DB	00H
	DB	00H
	DB	00H
	DB	00H
	DB	00H
	DB	00H
	DB	00H
	DB	00H
	DB	00H
	DB	00H
	DB	00H
	DB	00H
	DB	00H
	DB	00H
	DB	00H
	DB	00H
	DB	00H
	DB	00H
	DB	00H
	DB	00H
	DB	00H
	DB	00H
	DB	00H
	DB	00H
	DB	00H
	DB	00H
	DB	00H
	DB	00H
	DB	00H
	DB	00H
	DB	00H
	DB	00H
	DB	00H
	DB	00H
	DB	00H
	DB	00H
	DB	00H
	DB	00H
	DB	00H
	DB	00H
	DB	00H
	DB	00H
	DB	00H
	DB	00H
	DB	00H
	DB	00H
	DB	00H
	DB	00H
	DB	00H
	DB	00H
	DB	00H
	DB	00H
	DB	00H
	DB	00H
	DB	00H
	DB	00H
	DB	00H
	DB	00H
	DB	00H
	DB	00H
	DB	00H
	DB	00H
	DB	00H
	DB	00H
	DB	00H
	DB	00H
	DB	00H
	DB	00H
	DB	00H
	DB	00H
	DB	00H
	DB	0f8H
	DB	0fcH
	DB	0f8H
	DB	0cH
	DB	0f8H
	DB	0fcH
	DB	0f8H
	DB	071H
	DB	0f8H
	DB	0fcH
	DB	0f8H
	DB	0d3H
	DB	0f8H
	DB	0fcH
	DB	0f8H
	DB	0ffH
	DB	0f8H
	DB	0fcH
	DB	0f8H
	DB	0ffH
	DB	0f8H
	DB	0fcH
	DB	0f8H
	DB	0ffH
	DB	0f8H
	DB	0fcH
	DB	0f8H
	DB	0ffH
	DB	0f8H
	DB	0fcH
	DB	0f8H
	DB	0ffH
	DB	0f8H
	DB	0fcH
	DB	0f8H
	DB	0ffH
	DB	0f8H
	DB	0fcH
	DB	0f8H
	DB	0ffH
	DB	0f8H
	DB	0fcH
	DB	0f8H
	DB	0ffH
	DB	0f8H
	DB	0fcH
	DB	0f8H
	DB	0ffH
	DB	0f8H
	DB	0fcH
	DB	0f8H
	DB	0ffH
	DB	0f8H
	DB	0fcH
	DB	0f8H
	DB	0ffH
	DB	0f8H
	DB	0fcH
	DB	0f8H
	DB	0ffH
	DB	0f8H
	DB	0fcH
	DB	0f8H
	DB	0ffH
	DB	0f8H
	DB	0fcH
	DB	0f8H
	DB	0ffH
	DB	0f8H
	DB	0fcH
	DB	0f8H
	DB	0ffH
	DB	0f8H
	DB	0fcH
	DB	0f8H
	DB	0ffH
	DB	0f8H
	DB	0fcH
	DB	0f8H
	DB	0ffH
	DB	0f8H
	DB	0fcH
	DB	0f8H
	DB	0ffH
	DB	0f8H
	DB	0fcH
	DB	0f8H
	DB	0ffH
	DB	0f8H
	DB	0fcH
	DB	0f8H
	DB	0ffH
	DB	0f8H
	DB	0fcH
	DB	0f8H
	DB	0ffH
	DB	0f8H
	DB	0fcH
	DB	0f8H
	DB	0ffH
	DB	0f8H
	DB	0fcH
	DB	0f8H
	DB	0ffH
	DB	0f8H
	DB	0fcH
	DB	0f8H
	DB	0ffH
	DB	0f8H
	DB	0fcH
	DB	0f8H
	DB	0ffH
	DB	0f8H
	DB	0fcH
	DB	0f8H
	DB	0ffH
	DB	0f8H
	DB	0fcH
	DB	0f8H
	DB	0ffH
	DB	0f8H
	DB	0fcH
	DB	0f8H
	DB	0ffH
	DB	0f8H
	DB	0fcH
	DB	0f8H
	DB	0ffH
	DB	0f8H
	DB	0fcH
	DB	0f8H
	DB	0ffH
	DB	0f8H
	DB	0fcH
	DB	0f8H
	DB	0ffH
	DB	0f8H
	DB	0fcH
	DB	0f8H
	DB	0ffH
	DB	0f8H
	DB	0fcH
	DB	0f8H
	DB	0ffH
	DB	0f8H
	DB	0fcH
	DB	0f8H
	DB	0ffH
	DB	0f8H
	DB	0fcH
	DB	0f8H
	DB	0ffH
	DB	0f8H
	DB	0fcH
	DB	0f8H
	DB	0ffH
	DB	0f8H
	DB	0fcH
	DB	0f8H
	DB	0ffH
	DB	0f8H
	DB	0fcH
	DB	0f8H
	DB	0ffH
	DB	0f8H
	DB	0fcH
	DB	0f8H
	DB	0ffH
	DB	0f8H
	DB	0fcH
	DB	0f8H
	DB	0ffH
	DB	0f8H
	DB	0fcH
	DB	0f8H
	DB	0ffH
	DB	0f8H
	DB	0fcH
	DB	0f8H
	DB	0ffH
	DB	0f8H
	DB	0fcH
	DB	0f8H
	DB	0ffH
	DB	0f8H
	DB	0fcH
	DB	0f8H
	DB	0ffH
	DB	0f8H
	DB	0fcH
	DB	0f8H
	DB	0ffH
	DB	0f8H
	DB	0fcH
	DB	0f8H
	DB	0ffH
	DB	0f8H
	DB	0fcH
	DB	0f8H
	DB	0ffH
	DB	0f8H
	DB	0fcH
	DB	0f8H
	DB	0ffH
	DB	0f8H
	DB	0fcH
	DB	0f8H
	DB	0ffH
	DB	0f8H
	DB	0fcH
	DB	0f8H
	DB	0ffH
	DB	0f8H
	DB	0fcH
	DB	0f8H
	DB	0ffH
	DB	0f8H
	DB	0fcH
	DB	0f8H
	DB	0ffH
	DB	0f8H
	DB	0fcH
	DB	0f8H
	DB	0ffH
	DB	0f8H
	DB	0fcH
	DB	0f8H
	DB	0ffH
	DB	0f8H
	DB	0fcH
	DB	0f8H
	DB	0ffH
	DB	0f8H
	DB	0fcH
	DB	0f8H
	DB	0ffH
	DB	0f8H
	DB	0fcH
	DB	0f8H
	DB	0ffH
	DB	0f8H
	DB	0fcH
	DB	0f8H
	DB	0ffH
	DB	0f8H
	DB	0fcH
	DB	0f8H
	DB	0ffH
	DB	0f8H
	DB	0fcH
	DB	0f8H
	DB	0ffH
	DB	0f8H
	DB	0fcH
	DB	0f8H
	DB	0ffH
	DB	0f8H
	DB	0fcH
	DB	0f8H
	DB	0ffH
	DB	0f8H
	DB	0fcH
	DB	0f8H
	DB	0ffH
	DB	0f8H
	DB	0fcH
	DB	0f8H
	DB	0ffH
	DB	0f8H
	DB	0fcH
	DB	0f8H
	DB	0ffH
	DB	0f8H
	DB	0fcH
	DB	0f8H
	DB	0ffH
	DB	0f8H
	DB	0fcH
	DB	0f8H
	DB	0ffH
	DB	0f8H
	DB	0fcH
	DB	0f8H
	DB	0ffH
	DB	0f8H
	DB	0fcH
	DB	0f8H
	DB	0ffH
	DB	0f8H
	DB	0fcH
	DB	0f8H
	DB	0ffH
	DB	0f8H
	DB	0fcH
	DB	0f8H
	DB	0ffH
	DB	0f8H
	DB	0fcH
	DB	0f8H
	DB	0ffH
	DB	0f8H
	DB	0fcH
	DB	0f8H
	DB	0ffH
	DB	0f8H
	DB	0fcH
	DB	0f8H
	DB	0ffH
	DB	0f8H
	DB	0fcH
	DB	0f8H
	DB	0ffH
	DB	0f8H
	DB	0fcH
	DB	0f8H
	DB	0ffH
	DB	0f8H
	DB	0fcH
	DB	0f8H
	DB	0ffH
	DB	0f8H
	DB	0fcH
	DB	0f8H
	DB	0ffH
	DB	0f8H
	DB	0fcH
	DB	0f8H
	DB	0ffH
	DB	0f8H
	DB	0fcH
	DB	0f8H
	DB	0ffH
	DB	0f8H
	DB	0fcH
	DB	0f8H
	DB	0ffH
	DB	0f8H
	DB	0fcH
	DB	0f8H
	DB	0ffH
	DB	0f8H
	DB	0fcH
	DB	0f8H
	DB	0ffH
	DB	0f8H
	DB	0fcH
	DB	0f8H
	DB	0ffH
	DB	0f8H
	DB	0fcH
	DB	0f8H
	DB	0ffH
	DB	0f8H
	DB	0fcH
	DB	0f8H
	DB	0ffH
	DB	0f8H
	DB	0fcH
	DB	0f8H
	DB	0ffH
	DB	0f8H
	DB	0fcH
	DB	0f8H
	DB	0ffH
	DB	0f8H
	DB	0fcH
	DB	0f8H
	DB	0ffH
	DB	0f8H
	DB	0fcH
	DB	0f8H
	DB	0ffH
	DB	0f8H
	DB	0fcH
	DB	0f8H
	DB	0ffH
	DB	0f8H
	DB	0fcH
	DB	0f8H
	DB	0ffH
	DB	0f8H
	DB	0fcH
	DB	0f8H
	DB	0ffH
	DB	0f8H
	DB	0fcH
	DB	0f8H
	DB	0ffH
	DB	0f8H
	DB	0fcH
	DB	0f8H
	DB	0ffH
	DB	0f8H
	DB	0fcH
	DB	0f8H
	DB	0ffH
	DB	0f8H
	DB	0fcH
	DB	0f8H
	DB	0ffH
	DB	0f8H
	DB	0fcH
	DB	0f8H
	DB	0ffH
	DB	0f8H
	DB	0fcH
	DB	0f8H
	DB	0ffH
	DB	0f8H
	DB	0fcH
	DB	0f8H
	DB	0ffH
	DB	0f8H
	DB	0fcH
	DB	0f8H
	DB	0ffH
	DB	0f8H
	DB	0fcH
	DB	0f8H
	DB	0ffH
	DB	0f8H
	DB	0fcH
	DB	0f8H
	DB	0d3H
	DB	0f8H
	DB	0fcH
	DB	0f8H
	DB	071H
	DB	0f8H
	DB	0fcH
	DB	0f8H
	DB	0cH
	DB	00H
	DB	00H
	DB	00H
	DB	00H
	DB	00H
	DB	00H
	DB	00H
	DB	00H
	DB	00H
	DB	00H
	DB	00H
	DB	00H
	DB	00H
	DB	00H
	DB	00H
	DB	00H
	DB	00H
	DB	00H
	DB	00H
	DB	00H
	DB	00H
	DB	00H
	DB	00H
	DB	00H
	DB	00H
	DB	00H
	DB	00H
	DB	00H
	DB	00H
	DB	00H
	DB	00H
	DB	00H
	DB	00H
	DB	00H
	DB	00H
	DB	00H
	DB	00H
	DB	00H
	DB	00H
	DB	00H
	DB	00H
	DB	00H
	DB	00H
	DB	00H
	DB	00H
	DB	00H
	DB	00H
	DB	00H
	DB	00H
	DB	00H
	DB	00H
	DB	00H
	DB	00H
	DB	00H
	DB	00H
	DB	00H
	DB	00H
	DB	00H
	DB	00H
	DB	00H
	DB	00H
	DB	00H
	DB	00H
	DB	00H
	DB	00H
	DB	00H
	DB	00H
	DB	00H
	DB	00H
	DB	00H
	DB	00H
	DB	00H
	DB	0f8H
	DB	0fcH
	DB	0f8H
	DB	04H
	DB	0f8H
	DB	0fcH
	DB	0f8H
	DB	06dH
	DB	0f8H
	DB	0fcH
	DB	0f8H
	DB	0ebH
	DB	0f8H
	DB	0fcH
	DB	0f8H
	DB	0ffH
	DB	0f8H
	DB	0fcH
	DB	0f8H
	DB	0ffH
	DB	0f8H
	DB	0fcH
	DB	0f8H
	DB	0ffH
	DB	0f8H
	DB	0fcH
	DB	0f8H
	DB	0ffH
	DB	0f8H
	DB	0fcH
	DB	0f8H
	DB	0ffH
	DB	0f8H
	DB	0fcH
	DB	0f8H
	DB	0ffH
	DB	0f8H
	DB	0fcH
	DB	0f8H
	DB	0ffH
	DB	0f8H
	DB	0fcH
	DB	0f8H
	DB	0ffH
	DB	0f8H
	DB	0fcH
	DB	0f8H
	DB	0ffH
	DB	0f8H
	DB	0fcH
	DB	0f8H
	DB	0ffH
	DB	0f8H
	DB	0fcH
	DB	0f8H
	DB	0ffH
	DB	0f8H
	DB	0fcH
	DB	0f8H
	DB	0ffH
	DB	0f8H
	DB	0fcH
	DB	0f8H
	DB	0ffH
	DB	0f8H
	DB	0fcH
	DB	0f8H
	DB	0ffH
	DB	0f8H
	DB	0fcH
	DB	0f8H
	DB	0ffH
	DB	0f8H
	DB	0fcH
	DB	0f8H
	DB	0ffH
	DB	0f8H
	DB	0fcH
	DB	0f8H
	DB	0ffH
	DB	0f8H
	DB	0fcH
	DB	0f8H
	DB	0ffH
	DB	0f8H
	DB	0fcH
	DB	0f8H
	DB	0ffH
	DB	0f8H
	DB	0fcH
	DB	0f8H
	DB	0ffH
	DB	0f8H
	DB	0fcH
	DB	0f8H
	DB	0ffH
	DB	0f8H
	DB	0fcH
	DB	0f8H
	DB	0ffH
	DB	0f8H
	DB	0fcH
	DB	0f8H
	DB	0ffH
	DB	0f8H
	DB	0fcH
	DB	0f8H
	DB	0ffH
	DB	0f8H
	DB	0fcH
	DB	0f8H
	DB	0ffH
	DB	0f8H
	DB	0fcH
	DB	0f8H
	DB	0ffH
	DB	0f8H
	DB	0fcH
	DB	0f8H
	DB	0ffH
	DB	0f8H
	DB	0fcH
	DB	0f8H
	DB	0ffH
	DB	0f8H
	DB	0fcH
	DB	0f8H
	DB	0ffH
	DB	0f8H
	DB	0fcH
	DB	0f8H
	DB	0ffH
	DB	0f8H
	DB	0fcH
	DB	0f8H
	DB	0ffH
	DB	0f8H
	DB	0fcH
	DB	0f8H
	DB	0ffH
	DB	0f8H
	DB	0fcH
	DB	0f8H
	DB	0ffH
	DB	0f8H
	DB	0fcH
	DB	0f8H
	DB	0ffH
	DB	0f8H
	DB	0fcH
	DB	0f8H
	DB	0ffH
	DB	0f8H
	DB	0fcH
	DB	0f8H
	DB	0ffH
	DB	0f8H
	DB	0fcH
	DB	0f8H
	DB	0ffH
	DB	0f8H
	DB	0fcH
	DB	0f8H
	DB	0ffH
	DB	0f8H
	DB	0fcH
	DB	0f8H
	DB	0ffH
	DB	0f8H
	DB	0fcH
	DB	0f8H
	DB	0ffH
	DB	0f8H
	DB	0fcH
	DB	0f8H
	DB	0ffH
	DB	0f8H
	DB	0fcH
	DB	0f8H
	DB	0ffH
	DB	0f8H
	DB	0fcH
	DB	0f8H
	DB	0ffH
	DB	0f8H
	DB	0fcH
	DB	0f8H
	DB	0ffH
	DB	0f8H
	DB	0fcH
	DB	0f8H
	DB	0ffH
	DB	0f8H
	DB	0fcH
	DB	0f8H
	DB	0ffH
	DB	0f8H
	DB	0fcH
	DB	0f8H
	DB	0ffH
	DB	0f8H
	DB	0fcH
	DB	0f8H
	DB	0ffH
	DB	0f8H
	DB	0fcH
	DB	0f8H
	DB	0ffH
	DB	0f8H
	DB	0fcH
	DB	0f8H
	DB	0ffH
	DB	0f8H
	DB	0fcH
	DB	0f8H
	DB	0ffH
	DB	0f8H
	DB	0fcH
	DB	0f8H
	DB	0ffH
	DB	0f8H
	DB	0fcH
	DB	0f8H
	DB	0ffH
	DB	0f8H
	DB	0fcH
	DB	0f8H
	DB	0ffH
	DB	0f8H
	DB	0fcH
	DB	0f8H
	DB	0ffH
	DB	0f8H
	DB	0fcH
	DB	0f8H
	DB	0ffH
	DB	0f8H
	DB	0fcH
	DB	0f8H
	DB	0ffH
	DB	0f8H
	DB	0fcH
	DB	0f8H
	DB	0ffH
	DB	0f8H
	DB	0fcH
	DB	0f8H
	DB	0ffH
	DB	0f8H
	DB	0fcH
	DB	0f8H
	DB	0ffH
	DB	0f8H
	DB	0fcH
	DB	0f8H
	DB	0ffH
	DB	0f8H
	DB	0fcH
	DB	0f8H
	DB	0ffH
	DB	0f8H
	DB	0fcH
	DB	0f8H
	DB	0ffH
	DB	0f8H
	DB	0fcH
	DB	0f8H
	DB	0ffH
	DB	0f8H
	DB	0fcH
	DB	0f8H
	DB	0ffH
	DB	0f8H
	DB	0fcH
	DB	0f8H
	DB	0ffH
	DB	0f8H
	DB	0fcH
	DB	0f8H
	DB	0ffH
	DB	0f8H
	DB	0fcH
	DB	0f8H
	DB	0ffH
	DB	0f8H
	DB	0fcH
	DB	0f8H
	DB	0ffH
	DB	0f8H
	DB	0fcH
	DB	0f8H
	DB	0ffH
	DB	0f8H
	DB	0fcH
	DB	0f8H
	DB	0ffH
	DB	0f8H
	DB	0fcH
	DB	0f8H
	DB	0ffH
	DB	0f8H
	DB	0fcH
	DB	0f8H
	DB	0ffH
	DB	0f8H
	DB	0fcH
	DB	0f8H
	DB	0ffH
	DB	0f8H
	DB	0fcH
	DB	0f8H
	DB	0ffH
	DB	0f8H
	DB	0fcH
	DB	0f8H
	DB	0ffH
	DB	0f8H
	DB	0fcH
	DB	0f8H
	DB	0ffH
	DB	0f8H
	DB	0fcH
	DB	0f8H
	DB	0ffH
	DB	0f8H
	DB	0fcH
	DB	0f8H
	DB	0ffH
	DB	0f8H
	DB	0fcH
	DB	0f8H
	DB	0ffH
	DB	0f8H
	DB	0fcH
	DB	0f8H
	DB	0ffH
	DB	0f8H
	DB	0fcH
	DB	0f8H
	DB	0ffH
	DB	0f8H
	DB	0fcH
	DB	0f8H
	DB	0ffH
	DB	0f8H
	DB	0fcH
	DB	0f8H
	DB	0ffH
	DB	0f8H
	DB	0fcH
	DB	0f8H
	DB	0ffH
	DB	0f8H
	DB	0fcH
	DB	0f8H
	DB	0ffH
	DB	0f8H
	DB	0fcH
	DB	0f8H
	DB	0ffH
	DB	0f8H
	DB	0fcH
	DB	0f8H
	DB	0ffH
	DB	0f8H
	DB	0fcH
	DB	0f8H
	DB	0ffH
	DB	0f8H
	DB	0fcH
	DB	0f8H
	DB	0ffH
	DB	0f8H
	DB	0fcH
	DB	0f8H
	DB	0ffH
	DB	0f8H
	DB	0fcH
	DB	0f8H
	DB	0ffH
	DB	0f8H
	DB	0fcH
	DB	0f8H
	DB	0ffH
	DB	0f8H
	DB	0fcH
	DB	0f8H
	DB	0ffH
	DB	0f8H
	DB	0fcH
	DB	0f8H
	DB	0ffH
	DB	0f8H
	DB	0fcH
	DB	0f8H
	DB	0ffH
	DB	0f8H
	DB	0fcH
	DB	0f8H
	DB	0ffH
	DB	0f8H
	DB	0fcH
	DB	0f8H
	DB	0ffH
	DB	0f8H
	DB	0fcH
	DB	0f8H
	DB	0ffH
	DB	0f8H
	DB	0fcH
	DB	0f8H
	DB	0ffH
	DB	0f8H
	DB	0fcH
	DB	0f8H
	DB	0ffH
	DB	0f8H
	DB	0fcH
	DB	0f8H
	DB	0ffH
	DB	0f8H
	DB	0fcH
	DB	0f8H
	DB	0ffH
	DB	0f8H
	DB	0fcH
	DB	0f8H
	DB	0ffH
	DB	0f8H
	DB	0fcH
	DB	0f8H
	DB	0ffH
	DB	0f8H
	DB	0fcH
	DB	0f8H
	DB	0ffH
	DB	0f8H
	DB	0fcH
	DB	0f8H
	DB	0ebH
	DB	0f8H
	DB	0fcH
	DB	0f8H
	DB	06dH
	DB	0f8H
	DB	0fcH
	DB	0f8H
	DB	04H
	DB	00H
	DB	00H
	DB	00H
	DB	00H
	DB	00H
	DB	00H
	DB	00H
	DB	00H
	DB	00H
	DB	00H
	DB	00H
	DB	00H
	DB	00H
	DB	00H
	DB	00H
	DB	00H
	DB	00H
	DB	00H
	DB	00H
	DB	00H
	DB	00H
	DB	00H
	DB	00H
	DB	00H
	DB	00H
	DB	00H
	DB	00H
	DB	00H
	DB	00H
	DB	00H
	DB	00H
	DB	00H
	DB	00H
	DB	00H
	DB	00H
	DB	00H
	DB	00H
	DB	00H
	DB	00H
	DB	00H
	DB	00H
	DB	00H
	DB	00H
	DB	00H
	DB	00H
	DB	00H
	DB	00H
	DB	00H
	DB	00H
	DB	00H
	DB	00H
	DB	00H
	DB	00H
	DB	00H
	DB	00H
	DB	00H
	DB	00H
	DB	00H
	DB	00H
	DB	00H
	DB	0f8H
	DB	0fcH
	DB	0f8H
	DB	024H
	DB	0f8H
	DB	0fcH
	DB	0f8H
	DB	0cbH
	DB	0f8H
	DB	0fcH
	DB	0f8H
	DB	0ffH
	DB	0f8H
	DB	0fcH
	DB	0f8H
	DB	0ffH
	DB	0f8H
	DB	0fcH
	DB	0f8H
	DB	0ffH
	DB	0f8H
	DB	0fcH
	DB	0f8H
	DB	0ffH
	DB	0f0H
	DB	0f4H
	DB	0f0H
	DB	0ffH
	DB	0a8H
	DB	0a8H
	DB	0a8H
	DB	0ffH
	DB	068H
	DB	068H
	DB	068H
	DB	0ffH
	DB	038H
	DB	038H
	DB	038H
	DB	0ffH
	DB	018H
	DB	014H
	DB	018H
	DB	0ffH
	DB	08H
	DB	08H
	DB	08H
	DB	0ffH
	DB	00H
	DB	00H
	DB	00H
	DB	0ffH
	DB	00H
	DB	00H
	DB	00H
	DB	0ffH
	DB	00H
	DB	00H
	DB	00H
	DB	0ffH
	DB	00H
	DB	00H
	DB	00H
	DB	0ffH
	DB	00H
	DB	00H
	DB	00H
	DB	0ffH
	DB	00H
	DB	00H
	DB	00H
	DB	0ffH
	DB	00H
	DB	00H
	DB	00H
	DB	0ffH
	DB	00H
	DB	00H
	DB	00H
	DB	0ffH
	DB	00H
	DB	00H
	DB	00H
	DB	0ffH
	DB	00H
	DB	00H
	DB	00H
	DB	0ffH
	DB	00H
	DB	00H
	DB	00H
	DB	0ffH
	DB	00H
	DB	00H
	DB	00H
	DB	0ffH
	DB	00H
	DB	00H
	DB	00H
	DB	0ffH
	DB	00H
	DB	00H
	DB	00H
	DB	0ffH
	DB	00H
	DB	00H
	DB	00H
	DB	0ffH
	DB	00H
	DB	00H
	DB	00H
	DB	0ffH
	DB	00H
	DB	00H
	DB	00H
	DB	0ffH
	DB	00H
	DB	00H
	DB	00H
	DB	0ffH
	DB	00H
	DB	00H
	DB	00H
	DB	0ffH
	DB	00H
	DB	00H
	DB	00H
	DB	0ffH
	DB	00H
	DB	00H
	DB	00H
	DB	0ffH
	DB	00H
	DB	00H
	DB	00H
	DB	0ffH
	DB	00H
	DB	00H
	DB	00H
	DB	0ffH
	DB	00H
	DB	00H
	DB	00H
	DB	0ffH
	DB	00H
	DB	00H
	DB	00H
	DB	0ffH
	DB	00H
	DB	00H
	DB	00H
	DB	0ffH
	DB	00H
	DB	00H
	DB	00H
	DB	0ffH
	DB	00H
	DB	00H
	DB	00H
	DB	0ffH
	DB	00H
	DB	00H
	DB	00H
	DB	0ffH
	DB	00H
	DB	00H
	DB	00H
	DB	0ffH
	DB	00H
	DB	00H
	DB	00H
	DB	0ffH
	DB	00H
	DB	00H
	DB	00H
	DB	0ffH
	DB	00H
	DB	00H
	DB	00H
	DB	0ffH
	DB	00H
	DB	00H
	DB	00H
	DB	0ffH
	DB	00H
	DB	00H
	DB	00H
	DB	0ffH
	DB	00H
	DB	00H
	DB	00H
	DB	0ffH
	DB	00H
	DB	00H
	DB	00H
	DB	0ffH
	DB	00H
	DB	00H
	DB	00H
	DB	0ffH
	DB	00H
	DB	00H
	DB	00H
	DB	0ffH
	DB	00H
	DB	00H
	DB	00H
	DB	0ffH
	DB	00H
	DB	00H
	DB	00H
	DB	0ffH
	DB	00H
	DB	00H
	DB	00H
	DB	0ffH
	DB	00H
	DB	00H
	DB	00H
	DB	0ffH
	DB	00H
	DB	00H
	DB	00H
	DB	0ffH
	DB	00H
	DB	00H
	DB	00H
	DB	0ffH
	DB	00H
	DB	00H
	DB	00H
	DB	0ffH
	DB	00H
	DB	00H
	DB	00H
	DB	0ffH
	DB	00H
	DB	00H
	DB	00H
	DB	0ffH
	DB	00H
	DB	00H
	DB	00H
	DB	0ffH
	DB	00H
	DB	00H
	DB	00H
	DB	0ffH
	DB	00H
	DB	00H
	DB	00H
	DB	0ffH
	DB	00H
	DB	00H
	DB	00H
	DB	0ffH
	DB	00H
	DB	00H
	DB	00H
	DB	0ffH
	DB	00H
	DB	00H
	DB	00H
	DB	0ffH
	DB	00H
	DB	00H
	DB	00H
	DB	0ffH
	DB	00H
	DB	00H
	DB	00H
	DB	0ffH
	DB	00H
	DB	00H
	DB	00H
	DB	0ffH
	DB	00H
	DB	00H
	DB	00H
	DB	0ffH
	DB	00H
	DB	00H
	DB	00H
	DB	0ffH
	DB	00H
	DB	00H
	DB	00H
	DB	0ffH
	DB	00H
	DB	00H
	DB	00H
	DB	0ffH
	DB	00H
	DB	00H
	DB	00H
	DB	0ffH
	DB	00H
	DB	00H
	DB	00H
	DB	0ffH
	DB	00H
	DB	00H
	DB	00H
	DB	0ffH
	DB	00H
	DB	00H
	DB	00H
	DB	0ffH
	DB	00H
	DB	00H
	DB	00H
	DB	0ffH
	DB	00H
	DB	00H
	DB	00H
	DB	0ffH
	DB	00H
	DB	00H
	DB	00H
	DB	0ffH
	DB	00H
	DB	00H
	DB	00H
	DB	0ffH
	DB	00H
	DB	00H
	DB	00H
	DB	0ffH
	DB	00H
	DB	00H
	DB	00H
	DB	0ffH
	DB	00H
	DB	00H
	DB	00H
	DB	0ffH
	DB	00H
	DB	00H
	DB	00H
	DB	0ffH
	DB	00H
	DB	00H
	DB	00H
	DB	0ffH
	DB	00H
	DB	00H
	DB	00H
	DB	0ffH
	DB	00H
	DB	00H
	DB	00H
	DB	0ffH
	DB	00H
	DB	00H
	DB	00H
	DB	0ffH
	DB	00H
	DB	00H
	DB	00H
	DB	0ffH
	DB	00H
	DB	00H
	DB	00H
	DB	0ffH
	DB	00H
	DB	00H
	DB	00H
	DB	0ffH
	DB	00H
	DB	00H
	DB	00H
	DB	0ffH
	DB	00H
	DB	00H
	DB	00H
	DB	0ffH
	DB	00H
	DB	00H
	DB	00H
	DB	0ffH
	DB	00H
	DB	00H
	DB	00H
	DB	0ffH
	DB	00H
	DB	00H
	DB	00H
	DB	0ffH
	DB	00H
	DB	00H
	DB	00H
	DB	0ffH
	DB	00H
	DB	00H
	DB	00H
	DB	0ffH
	DB	00H
	DB	00H
	DB	00H
	DB	0ffH
	DB	00H
	DB	00H
	DB	00H
	DB	0ffH
	DB	00H
	DB	00H
	DB	00H
	DB	0ffH
	DB	08H
	DB	08H
	DB	08H
	DB	0ffH
	DB	018H
	DB	014H
	DB	018H
	DB	0ffH
	DB	038H
	DB	038H
	DB	038H
	DB	0ffH
	DB	068H
	DB	068H
	DB	068H
	DB	0ffH
	DB	0a8H
	DB	0a8H
	DB	0a8H
	DB	0ffH
	DB	0f0H
	DB	0f4H
	DB	0f0H
	DB	0ffH
	DB	0f8H
	DB	0fcH
	DB	0f8H
	DB	0ffH
	DB	0f8H
	DB	0fcH
	DB	0f8H
	DB	0ffH
	DB	0f8H
	DB	0fcH
	DB	0f8H
	DB	0ffH
	DB	0f8H
	DB	0fcH
	DB	0f8H
	DB	0ffH
	DB	0f8H
	DB	0fcH
	DB	0f8H
	DB	0cbH
	DB	0f8H
	DB	0fcH
	DB	0f8H
	DB	024H
	DB	00H
	DB	00H
	DB	00H
	DB	00H
	DB	00H
	DB	00H
	DB	00H
	DB	00H
	DB	00H
	DB	00H
	DB	00H
	DB	00H
	DB	00H
	DB	00H
	DB	00H
	DB	00H
	DB	00H
	DB	00H
	DB	00H
	DB	00H
	DB	00H
	DB	00H
	DB	00H
	DB	00H
	DB	00H
	DB	00H
	DB	00H
	DB	00H
	DB	00H
	DB	00H
	DB	00H
	DB	00H
	DB	00H
	DB	00H
	DB	00H
	DB	00H
	DB	00H
	DB	00H
	DB	00H
	DB	00H
	DB	00H
	DB	00H
	DB	00H
	DB	00H
	DB	00H
	DB	00H
	DB	00H
	DB	00H
	DB	00H
	DB	00H
	DB	00H
	DB	00H
	DB	0f8H
	DB	0fcH
	DB	0f8H
	DB	04dH
	DB	0f8H
	DB	0fcH
	DB	0f8H
	DB	0efH
	DB	0f8H
	DB	0fcH
	DB	0f8H
	DB	0ffH
	DB	0f8H
	DB	0fcH
	DB	0f8H
	DB	0ffH
	DB	0f8H
	DB	0fcH
	DB	0f8H
	DB	0ffH
	DB	0d8H
	DB	0dcH
	DB	0d8H
	DB	0ffH
	DB	068H
	DB	064H
	DB	068H
	DB	0ffH
	DB	08H
	DB	0cH
	DB	08H
	DB	0ffH
	DB	00H
	DB	00H
	DB	00H
	DB	0ffH
	DB	00H
	DB	00H
	DB	00H
	DB	0ffH
	DB	00H
	DB	00H
	DB	00H
	DB	0ffH
	DB	00H
	DB	00H
	DB	00H
	DB	0ffH
	DB	00H
	DB	00H
	DB	00H
	DB	0ffH
	DB	00H
	DB	00H
	DB	00H
	DB	0ffH
	DB	00H
	DB	00H
	DB	00H
	DB	0ffH
	DB	00H
	DB	00H
	DB	00H
	DB	0ffH
	DB	00H
	DB	00H
	DB	00H
	DB	0ffH
	DB	00H
	DB	00H
	DB	00H
	DB	0ffH
	DB	00H
	DB	00H
	DB	00H
	DB	0ffH
	DB	00H
	DB	00H
	DB	00H
	DB	0ffH
	DB	00H
	DB	00H
	DB	00H
	DB	0ffH
	DB	00H
	DB	00H
	DB	00H
	DB	0ffH
	DB	00H
	DB	00H
	DB	00H
	DB	0ffH
	DB	00H
	DB	00H
	DB	00H
	DB	0ffH
	DB	00H
	DB	00H
	DB	00H
	DB	0ffH
	DB	00H
	DB	00H
	DB	00H
	DB	0ffH
	DB	00H
	DB	00H
	DB	00H
	DB	0ffH
	DB	00H
	DB	00H
	DB	00H
	DB	0ffH
	DB	00H
	DB	00H
	DB	00H
	DB	0ffH
	DB	00H
	DB	00H
	DB	00H
	DB	0ffH
	DB	00H
	DB	00H
	DB	00H
	DB	0ffH
	DB	00H
	DB	00H
	DB	00H
	DB	0ffH
	DB	00H
	DB	00H
	DB	00H
	DB	0ffH
	DB	00H
	DB	00H
	DB	00H
	DB	0ffH
	DB	00H
	DB	00H
	DB	00H
	DB	0ffH
	DB	00H
	DB	00H
	DB	00H
	DB	0ffH
	DB	00H
	DB	00H
	DB	00H
	DB	0ffH
	DB	00H
	DB	00H
	DB	00H
	DB	0ffH
	DB	00H
	DB	00H
	DB	00H
	DB	0ffH
	DB	00H
	DB	00H
	DB	00H
	DB	0ffH
	DB	00H
	DB	00H
	DB	00H
	DB	0ffH
	DB	00H
	DB	00H
	DB	00H
	DB	0ffH
	DB	00H
	DB	00H
	DB	00H
	DB	0ffH
	DB	00H
	DB	00H
	DB	00H
	DB	0ffH
	DB	00H
	DB	00H
	DB	00H
	DB	0ffH
	DB	00H
	DB	00H
	DB	00H
	DB	0ffH
	DB	00H
	DB	00H
	DB	00H
	DB	0ffH
	DB	00H
	DB	00H
	DB	00H
	DB	0ffH
	DB	00H
	DB	00H
	DB	00H
	DB	0ffH
	DB	00H
	DB	00H
	DB	00H
	DB	0ffH
	DB	00H
	DB	00H
	DB	00H
	DB	0ffH
	DB	00H
	DB	00H
	DB	00H
	DB	0ffH
	DB	00H
	DB	00H
	DB	00H
	DB	0ffH
	DB	00H
	DB	00H
	DB	00H
	DB	0ffH
	DB	00H
	DB	00H
	DB	00H
	DB	0ffH
	DB	00H
	DB	00H
	DB	00H
	DB	0ffH
	DB	00H
	DB	00H
	DB	00H
	DB	0ffH
	DB	00H
	DB	00H
	DB	00H
	DB	0ffH
	DB	00H
	DB	00H
	DB	00H
	DB	0ffH
	DB	00H
	DB	00H
	DB	00H
	DB	0ffH
	DB	00H
	DB	00H
	DB	00H
	DB	0ffH
	DB	00H
	DB	00H
	DB	00H
	DB	0ffH
	DB	00H
	DB	00H
	DB	00H
	DB	0ffH
	DB	00H
	DB	00H
	DB	00H
	DB	0ffH
	DB	00H
	DB	00H
	DB	00H
	DB	0ffH
	DB	00H
	DB	00H
	DB	00H
	DB	0ffH
	DB	00H
	DB	00H
	DB	00H
	DB	0ffH
	DB	00H
	DB	00H
	DB	00H
	DB	0ffH
	DB	00H
	DB	00H
	DB	00H
	DB	0ffH
	DB	00H
	DB	00H
	DB	00H
	DB	0ffH
	DB	00H
	DB	00H
	DB	00H
	DB	0ffH
	DB	00H
	DB	00H
	DB	00H
	DB	0ffH
	DB	00H
	DB	00H
	DB	00H
	DB	0ffH
	DB	00H
	DB	00H
	DB	00H
	DB	0ffH
	DB	00H
	DB	00H
	DB	00H
	DB	0ffH
	DB	00H
	DB	00H
	DB	00H
	DB	0ffH
	DB	00H
	DB	00H
	DB	00H
	DB	0ffH
	DB	00H
	DB	00H
	DB	00H
	DB	0ffH
	DB	00H
	DB	00H
	DB	00H
	DB	0ffH
	DB	00H
	DB	00H
	DB	00H
	DB	0ffH
	DB	00H
	DB	00H
	DB	00H
	DB	0ffH
	DB	00H
	DB	00H
	DB	00H
	DB	0ffH
	DB	00H
	DB	00H
	DB	00H
	DB	0ffH
	DB	00H
	DB	00H
	DB	00H
	DB	0ffH
	DB	00H
	DB	00H
	DB	00H
	DB	0ffH
	DB	00H
	DB	00H
	DB	00H
	DB	0ffH
	DB	00H
	DB	00H
	DB	00H
	DB	0ffH
	DB	00H
	DB	00H
	DB	00H
	DB	0ffH
	DB	00H
	DB	00H
	DB	00H
	DB	0ffH
	DB	00H
	DB	00H
	DB	00H
	DB	0ffH
	DB	00H
	DB	00H
	DB	00H
	DB	0ffH
	DB	00H
	DB	00H
	DB	00H
	DB	0ffH
	DB	00H
	DB	00H
	DB	00H
	DB	0ffH
	DB	00H
	DB	00H
	DB	00H
	DB	0ffH
	DB	00H
	DB	00H
	DB	00H
	DB	0ffH
	DB	00H
	DB	00H
	DB	00H
	DB	0ffH
	DB	00H
	DB	00H
	DB	00H
	DB	0ffH
	DB	00H
	DB	00H
	DB	00H
	DB	0ffH
	DB	00H
	DB	00H
	DB	00H
	DB	0ffH
	DB	00H
	DB	00H
	DB	00H
	DB	0ffH
	DB	00H
	DB	00H
	DB	00H
	DB	0ffH
	DB	00H
	DB	00H
	DB	00H
	DB	0ffH
	DB	00H
	DB	00H
	DB	00H
	DB	0ffH
	DB	00H
	DB	00H
	DB	00H
	DB	0ffH
	DB	00H
	DB	00H
	DB	00H
	DB	0ffH
	DB	00H
	DB	00H
	DB	00H
	DB	0ffH
	DB	00H
	DB	00H
	DB	00H
	DB	0ffH
	DB	00H
	DB	00H
	DB	00H
	DB	0ffH
	DB	08H
	DB	0cH
	DB	08H
	DB	0ffH
	DB	068H
	DB	064H
	DB	068H
	DB	0ffH
	DB	0d8H
	DB	0dcH
	DB	0d8H
	DB	0ffH
	DB	0f8H
	DB	0fcH
	DB	0f8H
	DB	0ffH
	DB	0f8H
	DB	0fcH
	DB	0f8H
	DB	0ffH
	DB	0f8H
	DB	0fcH
	DB	0f8H
	DB	0ffH
	DB	0f8H
	DB	0fcH
	DB	0f8H
	DB	0f3H
	DB	0f8H
	DB	0fcH
	DB	0f8H
	DB	04dH
	DB	00H
	DB	00H
	DB	00H
	DB	00H
	DB	00H
	DB	00H
	DB	00H
	DB	00H
	DB	00H
	DB	00H
	DB	00H
	DB	00H
	DB	00H
	DB	00H
	DB	00H
	DB	00H
	DB	00H
	DB	00H
	DB	00H
	DB	00H
	DB	00H
	DB	00H
	DB	00H
	DB	00H
	DB	00H
	DB	00H
	DB	00H
	DB	00H
	DB	00H
	DB	00H
	DB	00H
	DB	00H
	DB	00H
	DB	00H
	DB	00H
	DB	00H
	DB	00H
	DB	00H
	DB	00H
	DB	00H
	DB	00H
	DB	00H
	DB	00H
	DB	00H
	DB	0f8H
	DB	0fcH
	DB	0f8H
	DB	059H
	DB	0f8H
	DB	0fcH
	DB	0f8H
	DB	0fbH
	DB	0f8H
	DB	0fcH
	DB	0f8H
	DB	0ffH
	DB	0f8H
	DB	0fcH
	DB	0f8H
	DB	0ffH
	DB	0f8H
	DB	0f8H
	DB	0f8H
	DB	0ffH
	DB	078H
	DB	078H
	DB	078H
	DB	0ffH
	DB	08H
	DB	04H
	DB	08H
	DB	0ffH
	DB	00H
	DB	00H
	DB	00H
	DB	0ffH
	DB	00H
	DB	00H
	DB	00H
	DB	0ffH
	DB	00H
	DB	00H
	DB	00H
	DB	0ffH
	DB	00H
	DB	00H
	DB	00H
	DB	0ffH
	DB	00H
	DB	00H
	DB	00H
	DB	0ffH
	DB	00H
	DB	00H
	DB	00H
	DB	0ffH
	DB	00H
	DB	00H
	DB	00H
	DB	0ffH
	DB	00H
	DB	00H
	DB	00H
	DB	0ffH
	DB	00H
	DB	00H
	DB	00H
	DB	0ffH
	DB	00H
	DB	00H
	DB	00H
	DB	0ffH
	DB	00H
	DB	00H
	DB	00H
	DB	0ffH
	DB	00H
	DB	00H
	DB	00H
	DB	0ffH
	DB	00H
	DB	00H
	DB	00H
	DB	0ffH
	DB	00H
	DB	00H
	DB	00H
	DB	0ffH
	DB	00H
	DB	00H
	DB	00H
	DB	0ffH
	DB	00H
	DB	00H
	DB	00H
	DB	0ffH
	DB	00H
	DB	00H
	DB	00H
	DB	0ffH
	DB	00H
	DB	00H
	DB	00H
	DB	0ffH
	DB	00H
	DB	00H
	DB	00H
	DB	0ffH
	DB	00H
	DB	00H
	DB	00H
	DB	0ffH
	DB	00H
	DB	00H
	DB	00H
	DB	0ffH
	DB	00H
	DB	00H
	DB	00H
	DB	0ffH
	DB	00H
	DB	00H
	DB	00H
	DB	0ffH
	DB	00H
	DB	00H
	DB	00H
	DB	0ffH
	DB	00H
	DB	00H
	DB	00H
	DB	0ffH
	DB	00H
	DB	00H
	DB	00H
	DB	0ffH
	DB	00H
	DB	00H
	DB	00H
	DB	0ffH
	DB	00H
	DB	00H
	DB	00H
	DB	0ffH
	DB	00H
	DB	00H
	DB	00H
	DB	0ffH
	DB	00H
	DB	00H
	DB	00H
	DB	0ffH
	DB	00H
	DB	00H
	DB	00H
	DB	0ffH
	DB	00H
	DB	00H
	DB	00H
	DB	0ffH
	DB	00H
	DB	00H
	DB	00H
	DB	0ffH
	DB	00H
	DB	00H
	DB	00H
	DB	0ffH
	DB	00H
	DB	00H
	DB	00H
	DB	0ffH
	DB	00H
	DB	00H
	DB	00H
	DB	0ffH
	DB	00H
	DB	00H
	DB	00H
	DB	0ffH
	DB	00H
	DB	00H
	DB	00H
	DB	0ffH
	DB	00H
	DB	00H
	DB	00H
	DB	0ffH
	DB	00H
	DB	00H
	DB	00H
	DB	0ffH
	DB	00H
	DB	00H
	DB	00H
	DB	0ffH
	DB	00H
	DB	00H
	DB	00H
	DB	0ffH
	DB	00H
	DB	00H
	DB	00H
	DB	0ffH
	DB	00H
	DB	00H
	DB	00H
	DB	0ffH
	DB	00H
	DB	00H
	DB	00H
	DB	0ffH
	DB	00H
	DB	00H
	DB	00H
	DB	0ffH
	DB	00H
	DB	00H
	DB	00H
	DB	0ffH
	DB	00H
	DB	00H
	DB	00H
	DB	0ffH
	DB	00H
	DB	00H
	DB	00H
	DB	0ffH
	DB	00H
	DB	00H
	DB	00H
	DB	0ffH
	DB	00H
	DB	00H
	DB	00H
	DB	0ffH
	DB	00H
	DB	00H
	DB	00H
	DB	0ffH
	DB	00H
	DB	00H
	DB	00H
	DB	0ffH
	DB	00H
	DB	00H
	DB	00H
	DB	0ffH
	DB	00H
	DB	00H
	DB	00H
	DB	0ffH
	DB	00H
	DB	00H
	DB	00H
	DB	0ffH
	DB	00H
	DB	00H
	DB	00H
	DB	0ffH
	DB	00H
	DB	00H
	DB	00H
	DB	0ffH
	DB	00H
	DB	00H
	DB	00H
	DB	0ffH
	DB	00H
	DB	00H
	DB	00H
	DB	0ffH
	DB	00H
	DB	00H
	DB	00H
	DB	0ffH
	DB	00H
	DB	00H
	DB	00H
	DB	0ffH
	DB	00H
	DB	00H
	DB	00H
	DB	0ffH
	DB	00H
	DB	00H
	DB	00H
	DB	0ffH
	DB	00H
	DB	00H
	DB	00H
	DB	0ffH
	DB	00H
	DB	00H
	DB	00H
	DB	0ffH
	DB	00H
	DB	00H
	DB	00H
	DB	0ffH
	DB	00H
	DB	00H
	DB	00H
	DB	0ffH
	DB	00H
	DB	00H
	DB	00H
	DB	0ffH
	DB	00H
	DB	00H
	DB	00H
	DB	0ffH
	DB	00H
	DB	00H
	DB	00H
	DB	0ffH
	DB	00H
	DB	00H
	DB	00H
	DB	0ffH
	DB	00H
	DB	00H
	DB	00H
	DB	0ffH
	DB	00H
	DB	00H
	DB	00H
	DB	0ffH
	DB	00H
	DB	00H
	DB	00H
	DB	0ffH
	DB	00H
	DB	00H
	DB	00H
	DB	0ffH
	DB	00H
	DB	00H
	DB	00H
	DB	0ffH
	DB	00H
	DB	00H
	DB	00H
	DB	0ffH
	DB	00H
	DB	00H
	DB	00H
	DB	0ffH
	DB	00H
	DB	00H
	DB	00H
	DB	0ffH
	DB	00H
	DB	00H
	DB	00H
	DB	0ffH
	DB	00H
	DB	00H
	DB	00H
	DB	0ffH
	DB	00H
	DB	00H
	DB	00H
	DB	0ffH
	DB	00H
	DB	00H
	DB	00H
	DB	0ffH
	DB	00H
	DB	00H
	DB	00H
	DB	0ffH
	DB	00H
	DB	00H
	DB	00H
	DB	0ffH
	DB	00H
	DB	00H
	DB	00H
	DB	0ffH
	DB	00H
	DB	00H
	DB	00H
	DB	0ffH
	DB	00H
	DB	00H
	DB	00H
	DB	0ffH
	DB	00H
	DB	00H
	DB	00H
	DB	0ffH
	DB	00H
	DB	00H
	DB	00H
	DB	0ffH
	DB	00H
	DB	00H
	DB	00H
	DB	0ffH
	DB	00H
	DB	00H
	DB	00H
	DB	0ffH
	DB	00H
	DB	00H
	DB	00H
	DB	0ffH
	DB	00H
	DB	00H
	DB	00H
	DB	0ffH
	DB	00H
	DB	00H
	DB	00H
	DB	0ffH
	DB	00H
	DB	00H
	DB	00H
	DB	0ffH
	DB	00H
	DB	00H
	DB	00H
	DB	0ffH
	DB	00H
	DB	00H
	DB	00H
	DB	0ffH
	DB	00H
	DB	00H
	DB	00H
	DB	0ffH
	DB	00H
	DB	00H
	DB	00H
	DB	0ffH
	DB	00H
	DB	00H
	DB	00H
	DB	0ffH
	DB	00H
	DB	00H
	DB	00H
	DB	0ffH
	DB	00H
	DB	00H
	DB	00H
	DB	0ffH
	DB	08H
	DB	04H
	DB	08H
	DB	0ffH
	DB	078H
	DB	074H
	DB	078H
	DB	0ffH
	DB	0f8H
	DB	0f8H
	DB	0f8H
	DB	0ffH
	DB	0f8H
	DB	0fcH
	DB	0f8H
	DB	0ffH
	DB	0f8H
	DB	0fcH
	DB	0f8H
	DB	0ffH
	DB	0f8H
	DB	0fcH
	DB	0f8H
	DB	0fbH
	DB	0f8H
	DB	0fcH
	DB	0f8H
	DB	05dH
	DB	00H
	DB	00H
	DB	00H
	DB	00H
	DB	00H
	DB	00H
	DB	00H
	DB	00H
	DB	00H
	DB	00H
	DB	00H
	DB	00H
	DB	00H
	DB	00H
	DB	00H
	DB	00H
	DB	00H
	DB	00H
	DB	00H
	DB	00H
	DB	00H
	DB	00H
	DB	00H
	DB	00H
	DB	00H
	DB	00H
	DB	00H
	DB	00H
	DB	00H
	DB	00H
	DB	00H
	DB	00H
	DB	00H
	DB	00H
	DB	00H
	DB	00H
	DB	0f8H
	DB	0fcH
	DB	0f8H
	DB	04dH
	DB	0f8H
	DB	0fcH
	DB	0f8H
	DB	0fbH
	DB	0f8H
	DB	0fcH
	DB	0f8H
	DB	0ffH
	DB	0f8H
	DB	0fcH
	DB	0f8H
	DB	0ffH
	DB	0d8H
	DB	0dcH
	DB	0d8H
	DB	0ffH
	DB	030H
	DB	030H
	DB	030H
	DB	0ffH
	DB	00H
	DB	00H
	DB	00H
	DB	0ffH
	DB	00H
	DB	00H
	DB	00H
	DB	0ffH
	DB	00H
	DB	00H
	DB	00H
	DB	0ffH
	DB	00H
	DB	00H
	DB	00H
	DB	0ffH
	DB	08H
	DB	08H
	DB	00H
	DB	0ffH
	DB	028H
	DB	01cH
	DB	00H
	DB	0ffH
	DB	040H
	DB	02cH
	DB	00H
	DB	0ffH
	DB	050H
	DB	038H
	DB	00H
	DB	0ffH
	DB	058H
	DB	040H
	DB	00H
	DB	0ffH
	DB	058H
	DB	040H
	DB	00H
	DB	0ffH
	DB	058H
	DB	040H
	DB	00H
	DB	0ffH
	DB	058H
	DB	044H
	DB	00H
	DB	0ffH
	DB	058H
	DB	040H
	DB	00H
	DB	0ffH
	DB	058H
	DB	040H
	DB	00H
	DB	0ffH
	DB	058H
	DB	044H
	DB	00H
	DB	0ffH
	DB	058H
	DB	040H
	DB	00H
	DB	0ffH
	DB	058H
	DB	040H
	DB	00H
	DB	0ffH
	DB	058H
	DB	044H
	DB	00H
	DB	0ffH
	DB	058H
	DB	040H
	DB	00H
	DB	0ffH
	DB	058H
	DB	040H
	DB	00H
	DB	0ffH
	DB	058H
	DB	044H
	DB	00H
	DB	0ffH
	DB	058H
	DB	040H
	DB	00H
	DB	0ffH
	DB	058H
	DB	040H
	DB	00H
	DB	0ffH
	DB	058H
	DB	044H
	DB	00H
	DB	0ffH
	DB	058H
	DB	040H
	DB	00H
	DB	0ffH
	DB	058H
	DB	040H
	DB	00H
	DB	0ffH
	DB	058H
	DB	044H
	DB	00H
	DB	0ffH
	DB	058H
	DB	040H
	DB	00H
	DB	0ffH
	DB	058H
	DB	040H
	DB	00H
	DB	0ffH
	DB	058H
	DB	044H
	DB	00H
	DB	0ffH
	DB	058H
	DB	040H
	DB	00H
	DB	0ffH
	DB	058H
	DB	040H
	DB	00H
	DB	0ffH
	DB	058H
	DB	044H
	DB	00H
	DB	0ffH
	DB	058H
	DB	040H
	DB	00H
	DB	0ffH
	DB	058H
	DB	040H
	DB	00H
	DB	0ffH
	DB	058H
	DB	044H
	DB	00H
	DB	0ffH
	DB	058H
	DB	040H
	DB	00H
	DB	0ffH
	DB	058H
	DB	040H
	DB	00H
	DB	0ffH
	DB	058H
	DB	044H
	DB	00H
	DB	0ffH
	DB	058H
	DB	040H
	DB	00H
	DB	0ffH
	DB	058H
	DB	040H
	DB	00H
	DB	0ffH
	DB	058H
	DB	044H
	DB	00H
	DB	0ffH
	DB	058H
	DB	040H
	DB	00H
	DB	0ffH
	DB	058H
	DB	040H
	DB	00H
	DB	0ffH
	DB	058H
	DB	044H
	DB	00H
	DB	0ffH
	DB	058H
	DB	040H
	DB	00H
	DB	0ffH
	DB	058H
	DB	040H
	DB	00H
	DB	0ffH
	DB	058H
	DB	044H
	DB	00H
	DB	0ffH
	DB	058H
	DB	040H
	DB	00H
	DB	0ffH
	DB	058H
	DB	040H
	DB	00H
	DB	0ffH
	DB	058H
	DB	044H
	DB	00H
	DB	0ffH
	DB	058H
	DB	040H
	DB	00H
	DB	0ffH
	DB	050H
	DB	03cH
	DB	00H
	DB	0ffH
	DB	00H
	DB	00H
	DB	00H
	DB	0ffH
	DB	00H
	DB	00H
	DB	00H
	DB	0ffH
	DB	0d8H
	DB	0d8H
	DB	0d8H
	DB	0ffH
	DB	0d8H
	DB	0d8H
	DB	0d8H
	DB	0ffH
	DB	0d8H
	DB	0d8H
	DB	0d8H
	DB	0ffH
	DB	0d8H
	DB	0d8H
	DB	0d8H
	DB	0ffH
	DB	0d8H
	DB	0d8H
	DB	0d8H
	DB	0ffH
	DB	0d8H
	DB	0d8H
	DB	0d8H
	DB	0ffH
	DB	0d8H
	DB	0d8H
	DB	0d8H
	DB	0ffH
	DB	0d8H
	DB	0d8H
	DB	0d8H
	DB	0ffH
	DB	0d8H
	DB	0d8H
	DB	0d8H
	DB	0ffH
	DB	0d8H
	DB	0d8H
	DB	0d8H
	DB	0ffH
	DB	0d8H
	DB	0d8H
	DB	0d8H
	DB	0ffH
	DB	0d8H
	DB	0d8H
	DB	0d8H
	DB	0ffH
	DB	0d8H
	DB	0d8H
	DB	0d8H
	DB	0ffH
	DB	0d8H
	DB	0d8H
	DB	0d8H
	DB	0ffH
	DB	0d8H
	DB	0d8H
	DB	0d8H
	DB	0ffH
	DB	0d8H
	DB	0d8H
	DB	0d8H
	DB	0ffH
	DB	0d8H
	DB	0d8H
	DB	0d8H
	DB	0ffH
	DB	0d8H
	DB	0d8H
	DB	0d8H
	DB	0ffH
	DB	0d8H
	DB	0d8H
	DB	0d8H
	DB	0ffH
	DB	0d8H
	DB	0d8H
	DB	0d8H
	DB	0ffH
	DB	0d8H
	DB	0d8H
	DB	0d8H
	DB	0ffH
	DB	0d8H
	DB	0d8H
	DB	0d8H
	DB	0ffH
	DB	0d8H
	DB	0d8H
	DB	0d8H
	DB	0ffH
	DB	0d8H
	DB	0d8H
	DB	0d8H
	DB	0ffH
	DB	0d8H
	DB	0d8H
	DB	0d8H
	DB	0ffH
	DB	0d8H
	DB	0d8H
	DB	0d8H
	DB	0ffH
	DB	0d8H
	DB	0d8H
	DB	0d8H
	DB	0ffH
	DB	0d8H
	DB	0d8H
	DB	0d8H
	DB	0ffH
	DB	0d8H
	DB	0d8H
	DB	0d8H
	DB	0ffH
	DB	0d8H
	DB	0d8H
	DB	0d8H
	DB	0ffH
	DB	0d8H
	DB	0d8H
	DB	0d8H
	DB	0ffH
	DB	0d8H
	DB	0d8H
	DB	0d8H
	DB	0ffH
	DB	0d8H
	DB	0d8H
	DB	0d8H
	DB	0ffH
	DB	0d8H
	DB	0d8H
	DB	0d8H
	DB	0ffH
	DB	0d8H
	DB	0d8H
	DB	0d8H
	DB	0ffH
	DB	0d8H
	DB	0d8H
	DB	0d8H
	DB	0ffH
	DB	0d8H
	DB	0d8H
	DB	0d8H
	DB	0ffH
	DB	0d8H
	DB	0d8H
	DB	0d8H
	DB	0ffH
	DB	0d8H
	DB	0d8H
	DB	0d8H
	DB	0ffH
	DB	0d8H
	DB	0d8H
	DB	0d8H
	DB	0ffH
	DB	0d8H
	DB	0d8H
	DB	0d8H
	DB	0ffH
	DB	0d8H
	DB	0d8H
	DB	0d8H
	DB	0ffH
	DB	0d8H
	DB	0d8H
	DB	0d8H
	DB	0ffH
	DB	0d8H
	DB	0d8H
	DB	0d8H
	DB	0ffH
	DB	0d0H
	DB	0d0H
	DB	0d0H
	DB	0ffH
	DB	0c0H
	DB	0c0H
	DB	0c0H
	DB	0ffH
	DB	0a0H
	DB	0a0H
	DB	0a0H
	DB	0ffH
	DB	060H
	DB	064H
	DB	060H
	DB	0ffH
	DB	020H
	DB	020H
	DB	020H
	DB	0ffH
	DB	00H
	DB	00H
	DB	00H
	DB	0ffH
	DB	00H
	DB	00H
	DB	00H
	DB	0ffH
	DB	00H
	DB	00H
	DB	00H
	DB	0ffH
	DB	00H
	DB	00H
	DB	00H
	DB	0ffH
	DB	030H
	DB	030H
	DB	030H
	DB	0ffH
	DB	0d8H
	DB	0dcH
	DB	0d8H
	DB	0ffH
	DB	0f8H
	DB	0fcH
	DB	0f8H
	DB	0ffH
	DB	0f8H
	DB	0fcH
	DB	0f8H
	DB	0ffH
	DB	0f8H
	DB	0fcH
	DB	0f8H
	DB	0fbH
	DB	0f8H
	DB	0fcH
	DB	0f8H
	DB	04dH
	DB	00H
	DB	00H
	DB	00H
	DB	00H
	DB	00H
	DB	00H
	DB	00H
	DB	00H
	DB	00H
	DB	00H
	DB	00H
	DB	00H
	DB	00H
	DB	00H
	DB	00H
	DB	00H
	DB	00H
	DB	00H
	DB	00H
	DB	00H
	DB	00H
	DB	00H
	DB	00H
	DB	00H
	DB	00H
	DB	00H
	DB	00H
	DB	00H
	DB	0f8H
	DB	0fcH
	DB	0f8H
	DB	028H
	DB	0f8H
	DB	0fcH
	DB	0f8H
	DB	0f3H
	DB	0f8H
	DB	0fcH
	DB	0f8H
	DB	0ffH
	DB	0f8H
	DB	0fcH
	DB	0f8H
	DB	0ffH
	DB	0d0H
	DB	0ccH
	DB	0d0H
	DB	0ffH
	DB	018H
	DB	018H
	DB	018H
	DB	0ffH
	DB	00H
	DB	00H
	DB	00H
	DB	0ffH
	DB	00H
	DB	00H
	DB	00H
	DB	0ffH
	DB	00H
	DB	00H
	DB	00H
	DB	0ffH
	DB	010H
	DB	010H
	DB	00H
	DB	0ffH
	DB	040H
	DB	030H
	DB	00H
	DB	0ffH
	DB	058H
	DB	044H
	DB	00H
	DB	0ffH
	DB	060H
	DB	048H
	DB	00H
	DB	0ffH
	DB	060H
	DB	048H
	DB	00H
	DB	0ffH
	DB	068H
	DB	04cH
	DB	00H
	DB	0ffH
	DB	068H
	DB	04cH
	DB	00H
	DB	0ffH
	DB	068H
	DB	04cH
	DB	00H
	DB	0ffH
	DB	068H
	DB	04cH
	DB	00H
	DB	0ffH
	DB	068H
	DB	04cH
	DB	00H
	DB	0ffH
	DB	068H
	DB	04cH
	DB	00H
	DB	0ffH
	DB	068H
	DB	04cH
	DB	00H
	DB	0ffH
	DB	068H
	DB	04cH
	DB	00H
	DB	0ffH
	DB	068H
	DB	04cH
	DB	00H
	DB	0ffH
	DB	068H
	DB	04cH
	DB	00H
	DB	0ffH
	DB	068H
	DB	04cH
	DB	00H
	DB	0ffH
	DB	068H
	DB	04cH
	DB	00H
	DB	0ffH
	DB	068H
	DB	04cH
	DB	00H
	DB	0ffH
	DB	068H
	DB	04cH
	DB	00H
	DB	0ffH
	DB	068H
	DB	04cH
	DB	00H
	DB	0ffH
	DB	068H
	DB	04cH
	DB	00H
	DB	0ffH
	DB	068H
	DB	04cH
	DB	00H
	DB	0ffH
	DB	068H
	DB	04cH
	DB	00H
	DB	0ffH
	DB	068H
	DB	04cH
	DB	00H
	DB	0ffH
	DB	068H
	DB	04cH
	DB	00H
	DB	0ffH
	DB	068H
	DB	04cH
	DB	00H
	DB	0ffH
	DB	068H
	DB	04cH
	DB	00H
	DB	0ffH
	DB	068H
	DB	04cH
	DB	00H
	DB	0ffH
	DB	068H
	DB	04cH
	DB	00H
	DB	0ffH
	DB	068H
	DB	04cH
	DB	00H
	DB	0ffH
	DB	068H
	DB	04cH
	DB	00H
	DB	0ffH
	DB	068H
	DB	04cH
	DB	00H
	DB	0ffH
	DB	068H
	DB	04cH
	DB	00H
	DB	0ffH
	DB	068H
	DB	04cH
	DB	00H
	DB	0ffH
	DB	068H
	DB	04cH
	DB	00H
	DB	0ffH
	DB	068H
	DB	04cH
	DB	00H
	DB	0ffH
	DB	068H
	DB	04cH
	DB	00H
	DB	0ffH
	DB	068H
	DB	04cH
	DB	00H
	DB	0ffH
	DB	068H
	DB	04cH
	DB	00H
	DB	0ffH
	DB	068H
	DB	04cH
	DB	00H
	DB	0ffH
	DB	068H
	DB	04cH
	DB	00H
	DB	0ffH
	DB	068H
	DB	04cH
	DB	00H
	DB	0ffH
	DB	068H
	DB	04cH
	DB	00H
	DB	0ffH
	DB	068H
	DB	04cH
	DB	00H
	DB	0ffH
	DB	068H
	DB	04cH
	DB	00H
	DB	0ffH
	DB	068H
	DB	04cH
	DB	00H
	DB	0ffH
	DB	068H
	DB	04cH
	DB	00H
	DB	0ffH
	DB	068H
	DB	04cH
	DB	00H
	DB	0ffH
	DB	068H
	DB	04cH
	DB	00H
	DB	0ffH
	DB	060H
	DB	048H
	DB	00H
	DB	0ffH
	DB	058H
	DB	040H
	DB	00H
	DB	0ffH
	DB	00H
	DB	00H
	DB	00H
	DB	0ffH
	DB	00H
	DB	00H
	DB	00H
	DB	0ffH
	DB	0d8H
	DB	0d8H
	DB	0d8H
	DB	0ffH
	DB	0d8H
	DB	0d4H
	DB	0d8H
	DB	0ffH
	DB	0d8H
	DB	0d8H
	DB	0d8H
	DB	0ffH
	DB	0d8H
	DB	0d4H
	DB	0d8H
	DB	0ffH
	DB	0d8H
	DB	0d8H
	DB	0d8H
	DB	0ffH
	DB	0d8H
	DB	0d4H
	DB	0d8H
	DB	0ffH
	DB	0d8H
	DB	0d8H
	DB	0d8H
	DB	0ffH
	DB	0d8H
	DB	0d4H
	DB	0d8H
	DB	0ffH
	DB	0d8H
	DB	0d8H
	DB	0d8H
	DB	0ffH
	DB	0d8H
	DB	0d4H
	DB	0d8H
	DB	0ffH
	DB	0d8H
	DB	0d8H
	DB	0d8H
	DB	0ffH
	DB	0d8H
	DB	0d4H
	DB	0d8H
	DB	0ffH
	DB	0d8H
	DB	0d8H
	DB	0d8H
	DB	0ffH
	DB	0d8H
	DB	0d4H
	DB	0d8H
	DB	0ffH
	DB	0d8H
	DB	0d8H
	DB	0d8H
	DB	0ffH
	DB	0d8H
	DB	0d4H
	DB	0d8H
	DB	0ffH
	DB	0d8H
	DB	0d8H
	DB	0d8H
	DB	0ffH
	DB	0d8H
	DB	0d4H
	DB	0d8H
	DB	0ffH
	DB	0d8H
	DB	0d8H
	DB	0d8H
	DB	0ffH
	DB	0d8H
	DB	0d4H
	DB	0d8H
	DB	0ffH
	DB	0d8H
	DB	0d8H
	DB	0d8H
	DB	0ffH
	DB	0d8H
	DB	0d4H
	DB	0d8H
	DB	0ffH
	DB	0d8H
	DB	0d8H
	DB	0d8H
	DB	0ffH
	DB	0d8H
	DB	0d4H
	DB	0d8H
	DB	0ffH
	DB	0d8H
	DB	0d8H
	DB	0d8H
	DB	0ffH
	DB	0d8H
	DB	0d4H
	DB	0d8H
	DB	0ffH
	DB	0d8H
	DB	0d8H
	DB	0d8H
	DB	0ffH
	DB	0d8H
	DB	0d4H
	DB	0d8H
	DB	0ffH
	DB	0d8H
	DB	0d8H
	DB	0d8H
	DB	0ffH
	DB	0d8H
	DB	0d4H
	DB	0d8H
	DB	0ffH
	DB	0d8H
	DB	0d8H
	DB	0d8H
	DB	0ffH
	DB	0d8H
	DB	0d4H
	DB	0d8H
	DB	0ffH
	DB	0d8H
	DB	0d8H
	DB	0d8H
	DB	0ffH
	DB	0d8H
	DB	0d4H
	DB	0d8H
	DB	0ffH
	DB	0d8H
	DB	0d8H
	DB	0d8H
	DB	0ffH
	DB	0d8H
	DB	0d4H
	DB	0d8H
	DB	0ffH
	DB	0d8H
	DB	0d8H
	DB	0d8H
	DB	0ffH
	DB	0d8H
	DB	0d4H
	DB	0d8H
	DB	0ffH
	DB	0d8H
	DB	0d8H
	DB	0d8H
	DB	0ffH
	DB	0d8H
	DB	0d4H
	DB	0d8H
	DB	0ffH
	DB	0d8H
	DB	0d8H
	DB	0d8H
	DB	0ffH
	DB	0d8H
	DB	0d4H
	DB	0d8H
	DB	0ffH
	DB	0d8H
	DB	0d8H
	DB	0d8H
	DB	0ffH
	DB	0d8H
	DB	0d8H
	DB	0d8H
	DB	0ffH
	DB	0d8H
	DB	0d8H
	DB	0d8H
	DB	0ffH
	DB	0d8H
	DB	0d8H
	DB	0d8H
	DB	0ffH
	DB	0d8H
	DB	0d8H
	DB	0d8H
	DB	0ffH
	DB	0d8H
	DB	0d4H
	DB	0d8H
	DB	0ffH
	DB	0d8H
	DB	0d8H
	DB	0d8H
	DB	0ffH
	DB	0a0H
	DB	0a4H
	DB	0a0H
	DB	0ffH
	DB	038H
	DB	034H
	DB	038H
	DB	0ffH
	DB	00H
	DB	00H
	DB	00H
	DB	0ffH
	DB	00H
	DB	00H
	DB	00H
	DB	0ffH
	DB	00H
	DB	00H
	DB	00H
	DB	0ffH
	DB	018H
	DB	018H
	DB	018H
	DB	0ffH
	DB	0d0H
	DB	0ccH
	DB	0d0H
	DB	0ffH
	DB	0f8H
	DB	0fcH
	DB	0f8H
	DB	0ffH
	DB	0f8H
	DB	0fcH
	DB	0f8H
	DB	0ffH
	DB	0f8H
	DB	0fcH
	DB	0f8H
	DB	0f3H
	DB	0f8H
	DB	0fcH
	DB	0f8H
	DB	028H
	DB	00H
	DB	00H
	DB	00H
	DB	00H
	DB	00H
	DB	00H
	DB	00H
	DB	00H
	DB	00H
	DB	00H
	DB	00H
	DB	00H
	DB	00H
	DB	00H
	DB	00H
	DB	00H
	DB	00H
	DB	00H
	DB	00H
	DB	00H
	DB	0f8H
	DB	0fcH
	DB	0f8H
	DB	04H
	DB	0f8H
	DB	0fcH
	DB	0f8H
	DB	0cbH
	DB	0f8H
	DB	0fcH
	DB	0f8H
	DB	0ffH
	DB	0f8H
	DB	0fcH
	DB	0f8H
	DB	0ffH
	DB	0d8H
	DB	0dcH
	DB	0d8H
	DB	0ffH
	DB	018H
	DB	014H
	DB	018H
	DB	0ffH
	DB	00H
	DB	00H
	DB	00H
	DB	0ffH
	DB	00H
	DB	00H
	DB	00H
	DB	0ffH
	DB	00H
	DB	00H
	DB	00H
	DB	0ffH
	DB	030H
	DB	024H
	DB	00H
	DB	0ffH
	DB	060H
	DB	044H
	DB	00H
	DB	0ffH
	DB	068H
	DB	048H
	DB	00H
	DB	0ffH
	DB	068H
	DB	050H
	DB	00H
	DB	0ffH
	DB	070H
	DB	050H
	DB	00H
	DB	0ffH
	DB	070H
	DB	054H
	DB	00H
	DB	0ffH
	DB	070H
	DB	058H
	DB	00H
	DB	0ffH
	DB	078H
	DB	058H
	DB	00H
	DB	0ffH
	DB	078H
	DB	058H
	DB	00H
	DB	0ffH
	DB	078H
	DB	058H
	DB	00H
	DB	0ffH
	DB	078H
	DB	058H
	DB	00H
	DB	0ffH
	DB	078H
	DB	058H
	DB	00H
	DB	0ffH
	DB	078H
	DB	058H
	DB	00H
	DB	0ffH
	DB	078H
	DB	058H
	DB	00H
	DB	0ffH
	DB	078H
	DB	058H
	DB	00H
	DB	0ffH
	DB	078H
	DB	058H
	DB	00H
	DB	0ffH
	DB	078H
	DB	058H
	DB	00H
	DB	0ffH
	DB	078H
	DB	058H
	DB	00H
	DB	0ffH
	DB	078H
	DB	058H
	DB	00H
	DB	0ffH
	DB	078H
	DB	058H
	DB	00H
	DB	0ffH
	DB	078H
	DB	058H
	DB	00H
	DB	0ffH
	DB	078H
	DB	058H
	DB	00H
	DB	0ffH
	DB	078H
	DB	058H
	DB	00H
	DB	0ffH
	DB	078H
	DB	058H
	DB	00H
	DB	0ffH
	DB	078H
	DB	058H
	DB	00H
	DB	0ffH
	DB	078H
	DB	058H
	DB	00H
	DB	0ffH
	DB	078H
	DB	058H
	DB	00H
	DB	0ffH
	DB	078H
	DB	058H
	DB	00H
	DB	0ffH
	DB	078H
	DB	058H
	DB	00H
	DB	0ffH
	DB	078H
	DB	058H
	DB	00H
	DB	0ffH
	DB	078H
	DB	058H
	DB	00H
	DB	0ffH
	DB	078H
	DB	058H
	DB	00H
	DB	0ffH
	DB	078H
	DB	058H
	DB	00H
	DB	0ffH
	DB	078H
	DB	058H
	DB	00H
	DB	0ffH
	DB	078H
	DB	058H
	DB	00H
	DB	0ffH
	DB	078H
	DB	058H
	DB	00H
	DB	0ffH
	DB	078H
	DB	058H
	DB	00H
	DB	0ffH
	DB	078H
	DB	058H
	DB	00H
	DB	0ffH
	DB	078H
	DB	058H
	DB	00H
	DB	0ffH
	DB	078H
	DB	058H
	DB	00H
	DB	0ffH
	DB	078H
	DB	058H
	DB	00H
	DB	0ffH
	DB	078H
	DB	058H
	DB	00H
	DB	0ffH
	DB	078H
	DB	058H
	DB	00H
	DB	0ffH
	DB	078H
	DB	058H
	DB	00H
	DB	0ffH
	DB	078H
	DB	058H
	DB	00H
	DB	0ffH
	DB	078H
	DB	058H
	DB	00H
	DB	0ffH
	DB	078H
	DB	058H
	DB	00H
	DB	0ffH
	DB	078H
	DB	058H
	DB	00H
	DB	0ffH
	DB	078H
	DB	058H
	DB	00H
	DB	0ffH
	DB	078H
	DB	058H
	DB	00H
	DB	0ffH
	DB	070H
	DB	050H
	DB	00H
	DB	0ffH
	DB	060H
	DB	048H
	DB	00H
	DB	0ffH
	DB	00H
	DB	00H
	DB	00H
	DB	0ffH
	DB	00H
	DB	00H
	DB	00H
	DB	0ffH
	DB	0d8H
	DB	0d8H
	DB	0d8H
	DB	0ffH
	DB	0d8H
	DB	0d8H
	DB	0d8H
	DB	0ffH
	DB	0d8H
	DB	0d4H
	DB	0d8H
	DB	0ffH
	DB	0d8H
	DB	0d8H
	DB	0d8H
	DB	0ffH
	DB	0d8H
	DB	0d8H
	DB	0d8H
	DB	0ffH
	DB	0d8H
	DB	0d8H
	DB	0d8H
	DB	0ffH
	DB	0d8H
	DB	0d4H
	DB	0d8H
	DB	0ffH
	DB	0d8H
	DB	0d8H
	DB	0d8H
	DB	0ffH
	DB	0d8H
	DB	0d8H
	DB	0d8H
	DB	0ffH
	DB	0d8H
	DB	0d8H
	DB	0d8H
	DB	0ffH
	DB	0d8H
	DB	0d4H
	DB	0d8H
	DB	0ffH
	DB	0d8H
	DB	0d8H
	DB	0d8H
	DB	0ffH
	DB	0d8H
	DB	0d8H
	DB	0d8H
	DB	0ffH
	DB	0d8H
	DB	0d8H
	DB	0d8H
	DB	0ffH
	DB	0d8H
	DB	0d4H
	DB	0d8H
	DB	0ffH
	DB	0d8H
	DB	0d8H
	DB	0d8H
	DB	0ffH
	DB	0d8H
	DB	0d8H
	DB	0d8H
	DB	0ffH
	DB	0d8H
	DB	0d8H
	DB	0d8H
	DB	0ffH
	DB	0d8H
	DB	0d4H
	DB	0d8H
	DB	0ffH
	DB	0d8H
	DB	0d8H
	DB	0d8H
	DB	0ffH
	DB	0d8H
	DB	0d8H
	DB	0d8H
	DB	0ffH
	DB	0d8H
	DB	0d8H
	DB	0d8H
	DB	0ffH
	DB	0d8H
	DB	0d4H
	DB	0d8H
	DB	0ffH
	DB	0d8H
	DB	0d8H
	DB	0d8H
	DB	0ffH
	DB	0d8H
	DB	0d8H
	DB	0d8H
	DB	0ffH
	DB	0d8H
	DB	0d8H
	DB	0d8H
	DB	0ffH
	DB	0d8H
	DB	0d4H
	DB	0d8H
	DB	0ffH
	DB	0d8H
	DB	0d8H
	DB	0d8H
	DB	0ffH
	DB	0d8H
	DB	0d8H
	DB	0d8H
	DB	0ffH
	DB	0d8H
	DB	0d8H
	DB	0d8H
	DB	0ffH
	DB	0d8H
	DB	0d4H
	DB	0d8H
	DB	0ffH
	DB	0d8H
	DB	0d8H
	DB	0d8H
	DB	0ffH
	DB	0d8H
	DB	0d8H
	DB	0d8H
	DB	0ffH
	DB	0d8H
	DB	0d8H
	DB	0d8H
	DB	0ffH
	DB	0d8H
	DB	0d4H
	DB	0d8H
	DB	0ffH
	DB	0d8H
	DB	0d8H
	DB	0d8H
	DB	0ffH
	DB	0d8H
	DB	0d8H
	DB	0d8H
	DB	0ffH
	DB	0d8H
	DB	0d8H
	DB	0d8H
	DB	0ffH
	DB	0d8H
	DB	0d4H
	DB	0d8H
	DB	0ffH
	DB	0d8H
	DB	0d8H
	DB	0d8H
	DB	0ffH
	DB	0d8H
	DB	0d8H
	DB	0d8H
	DB	0ffH
	DB	0d8H
	DB	0d8H
	DB	0d8H
	DB	0ffH
	DB	0d8H
	DB	0d4H
	DB	0d8H
	DB	0ffH
	DB	0d8H
	DB	0d8H
	DB	0d8H
	DB	0ffH
	DB	0d8H
	DB	0d8H
	DB	0d8H
	DB	0ffH
	DB	0d8H
	DB	0d8H
	DB	0d8H
	DB	0ffH
	DB	0d8H
	DB	0d4H
	DB	0d8H
	DB	0ffH
	DB	0d8H
	DB	0d8H
	DB	0d8H
	DB	0ffH
	DB	0d8H
	DB	0d8H
	DB	0d8H
	DB	0ffH
	DB	0d8H
	DB	0d8H
	DB	0d8H
	DB	0ffH
	DB	0d8H
	DB	0d4H
	DB	0d8H
	DB	0ffH
	DB	080H
	DB	080H
	DB	080H
	DB	0ffH
	DB	08H
	DB	08H
	DB	08H
	DB	0ffH
	DB	00H
	DB	00H
	DB	00H
	DB	0ffH
	DB	00H
	DB	00H
	DB	00H
	DB	0ffH
	DB	010H
	DB	014H
	DB	010H
	DB	0ffH
	DB	0d8H
	DB	0dcH
	DB	0d8H
	DB	0ffH
	DB	0f8H
	DB	0fcH
	DB	0f8H
	DB	0ffH
	DB	0f8H
	DB	0fcH
	DB	0f8H
	DB	0ffH
	DB	0f8H
	DB	0fcH
	DB	0f8H
	DB	0cbH
	DB	0f8H
	DB	0fcH
	DB	0f8H
	DB	04H
	DB	00H
	DB	00H
	DB	00H
	DB	00H
	DB	00H
	DB	00H
	DB	00H
	DB	00H
	DB	00H
	DB	00H
	DB	00H
	DB	00H
	DB	00H
	DB	00H
	DB	00H
	DB	00H
	DB	0f8H
	DB	0fcH
	DB	0f8H
	DB	06dH
	DB	0f8H
	DB	0fcH
	DB	0f8H
	DB	0ffH
	DB	0f8H
	DB	0fcH
	DB	0f8H
	DB	0ffH
	DB	0f8H
	DB	0f4H
	DB	0f8H
	DB	0ffH
	DB	030H
	DB	030H
	DB	030H
	DB	0ffH
	DB	00H
	DB	00H
	DB	00H
	DB	0ffH
	DB	00H
	DB	00H
	DB	00H
	DB	0ffH
	DB	08H
	DB	04H
	DB	00H
	DB	0ffH
	DB	040H
	DB	030H
	DB	00H
	DB	0ffH
	DB	060H
	DB	048H
	DB	00H
	DB	0ffH
	DB	068H
	DB	050H
	DB	00H
	DB	0ffH
	DB	070H
	DB	054H
	DB	00H
	DB	0ffH
	DB	078H
	DB	058H
	DB	00H
	DB	0ffH
	DB	078H
	DB	058H
	DB	00H
	DB	0ffH
	DB	080H
	DB	05cH
	DB	00H
	DB	0ffH
	DB	080H
	DB	05cH
	DB	00H
	DB	0ffH
	DB	078H
	DB	05cH
	DB	00H
	DB	0ffH
	DB	080H
	DB	05cH
	DB	00H
	DB	0ffH
	DB	080H
	DB	05cH
	DB	00H
	DB	0ffH
	DB	080H
	DB	060H
	DB	00H
	DB	0ffH
	DB	080H
	DB	05cH
	DB	00H
	DB	0ffH
	DB	080H
	DB	05cH
	DB	00H
	DB	0ffH
	DB	080H
	DB	060H
	DB	00H
	DB	0ffH
	DB	080H
	DB	05cH
	DB	00H
	DB	0ffH
	DB	080H
	DB	05cH
	DB	00H
	DB	0ffH
	DB	080H
	DB	060H
	DB	00H
	DB	0ffH
	DB	080H
	DB	05cH
	DB	00H
	DB	0ffH
	DB	080H
	DB	05cH
	DB	00H
	DB	0ffH
	DB	080H
	DB	060H
	DB	00H
	DB	0ffH
	DB	080H
	DB	05cH
	DB	00H
	DB	0ffH
	DB	080H
	DB	05cH
	DB	00H
	DB	0ffH
	DB	080H
	DB	060H
	DB	00H
	DB	0ffH
	DB	080H
	DB	05cH
	DB	00H
	DB	0ffH
	DB	080H
	DB	05cH
	DB	00H
	DB	0ffH
	DB	080H
	DB	060H
	DB	00H
	DB	0ffH
	DB	080H
	DB	05cH
	DB	00H
	DB	0ffH
	DB	080H
	DB	05cH
	DB	00H
	DB	0ffH
	DB	080H
	DB	060H
	DB	00H
	DB	0ffH
	DB	080H
	DB	05cH
	DB	00H
	DB	0ffH
	DB	080H
	DB	05cH
	DB	00H
	DB	0ffH
	DB	080H
	DB	060H
	DB	00H
	DB	0ffH
	DB	080H
	DB	05cH
	DB	00H
	DB	0ffH
	DB	080H
	DB	05cH
	DB	00H
	DB	0ffH
	DB	080H
	DB	060H
	DB	00H
	DB	0ffH
	DB	080H
	DB	05cH
	DB	00H
	DB	0ffH
	DB	080H
	DB	05cH
	DB	00H
	DB	0ffH
	DB	080H
	DB	060H
	DB	00H
	DB	0ffH
	DB	080H
	DB	05cH
	DB	00H
	DB	0ffH
	DB	080H
	DB	05cH
	DB	00H
	DB	0ffH
	DB	080H
	DB	060H
	DB	00H
	DB	0ffH
	DB	080H
	DB	05cH
	DB	00H
	DB	0ffH
	DB	080H
	DB	05cH
	DB	00H
	DB	0ffH
	DB	080H
	DB	060H
	DB	00H
	DB	0ffH
	DB	080H
	DB	05cH
	DB	00H
	DB	0ffH
	DB	080H
	DB	05cH
	DB	00H
	DB	0ffH
	DB	080H
	DB	060H
	DB	00H
	DB	0ffH
	DB	080H
	DB	05cH
	DB	00H
	DB	0ffH
	DB	080H
	DB	05cH
	DB	00H
	DB	0ffH
	DB	078H
	DB	05cH
	DB	00H
	DB	0ffH
	DB	078H
	DB	054H
	DB	00H
	DB	0ffH
	DB	068H
	DB	048H
	DB	00H
	DB	0ffH
	DB	00H
	DB	00H
	DB	00H
	DB	0ffH
	DB	00H
	DB	00H
	DB	00H
	DB	0ffH
	DB	0d8H
	DB	0d8H
	DB	0d8H
	DB	0ffH
	DB	0d8H
	DB	0d8H
	DB	0d8H
	DB	0ffH
	DB	0d8H
	DB	0d8H
	DB	0d8H
	DB	0ffH
	DB	0d0H
	DB	0d8H
	DB	0d0H
	DB	0ffH
	DB	0d8H
	DB	0d8H
	DB	0d8H
	DB	0ffH
	DB	0d8H
	DB	0d8H
	DB	0d8H
	DB	0ffH
	DB	0d0H
	DB	0d8H
	DB	0d0H
	DB	0ffH
	DB	0d8H
	DB	0d8H
	DB	0d8H
	DB	0ffH
	DB	0d8H
	DB	0d8H
	DB	0d8H
	DB	0ffH
	DB	0d0H
	DB	0d8H
	DB	0d0H
	DB	0ffH
	DB	0d8H
	DB	0d8H
	DB	0d8H
	DB	0ffH
	DB	0d8H
	DB	0d8H
	DB	0d8H
	DB	0ffH
	DB	0d0H
	DB	0d8H
	DB	0d0H
	DB	0ffH
	DB	0d8H
	DB	0d8H
	DB	0d8H
	DB	0ffH
	DB	0d8H
	DB	0d8H
	DB	0d8H
	DB	0ffH
	DB	0d0H
	DB	0d8H
	DB	0d0H
	DB	0ffH
	DB	0d8H
	DB	0d8H
	DB	0d8H
	DB	0ffH
	DB	0d8H
	DB	0d8H
	DB	0d8H
	DB	0ffH
	DB	0d0H
	DB	0d8H
	DB	0d0H
	DB	0ffH
	DB	0d8H
	DB	0d8H
	DB	0d8H
	DB	0ffH
	DB	0d8H
	DB	0d8H
	DB	0d8H
	DB	0ffH
	DB	0d0H
	DB	0d8H
	DB	0d0H
	DB	0ffH
	DB	0d8H
	DB	0d8H
	DB	0d8H
	DB	0ffH
	DB	0d8H
	DB	0d8H
	DB	0d8H
	DB	0ffH
	DB	0d0H
	DB	0d8H
	DB	0d0H
	DB	0ffH
	DB	0d8H
	DB	0d8H
	DB	0d8H
	DB	0ffH
	DB	0d8H
	DB	0d8H
	DB	0d8H
	DB	0ffH
	DB	0d0H
	DB	0d8H
	DB	0d0H
	DB	0ffH
	DB	0d8H
	DB	0d8H
	DB	0d8H
	DB	0ffH
	DB	0d8H
	DB	0d8H
	DB	0d8H
	DB	0ffH
	DB	0d0H
	DB	0d8H
	DB	0d0H
	DB	0ffH
	DB	0d8H
	DB	0d8H
	DB	0d8H
	DB	0ffH
	DB	0d8H
	DB	0d8H
	DB	0d8H
	DB	0ffH
	DB	0d0H
	DB	0d8H
	DB	0d0H
	DB	0ffH
	DB	0d8H
	DB	0d8H
	DB	0d8H
	DB	0ffH
	DB	0d8H
	DB	0d8H
	DB	0d8H
	DB	0ffH
	DB	0d0H
	DB	0d8H
	DB	0d0H
	DB	0ffH
	DB	0d8H
	DB	0d8H
	DB	0d8H
	DB	0ffH
	DB	0d8H
	DB	0d8H
	DB	0d8H
	DB	0ffH
	DB	0d0H
	DB	0d8H
	DB	0d0H
	DB	0ffH
	DB	0d8H
	DB	0d8H
	DB	0d8H
	DB	0ffH
	DB	0d8H
	DB	0d8H
	DB	0d8H
	DB	0ffH
	DB	0d0H
	DB	0d4H
	DB	0d0H
	DB	0ffH
	DB	0d8H
	DB	0d8H
	DB	0d8H
	DB	0ffH
	DB	0d8H
	DB	0d8H
	DB	0d8H
	DB	0ffH
	DB	0d8H
	DB	0d4H
	DB	0d8H
	DB	0ffH
	DB	0d8H
	DB	0d8H
	DB	0d8H
	DB	0ffH
	DB	0d8H
	DB	0d8H
	DB	0d8H
	DB	0ffH
	DB	0d8H
	DB	0d8H
	DB	0d8H
	DB	0ffH
	DB	0d8H
	DB	0d8H
	DB	0d8H
	DB	0ffH
	DB	0d8H
	DB	0d8H
	DB	0d8H
	DB	0ffH
	DB	0d8H
	DB	0d8H
	DB	0d8H
	DB	0ffH
	DB	0a8H
	DB	0a8H
	DB	0a8H
	DB	0ffH
	DB	010H
	DB	010H
	DB	010H
	DB	0ffH
	DB	00H
	DB	00H
	DB	00H
	DB	0ffH
	DB	00H
	DB	00H
	DB	00H
	DB	0ffH
	DB	030H
	DB	02cH
	DB	030H
	DB	0ffH
	DB	0f8H
	DB	0f4H
	DB	0f8H
	DB	0ffH
	DB	0f8H
	DB	0fcH
	DB	0f8H
	DB	0ffH
	DB	0f8H
	DB	0fcH
	DB	0f8H
	DB	0ffH
	DB	0f8H
	DB	0fcH
	DB	0f8H
	DB	071H
	DB	00H
	DB	00H
	DB	00H
	DB	00H
	DB	00H
	DB	00H
	DB	00H
	DB	00H
	DB	00H
	DB	00H
	DB	00H
	DB	00H
	DB	0f8H
	DB	0fcH
	DB	0f8H
	DB	0cH
	DB	0f8H
	DB	0fcH
	DB	0f8H
	DB	0ebH
	DB	0f8H
	DB	0fcH
	DB	0f8H
	DB	0ffH
	DB	0f8H
	DB	0fcH
	DB	0f8H
	DB	0ffH
	DB	078H
	DB	074H
	DB	078H
	DB	0ffH
	DB	00H
	DB	00H
	DB	00H
	DB	0ffH
	DB	00H
	DB	00H
	DB	00H
	DB	0ffH
	DB	00H
	DB	00H
	DB	00H
	DB	0ffH
	DB	048H
	DB	034H
	DB	00H
	DB	0ffH
	DB	068H
	DB	04cH
	DB	00H
	DB	0ffH
	DB	070H
	DB	050H
	DB	00H
	DB	0ffH
	DB	078H
	DB	058H
	DB	00H
	DB	0ffH
	DB	078H
	DB	05cH
	DB	00H
	DB	0ffH
	DB	080H
	DB	05cH
	DB	00H
	DB	0ffH
	DB	080H
	DB	060H
	DB	00H
	DB	0ffH
	DB	080H
	DB	060H
	DB	00H
	DB	0ffH
	DB	080H
	DB	060H
	DB	00H
	DB	0ffH
	DB	080H
	DB	060H
	DB	00H
	DB	0ffH
	DB	080H
	DB	060H
	DB	08H
	DB	0ffH
	DB	080H
	DB	060H
	DB	00H
	DB	0ffH
	DB	080H
	DB	064H
	DB	00H
	DB	0ffH
	DB	080H
	DB	060H
	DB	08H
	DB	0ffH
	DB	080H
	DB	060H
	DB	00H
	DB	0ffH
	DB	080H
	DB	064H
	DB	00H
	DB	0ffH
	DB	080H
	DB	060H
	DB	08H
	DB	0ffH
	DB	080H
	DB	060H
	DB	00H
	DB	0ffH
	DB	080H
	DB	064H
	DB	00H
	DB	0ffH
	DB	080H
	DB	060H
	DB	08H
	DB	0ffH
	DB	080H
	DB	060H
	DB	00H
	DB	0ffH
	DB	080H
	DB	064H
	DB	00H
	DB	0ffH
	DB	080H
	DB	060H
	DB	08H
	DB	0ffH
	DB	088H
	DB	060H
	DB	00H
	DB	0ffH
	DB	080H
	DB	064H
	DB	00H
	DB	0ffH
	DB	080H
	DB	060H
	DB	08H
	DB	0ffH
	DB	080H
	DB	060H
	DB	00H
	DB	0ffH
	DB	080H
	DB	064H
	DB	00H
	DB	0ffH
	DB	080H
	DB	060H
	DB	08H
	DB	0ffH
	DB	080H
	DB	060H
	DB	00H
	DB	0ffH
	DB	088H
	DB	064H
	DB	00H
	DB	0ffH
	DB	080H
	DB	060H
	DB	08H
	DB	0ffH
	DB	080H
	DB	060H
	DB	00H
	DB	0ffH
	DB	080H
	DB	064H
	DB	00H
	DB	0ffH
	DB	080H
	DB	060H
	DB	08H
	DB	0ffH
	DB	080H
	DB	060H
	DB	00H
	DB	0ffH
	DB	080H
	DB	064H
	DB	00H
	DB	0ffH
	DB	088H
	DB	060H
	DB	08H
	DB	0ffH
	DB	080H
	DB	060H
	DB	00H
	DB	0ffH
	DB	080H
	DB	064H
	DB	00H
	DB	0ffH
	DB	080H
	DB	060H
	DB	08H
	DB	0ffH
	DB	080H
	DB	060H
	DB	00H
	DB	0ffH
	DB	080H
	DB	064H
	DB	00H
	DB	0ffH
	DB	080H
	DB	060H
	DB	08H
	DB	0ffH
	DB	088H
	DB	060H
	DB	00H
	DB	0ffH
	DB	080H
	DB	064H
	DB	00H
	DB	0ffH
	DB	080H
	DB	060H
	DB	08H
	DB	0ffH
	DB	080H
	DB	060H
	DB	00H
	DB	0ffH
	DB	080H
	DB	060H
	DB	00H
	DB	0ffH
	DB	088H
	DB	060H
	DB	08H
	DB	0ffH
	DB	080H
	DB	060H
	DB	00H
	DB	0ffH
	DB	080H
	DB	060H
	DB	00H
	DB	0ffH
	DB	078H
	DB	058H
	DB	08H
	DB	0ffH
	DB	068H
	DB	04cH
	DB	00H
	DB	0ffH
	DB	00H
	DB	00H
	DB	00H
	DB	0ffH
	DB	00H
	DB	00H
	DB	00H
	DB	0ffH
	DB	0d8H
	DB	0d8H
	DB	0d8H
	DB	0ffH
	DB	0d8H
	DB	0d4H
	DB	0d8H
	DB	0ffH
	DB	0d8H
	DB	0d8H
	DB	0d8H
	DB	0ffH
	DB	0d8H
	DB	0d4H
	DB	0d8H
	DB	0ffH
	DB	0d8H
	DB	0d4H
	DB	0d8H
	DB	0ffH
	DB	0d8H
	DB	0d8H
	DB	0d8H
	DB	0ffH
	DB	0d8H
	DB	0d8H
	DB	0d8H
	DB	0ffH
	DB	0d8H
	DB	0d4H
	DB	0d8H
	DB	0ffH
	DB	0d8H
	DB	0d4H
	DB	0d8H
	DB	0ffH
	DB	0d8H
	DB	0d8H
	DB	0d8H
	DB	0ffH
	DB	0d8H
	DB	0d8H
	DB	0d8H
	DB	0ffH
	DB	0d8H
	DB	0d4H
	DB	0d8H
	DB	0ffH
	DB	0d8H
	DB	0d4H
	DB	0d8H
	DB	0ffH
	DB	0d8H
	DB	0d8H
	DB	0d8H
	DB	0ffH
	DB	0d8H
	DB	0d8H
	DB	0d8H
	DB	0ffH
	DB	0d8H
	DB	0d4H
	DB	0d8H
	DB	0ffH
	DB	0d8H
	DB	0d4H
	DB	0d8H
	DB	0ffH
	DB	0d8H
	DB	0d8H
	DB	0d8H
	DB	0ffH
	DB	0d8H
	DB	0d8H
	DB	0d8H
	DB	0ffH
	DB	0d8H
	DB	0d4H
	DB	0d8H
	DB	0ffH
	DB	0d8H
	DB	0d4H
	DB	0d8H
	DB	0ffH
	DB	0d8H
	DB	0d8H
	DB	0d8H
	DB	0ffH
	DB	0d8H
	DB	0d8H
	DB	0d8H
	DB	0ffH
	DB	0d8H
	DB	0d4H
	DB	0d8H
	DB	0ffH
	DB	0d8H
	DB	0d4H
	DB	0d8H
	DB	0ffH
	DB	0d8H
	DB	0d8H
	DB	0d8H
	DB	0ffH
	DB	0d8H
	DB	0d8H
	DB	0d8H
	DB	0ffH
	DB	0d8H
	DB	0d4H
	DB	0d8H
	DB	0ffH
	DB	0d8H
	DB	0d4H
	DB	0d8H
	DB	0ffH
	DB	0d8H
	DB	0d8H
	DB	0d8H
	DB	0ffH
	DB	0d8H
	DB	0d8H
	DB	0d8H
	DB	0ffH
	DB	0d8H
	DB	0d4H
	DB	0d8H
	DB	0ffH
	DB	0d8H
	DB	0d4H
	DB	0d8H
	DB	0ffH
	DB	0d8H
	DB	0d8H
	DB	0d8H
	DB	0ffH
	DB	0d8H
	DB	0d8H
	DB	0d8H
	DB	0ffH
	DB	0d8H
	DB	0d4H
	DB	0d8H
	DB	0ffH
	DB	0d8H
	DB	0d4H
	DB	0d8H
	DB	0ffH
	DB	0d8H
	DB	0d8H
	DB	0d8H
	DB	0ffH
	DB	0d8H
	DB	0d8H
	DB	0d8H
	DB	0ffH
	DB	0d8H
	DB	0d4H
	DB	0d8H
	DB	0ffH
	DB	0d8H
	DB	0d8H
	DB	0d8H
	DB	0ffH
	DB	0d8H
	DB	0d8H
	DB	0d8H
	DB	0ffH
	DB	0d8H
	DB	0d8H
	DB	0d8H
	DB	0ffH
	DB	0d8H
	DB	0d4H
	DB	0d8H
	DB	0ffH
	DB	0d8H
	DB	0d8H
	DB	0d8H
	DB	0ffH
	DB	0d0H
	DB	0d8H
	DB	0d0H
	DB	0ffH
	DB	0d8H
	DB	0d8H
	DB	0d8H
	DB	0ffH
	DB	0d8H
	DB	0d4H
	DB	0d8H
	DB	0ffH
	DB	0d8H
	DB	0d4H
	DB	0d8H
	DB	0ffH
	DB	0d8H
	DB	0d8H
	DB	0d8H
	DB	0ffH
	DB	0d8H
	DB	0d8H
	DB	0d8H
	DB	0ffH
	DB	0d8H
	DB	0d4H
	DB	0d8H
	DB	0ffH
	DB	0d8H
	DB	0d8H
	DB	0d8H
	DB	0ffH
	DB	0a8H
	DB	0a8H
	DB	0a8H
	DB	0ffH
	DB	08H
	DB	08H
	DB	08H
	DB	0ffH
	DB	00H
	DB	00H
	DB	00H
	DB	0ffH
	DB	00H
	DB	00H
	DB	00H
	DB	0ffH
	DB	078H
	DB	078H
	DB	078H
	DB	0ffH
	DB	0f8H
	DB	0fcH
	DB	0f8H
	DB	0ffH
	DB	0f8H
	DB	0fcH
	DB	0f8H
	DB	0ffH
	DB	0f8H
	DB	0fcH
	DB	0f8H
	DB	0ebH
	DB	0f8H
	DB	0fcH
	DB	0f8H
	DB	0cH
	DB	00H
	DB	00H
	DB	00H
	DB	00H
	DB	00H
	DB	00H
	DB	00H
	DB	00H
	DB	0f8H
	DB	0fcH
	DB	0f8H
	DB	071H
	DB	0f8H
	DB	0fcH
	DB	0f8H
	DB	0ffH
	DB	0f8H
	DB	0fcH
	DB	0f8H
	DB	0ffH
	DB	0d8H
	DB	0dcH
	DB	0d8H
	DB	0ffH
	DB	08H
	DB	04H
	DB	08H
	DB	0ffH
	DB	00H
	DB	00H
	DB	00H
	DB	0ffH
	DB	00H
	DB	00H
	DB	00H
	DB	0ffH
	DB	038H
	DB	028H
	DB	00H
	DB	0ffH
	DB	060H
	DB	04cH
	DB	00H
	DB	0ffH
	DB	070H
	DB	054H
	DB	00H
	DB	0ffH
	DB	078H
	DB	058H
	DB	00H
	DB	0ffH
	DB	080H
	DB	05cH
	DB	00H
	DB	0ffH
	DB	080H
	DB	060H
	DB	00H
	DB	0ffH
	DB	080H
	DB	060H
	DB	00H
	DB	0ffH
	DB	088H
	DB	064H
	DB	08H
	DB	0ffH
	DB	088H
	DB	064H
	DB	00H
	DB	0ffH
	DB	088H
	DB	064H
	DB	00H
	DB	0ffH
	DB	088H
	DB	064H
	DB	00H
	DB	0ffH
	DB	088H
	DB	064H
	DB	00H
	DB	0ffH
	DB	088H
	DB	064H
	DB	00H
	DB	0ffH
	DB	088H
	DB	064H
	DB	00H
	DB	0ffH
	DB	088H
	DB	064H
	DB	00H
	DB	0ffH
	DB	088H
	DB	064H
	DB	00H
	DB	0ffH
	DB	088H
	DB	064H
	DB	00H
	DB	0ffH
	DB	088H
	DB	064H
	DB	00H
	DB	0ffH
	DB	088H
	DB	064H
	DB	00H
	DB	0ffH
	DB	088H
	DB	064H
	DB	00H
	DB	0ffH
	DB	088H
	DB	064H
	DB	00H
	DB	0ffH
	DB	088H
	DB	064H
	DB	00H
	DB	0ffH
	DB	088H
	DB	064H
	DB	00H
	DB	0ffH
	DB	088H
	DB	064H
	DB	00H
	DB	0ffH
	DB	088H
	DB	064H
	DB	00H
	DB	0ffH
	DB	088H
	DB	064H
	DB	00H
	DB	0ffH
	DB	088H
	DB	064H
	DB	00H
	DB	0ffH
	DB	088H
	DB	064H
	DB	00H
	DB	0ffH
	DB	088H
	DB	064H
	DB	00H
	DB	0ffH
	DB	088H
	DB	064H
	DB	00H
	DB	0ffH
	DB	088H
	DB	064H
	DB	00H
	DB	0ffH
	DB	088H
	DB	064H
	DB	00H
	DB	0ffH
	DB	088H
	DB	064H
	DB	00H
	DB	0ffH
	DB	088H
	DB	064H
	DB	00H
	DB	0ffH
	DB	088H
	DB	064H
	DB	00H
	DB	0ffH
	DB	088H
	DB	064H
	DB	00H
	DB	0ffH
	DB	088H
	DB	064H
	DB	00H
	DB	0ffH
	DB	088H
	DB	064H
	DB	00H
	DB	0ffH
	DB	088H
	DB	064H
	DB	00H
	DB	0ffH
	DB	088H
	DB	064H
	DB	00H
	DB	0ffH
	DB	088H
	DB	064H
	DB	00H
	DB	0ffH
	DB	088H
	DB	064H
	DB	00H
	DB	0ffH
	DB	088H
	DB	064H
	DB	00H
	DB	0ffH
	DB	088H
	DB	064H
	DB	00H
	DB	0ffH
	DB	088H
	DB	064H
	DB	00H
	DB	0ffH
	DB	088H
	DB	064H
	DB	00H
	DB	0ffH
	DB	088H
	DB	064H
	DB	00H
	DB	0ffH
	DB	088H
	DB	064H
	DB	00H
	DB	0ffH
	DB	088H
	DB	064H
	DB	00H
	DB	0ffH
	DB	088H
	DB	064H
	DB	00H
	DB	0ffH
	DB	088H
	DB	064H
	DB	00H
	DB	0ffH
	DB	088H
	DB	064H
	DB	00H
	DB	0ffH
	DB	080H
	DB	060H
	DB	00H
	DB	0ffH
	DB	078H
	DB	05cH
	DB	00H
	DB	0ffH
	DB	068H
	DB	050H
	DB	00H
	DB	0ffH
	DB	00H
	DB	00H
	DB	00H
	DB	0ffH
	DB	00H
	DB	00H
	DB	00H
	DB	0ffH
	DB	0d8H
	DB	0d8H
	DB	0d8H
	DB	0ffH
	DB	0d8H
	DB	0d8H
	DB	0d8H
	DB	0ffH
	DB	0d8H
	DB	0d8H
	DB	0d8H
	DB	0ffH
	DB	0d8H
	DB	0d8H
	DB	0d8H
	DB	0ffH
	DB	0d8H
	DB	0d8H
	DB	0d8H
	DB	0ffH
	DB	0d8H
	DB	0d8H
	DB	0d8H
	DB	0ffH
	DB	0d8H
	DB	0d8H
	DB	0d8H
	DB	0ffH
	DB	0d8H
	DB	0d8H
	DB	0d8H
	DB	0ffH
	DB	0d8H
	DB	0d8H
	DB	0d8H
	DB	0ffH
	DB	0d8H
	DB	0d4H
	DB	0d8H
	DB	0ffH
	DB	0d8H
	DB	0d8H
	DB	0d8H
	DB	0ffH
	DB	0d8H
	DB	0d8H
	DB	0d8H
	DB	0ffH
	DB	0d8H
	DB	0d8H
	DB	0d8H
	DB	0ffH
	DB	0d8H
	DB	0d8H
	DB	0d8H
	DB	0ffH
	DB	0d8H
	DB	0d4H
	DB	0d8H
	DB	0ffH
	DB	0d8H
	DB	0d8H
	DB	0d8H
	DB	0ffH
	DB	0d8H
	DB	0d8H
	DB	0d8H
	DB	0ffH
	DB	0d8H
	DB	0d8H
	DB	0d8H
	DB	0ffH
	DB	0d8H
	DB	0d8H
	DB	0d8H
	DB	0ffH
	DB	0d8H
	DB	0d8H
	DB	0d8H
	DB	0ffH
	DB	0d8H
	DB	0d8H
	DB	0d8H
	DB	0ffH
	DB	0d8H
	DB	0d4H
	DB	0d8H
	DB	0ffH
	DB	0d8H
	DB	0d8H
	DB	0d8H
	DB	0ffH
	DB	0d8H
	DB	0d8H
	DB	0d8H
	DB	0ffH
	DB	0d8H
	DB	0d8H
	DB	0d8H
	DB	0ffH
	DB	0d8H
	DB	0d8H
	DB	0d8H
	DB	0ffH
	DB	0d8H
	DB	0d4H
	DB	0d8H
	DB	0ffH
	DB	0d8H
	DB	0d8H
	DB	0d8H
	DB	0ffH
	DB	0d8H
	DB	0d8H
	DB	0d8H
	DB	0ffH
	DB	0d8H
	DB	0d8H
	DB	0d8H
	DB	0ffH
	DB	0d8H
	DB	0d8H
	DB	0d8H
	DB	0ffH
	DB	0d8H
	DB	0d8H
	DB	0d8H
	DB	0ffH
	DB	0d8H
	DB	0d8H
	DB	0d8H
	DB	0ffH
	DB	0d8H
	DB	0d4H
	DB	0d8H
	DB	0ffH
	DB	0d8H
	DB	0d8H
	DB	0d8H
	DB	0ffH
	DB	0d8H
	DB	0d8H
	DB	0d8H
	DB	0ffH
	DB	0d8H
	DB	0d8H
	DB	0d8H
	DB	0ffH
	DB	0d8H
	DB	0d8H
	DB	0d8H
	DB	0ffH
	DB	0d8H
	DB	0d4H
	DB	0d8H
	DB	0ffH
	DB	0d8H
	DB	0d8H
	DB	0d8H
	DB	0ffH
	DB	0d8H
	DB	0d4H
	DB	0d8H
	DB	0ffH
	DB	0d8H
	DB	0d8H
	DB	0d8H
	DB	0ffH
	DB	0d8H
	DB	0d8H
	DB	0d8H
	DB	0ffH
	DB	0d8H
	DB	0d8H
	DB	0d8H
	DB	0ffH
	DB	0d8H
	DB	0d4H
	DB	0d8H
	DB	0ffH
	DB	0d8H
	DB	0d8H
	DB	0d8H
	DB	0ffH
	DB	0d8H
	DB	0d8H
	DB	0d8H
	DB	0ffH
	DB	0d8H
	DB	0d8H
	DB	0d8H
	DB	0ffH
	DB	0d0H
	DB	0d8H
	DB	0d0H
	DB	0ffH
	DB	0d8H
	DB	0d8H
	DB	0d8H
	DB	0ffH
	DB	0d8H
	DB	0d4H
	DB	0d8H
	DB	0ffH
	DB	0d0H
	DB	0d8H
	DB	0d0H
	DB	0ffH
	DB	0d8H
	DB	0d8H
	DB	0d8H
	DB	0ffH
	DB	0d8H
	DB	0d4H
	DB	0d8H
	DB	0ffH
	DB	080H
	DB	084H
	DB	080H
	DB	0ffH
	DB	00H
	DB	00H
	DB	00H
	DB	0ffH
	DB	00H
	DB	00H
	DB	00H
	DB	0ffH
	DB	00H
	DB	04H
	DB	00H
	DB	0ffH
	DB	0d8H
	DB	0dcH
	DB	0d8H
	DB	0ffH
	DB	0f8H
	DB	0fcH
	DB	0f8H
	DB	0ffH
	DB	0f8H
	DB	0fcH
	DB	0f8H
	DB	0ffH
	DB	0f8H
	DB	0fcH
	DB	0f8H
	DB	071H
	DB	00H
	DB	00H
	DB	00H
	DB	00H
	DB	00H
	DB	00H
	DB	00H
	DB	00H
	DB	0f8H
	DB	0fcH
	DB	0f8H
	DB	0d7H
	DB	0f8H
	DB	0fcH
	DB	0f8H
	DB	0ffH
	DB	0f8H
	DB	0fcH
	DB	0f8H
	DB	0ffH
	DB	060H
	DB	064H
	DB	060H
	DB	0ffH
	DB	00H
	DB	00H
	DB	00H
	DB	0ffH
	DB	00H
	DB	00H
	DB	00H
	DB	0ffH
	DB	010H
	DB	010H
	DB	00H
	DB	0ffH
	DB	060H
	DB	048H
	DB	00H
	DB	0ffH
	DB	070H
	DB	054H
	DB	00H
	DB	0ffH
	DB	078H
	DB	05cH
	DB	00H
	DB	0ffH
	DB	080H
	DB	060H
	DB	00H
	DB	0ffH
	DB	088H
	DB	064H
	DB	00H
	DB	0ffH
	DB	088H
	DB	064H
	DB	00H
	DB	0ffH
	DB	088H
	DB	064H
	DB	00H
	DB	0ffH
	DB	088H
	DB	064H
	DB	00H
	DB	0ffH
	DB	088H
	DB	064H
	DB	00H
	DB	0ffH
	DB	088H
	DB	064H
	DB	00H
	DB	0ffH
	DB	088H
	DB	064H
	DB	08H
	DB	0ffH
	DB	088H
	DB	064H
	DB	00H
	DB	0ffH
	DB	088H
	DB	064H
	DB	00H
	DB	0ffH
	DB	088H
	DB	064H
	DB	00H
	DB	0ffH
	DB	088H
	DB	064H
	DB	00H
	DB	0ffH
	DB	088H
	DB	064H
	DB	00H
	DB	0ffH
	DB	088H
	DB	064H
	DB	00H
	DB	0ffH
	DB	088H
	DB	064H
	DB	00H
	DB	0ffH
	DB	088H
	DB	064H
	DB	00H
	DB	0ffH
	DB	088H
	DB	064H
	DB	00H
	DB	0ffH
	DB	088H
	DB	064H
	DB	00H
	DB	0ffH
	DB	088H
	DB	064H
	DB	00H
	DB	0ffH
	DB	088H
	DB	064H
	DB	00H
	DB	0ffH
	DB	088H
	DB	064H
	DB	00H
	DB	0ffH
	DB	088H
	DB	064H
	DB	00H
	DB	0ffH
	DB	088H
	DB	064H
	DB	00H
	DB	0ffH
	DB	088H
	DB	064H
	DB	00H
	DB	0ffH
	DB	088H
	DB	064H
	DB	00H
	DB	0ffH
	DB	088H
	DB	064H
	DB	00H
	DB	0ffH
	DB	088H
	DB	064H
	DB	00H
	DB	0ffH
	DB	088H
	DB	064H
	DB	00H
	DB	0ffH
	DB	088H
	DB	064H
	DB	00H
	DB	0ffH
	DB	088H
	DB	064H
	DB	00H
	DB	0ffH
	DB	088H
	DB	064H
	DB	00H
	DB	0ffH
	DB	088H
	DB	064H
	DB	00H
	DB	0ffH
	DB	088H
	DB	064H
	DB	00H
	DB	0ffH
	DB	088H
	DB	064H
	DB	00H
	DB	0ffH
	DB	088H
	DB	064H
	DB	00H
	DB	0ffH
	DB	088H
	DB	064H
	DB	00H
	DB	0ffH
	DB	088H
	DB	064H
	DB	00H
	DB	0ffH
	DB	088H
	DB	064H
	DB	00H
	DB	0ffH
	DB	088H
	DB	064H
	DB	00H
	DB	0ffH
	DB	088H
	DB	064H
	DB	00H
	DB	0ffH
	DB	088H
	DB	064H
	DB	00H
	DB	0ffH
	DB	088H
	DB	064H
	DB	00H
	DB	0ffH
	DB	088H
	DB	064H
	DB	00H
	DB	0ffH
	DB	088H
	DB	064H
	DB	00H
	DB	0ffH
	DB	088H
	DB	064H
	DB	00H
	DB	0ffH
	DB	088H
	DB	064H
	DB	00H
	DB	0ffH
	DB	088H
	DB	064H
	DB	00H
	DB	0ffH
	DB	088H
	DB	064H
	DB	00H
	DB	0ffH
	DB	088H
	DB	064H
	DB	00H
	DB	0ffH
	DB	088H
	DB	064H
	DB	00H
	DB	0ffH
	DB	078H
	DB	05cH
	DB	00H
	DB	0ffH
	DB	068H
	DB	050H
	DB	00H
	DB	0ffH
	DB	00H
	DB	00H
	DB	00H
	DB	0ffH
	DB	00H
	DB	00H
	DB	00H
	DB	0ffH
	DB	0d8H
	DB	0d8H
	DB	0d8H
	DB	0ffH
	DB	0d8H
	DB	0d4H
	DB	0d8H
	DB	0ffH
	DB	0d0H
	DB	0d8H
	DB	0d8H
	DB	0ffH
	DB	0d8H
	DB	0d8H
	DB	0d0H
	DB	0ffH
	DB	0d8H
	DB	0d4H
	DB	0d8H
	DB	0ffH
	DB	0d0H
	DB	0d8H
	DB	0d8H
	DB	0ffH
	DB	0d8H
	DB	0d4H
	DB	0d0H
	DB	0ffH
	DB	0d8H
	DB	0d8H
	DB	0d8H
	DB	0ffH
	DB	0d0H
	DB	0d8H
	DB	0d8H
	DB	0ffH
	DB	0d8H
	DB	0d8H
	DB	0d0H
	DB	0ffH
	DB	0d8H
	DB	0d8H
	DB	0d8H
	DB	0ffH
	DB	0d0H
	DB	0d8H
	DB	0d8H
	DB	0ffH
	DB	0d8H
	DB	0d8H
	DB	0d0H
	DB	0ffH
	DB	0d8H
	DB	0d4H
	DB	0d8H
	DB	0ffH
	DB	0d0H
	DB	0d8H
	DB	0d8H
	DB	0ffH
	DB	0d8H
	DB	0d8H
	DB	0d0H
	DB	0ffH
	DB	0d8H
	DB	0d8H
	DB	0d8H
	DB	0ffH
	DB	0d0H
	DB	0d4H
	DB	0d8H
	DB	0ffH
	DB	0d8H
	DB	0d8H
	DB	0d0H
	DB	0ffH
	DB	0d8H
	DB	0d8H
	DB	0d8H
	DB	0ffH
	DB	0d0H
	DB	0d8H
	DB	0d8H
	DB	0ffH
	DB	0d8H
	DB	0d8H
	DB	0d0H
	DB	0ffH
	DB	0d8H
	DB	0d8H
	DB	0d8H
	DB	0ffH
	DB	0d0H
	DB	0d8H
	DB	0d8H
	DB	0ffH
	DB	0d8H
	DB	0d8H
	DB	0d0H
	DB	0ffH
	DB	0d8H
	DB	0d4H
	DB	0d8H
	DB	0ffH
	DB	0d0H
	DB	0d8H
	DB	0d8H
	DB	0ffH
	DB	0d8H
	DB	0d8H
	DB	0d0H
	DB	0ffH
	DB	0d8H
	DB	0d8H
	DB	0d8H
	DB	0ffH
	DB	0d0H
	DB	0d4H
	DB	0d8H
	DB	0ffH
	DB	0d8H
	DB	0d8H
	DB	0d0H
	DB	0ffH
	DB	0d8H
	DB	0d8H
	DB	0d8H
	DB	0ffH
	DB	0d0H
	DB	0d8H
	DB	0d8H
	DB	0ffH
	DB	0d8H
	DB	0d8H
	DB	0d0H
	DB	0ffH
	DB	0d8H
	DB	0d8H
	DB	0d8H
	DB	0ffH
	DB	0d0H
	DB	0d8H
	DB	0d8H
	DB	0ffH
	DB	0d8H
	DB	0d8H
	DB	0d0H
	DB	0ffH
	DB	0d8H
	DB	0d4H
	DB	0d8H
	DB	0ffH
	DB	0d0H
	DB	0d8H
	DB	0d8H
	DB	0ffH
	DB	0d8H
	DB	0d8H
	DB	0d0H
	DB	0ffH
	DB	0d8H
	DB	0d8H
	DB	0d8H
	DB	0ffH
	DB	0d0H
	DB	0d4H
	DB	0d8H
	DB	0ffH
	DB	0d8H
	DB	0d8H
	DB	0d0H
	DB	0ffH
	DB	0d8H
	DB	0d8H
	DB	0d8H
	DB	0ffH
	DB	0d0H
	DB	0d8H
	DB	0d8H
	DB	0ffH
	DB	0d8H
	DB	0d4H
	DB	0d8H
	DB	0ffH
	DB	0d8H
	DB	0d8H
	DB	0d8H
	DB	0ffH
	DB	0d8H
	DB	0d8H
	DB	0d8H
	DB	0ffH
	DB	0d8H
	DB	0d8H
	DB	0d8H
	DB	0ffH
	DB	0d8H
	DB	0d4H
	DB	0d8H
	DB	0ffH
	DB	0d8H
	DB	0d8H
	DB	0d8H
	DB	0ffH
	DB	0d8H
	DB	0d8H
	DB	0d8H
	DB	0ffH
	DB	0d8H
	DB	0d8H
	DB	0d8H
	DB	0ffH
	DB	0d8H
	DB	0d8H
	DB	0d8H
	DB	0ffH
	DB	0d8H
	DB	0d4H
	DB	0d8H
	DB	0ffH
	DB	038H
	DB	034H
	DB	038H
	DB	0ffH
	DB	00H
	DB	00H
	DB	00H
	DB	0ffH
	DB	00H
	DB	00H
	DB	00H
	DB	0ffH
	DB	060H
	DB	064H
	DB	060H
	DB	0ffH
	DB	0f8H
	DB	0fcH
	DB	0f8H
	DB	0ffH
	DB	0f8H
	DB	0fcH
	DB	0f8H
	DB	0ffH
	DB	0f8H
	DB	0fcH
	DB	0f8H
	DB	0d7H
	DB	00H
	DB	00H
	DB	00H
	DB	00H
	DB	0f8H
	DB	0fcH
	DB	0f8H
	DB	02cH
	DB	0f8H
	DB	0fcH
	DB	0f8H
	DB	0ffH
	DB	0f8H
	DB	0fcH
	DB	0f8H
	DB	0ffH
	DB	0f0H
	DB	0f0H
	DB	0f0H
	DB	0ffH
	DB	08H
	DB	0cH
	DB	08H
	DB	0ffH
	DB	00H
	DB	00H
	DB	00H
	DB	0ffH
	DB	00H
	DB	00H
	DB	00H
	DB	0ffH
	DB	048H
	DB	038H
	DB	00H
	DB	0ffH
	DB	070H
	DB	050H
	DB	00H
	DB	0ffH
	DB	078H
	DB	058H
	DB	00H
	DB	0ffH
	DB	080H
	DB	060H
	DB	00H
	DB	0ffH
	DB	088H
	DB	064H
	DB	00H
	DB	0ffH
	DB	088H
	DB	064H
	DB	08H
	DB	0ffH
	DB	088H
	DB	064H
	DB	00H
	DB	0ffH
	DB	088H
	DB	064H
	DB	00H
	DB	0ffH
	DB	088H
	DB	064H
	DB	00H
	DB	0ffH
	DB	088H
	DB	064H
	DB	00H
	DB	0ffH
	DB	088H
	DB	064H
	DB	00H
	DB	0ffH
	DB	088H
	DB	064H
	DB	00H
	DB	0ffH
	DB	088H
	DB	064H
	DB	00H
	DB	0ffH
	DB	088H
	DB	064H
	DB	00H
	DB	0ffH
	DB	088H
	DB	064H
	DB	08H
	DB	0ffH
	DB	088H
	DB	064H
	DB	00H
	DB	0ffH
	DB	088H
	DB	064H
	DB	00H
	DB	0ffH
	DB	088H
	DB	064H
	DB	08H
	DB	0ffH
	DB	080H
	DB	06cH
	DB	08H
	DB	0ffH
	DB	080H
	DB	06cH
	DB	08H
	DB	0ffH
	DB	088H
	DB	064H
	DB	00H
	DB	0ffH
	DB	088H
	DB	064H
	DB	08H
	DB	0ffH
	DB	088H
	DB	064H
	DB	00H
	DB	0ffH
	DB	088H
	DB	064H
	DB	00H
	DB	0ffH
	DB	088H
	DB	064H
	DB	08H
	DB	0ffH
	DB	088H
	DB	064H
	DB	00H
	DB	0ffH
	DB	088H
	DB	064H
	DB	00H
	DB	0ffH
	DB	088H
	DB	064H
	DB	08H
	DB	0ffH
	DB	088H
	DB	064H
	DB	00H
	DB	0ffH
	DB	088H
	DB	064H
	DB	00H
	DB	0ffH
	DB	088H
	DB	064H
	DB	08H
	DB	0ffH
	DB	088H
	DB	064H
	DB	00H
	DB	0ffH
	DB	088H
	DB	064H
	DB	00H
	DB	0ffH
	DB	088H
	DB	064H
	DB	08H
	DB	0ffH
	DB	088H
	DB	064H
	DB	00H
	DB	0ffH
	DB	088H
	DB	064H
	DB	00H
	DB	0ffH
	DB	088H
	DB	064H
	DB	08H
	DB	0ffH
	DB	088H
	DB	064H
	DB	00H
	DB	0ffH
	DB	088H
	DB	064H
	DB	00H
	DB	0ffH
	DB	088H
	DB	064H
	DB	08H
	DB	0ffH
	DB	088H
	DB	064H
	DB	00H
	DB	0ffH
	DB	088H
	DB	064H
	DB	00H
	DB	0ffH
	DB	088H
	DB	064H
	DB	08H
	DB	0ffH
	DB	088H
	DB	064H
	DB	00H
	DB	0ffH
	DB	088H
	DB	064H
	DB	00H
	DB	0ffH
	DB	088H
	DB	064H
	DB	08H
	DB	0ffH
	DB	088H
	DB	064H
	DB	00H
	DB	0ffH
	DB	088H
	DB	064H
	DB	00H
	DB	0ffH
	DB	088H
	DB	064H
	DB	08H
	DB	0ffH
	DB	088H
	DB	064H
	DB	00H
	DB	0ffH
	DB	088H
	DB	064H
	DB	00H
	DB	0ffH
	DB	088H
	DB	064H
	DB	08H
	DB	0ffH
	DB	088H
	DB	064H
	DB	00H
	DB	0ffH
	DB	088H
	DB	064H
	DB	00H
	DB	0ffH
	DB	080H
	DB	05cH
	DB	08H
	DB	0ffH
	DB	068H
	DB	050H
	DB	00H
	DB	0ffH
	DB	00H
	DB	00H
	DB	00H
	DB	0ffH
	DB	00H
	DB	00H
	DB	00H
	DB	0ffH
	DB	0d8H
	DB	0d8H
	DB	0d8H
	DB	0ffH
	DB	0d8H
	DB	0d4H
	DB	0d8H
	DB	0ffH
	DB	0d8H
	DB	0d8H
	DB	0d8H
	DB	0ffH
	DB	0d8H
	DB	0d8H
	DB	0d8H
	DB	0ffH
	DB	0d8H
	DB	0d8H
	DB	0d8H
	DB	0ffH
	DB	0d8H
	DB	0d4H
	DB	0d8H
	DB	0ffH
	DB	0d8H
	DB	0d8H
	DB	0d8H
	DB	0ffH
	DB	0d8H
	DB	0d8H
	DB	0d8H
	DB	0ffH
	DB	0d8H
	DB	0d4H
	DB	0d8H
	DB	0ffH
	DB	0d8H
	DB	0d8H
	DB	0d8H
	DB	0ffH
	DB	0d8H
	DB	0d4H
	DB	0d8H
	DB	0ffH
	DB	0d8H
	DB	0d8H
	DB	0d8H
	DB	0ffH
	DB	0d8H
	DB	0d8H
	DB	0d8H
	DB	0ffH
	DB	0d8H
	DB	0d4H
	DB	0d8H
	DB	0ffH
	DB	0d8H
	DB	0d8H
	DB	0d8H
	DB	0ffH
	DB	0d8H
	DB	0d8H
	DB	0d8H
	DB	0ffH
	DB	0d8H
	DB	0d4H
	DB	0d8H
	DB	0ffH
	DB	0d8H
	DB	0d8H
	DB	0d8H
	DB	0ffH
	DB	0d8H
	DB	0d4H
	DB	0d8H
	DB	0ffH
	DB	0d8H
	DB	0d4H
	DB	0d8H
	DB	0ffH
	DB	0d8H
	DB	0d8H
	DB	0d8H
	DB	0ffH
	DB	0d0H
	DB	0d0H
	DB	0d0H
	DB	0ffH
	DB	0d0H
	DB	0d0H
	DB	0d0H
	DB	0ffH
	DB	0d8H
	DB	0d8H
	DB	0d8H
	DB	0ffH
	DB	0d8H
	DB	0d8H
	DB	0d8H
	DB	0ffH
	DB	0d8H
	DB	0d8H
	DB	0d8H
	DB	0ffH
	DB	0d8H
	DB	0d8H
	DB	0d8H
	DB	0ffH
	DB	0d8H
	DB	0d8H
	DB	0d8H
	DB	0ffH
	DB	0d8H
	DB	0d4H
	DB	0d8H
	DB	0ffH
	DB	0d8H
	DB	0d8H
	DB	0d8H
	DB	0ffH
	DB	0d8H
	DB	0d4H
	DB	0d8H
	DB	0ffH
	DB	0d8H
	DB	0d4H
	DB	0d8H
	DB	0ffH
	DB	0d8H
	DB	0d8H
	DB	0d8H
	DB	0ffH
	DB	0d8H
	DB	0d4H
	DB	0d8H
	DB	0ffH
	DB	0d8H
	DB	0d4H
	DB	0d8H
	DB	0ffH
	DB	0d8H
	DB	0d8H
	DB	0d8H
	DB	0ffH
	DB	0d8H
	DB	0d8H
	DB	0d8H
	DB	0ffH
	DB	0d8H
	DB	0d8H
	DB	0d8H
	DB	0ffH
	DB	0d8H
	DB	0d8H
	DB	0d8H
	DB	0ffH
	DB	0d8H
	DB	0d8H
	DB	0d8H
	DB	0ffH
	DB	0d8H
	DB	0d8H
	DB	0d8H
	DB	0ffH
	DB	0d8H
	DB	0d8H
	DB	0d8H
	DB	0ffH
	DB	0d8H
	DB	0d4H
	DB	0d8H
	DB	0ffH
	DB	0d8H
	DB	0d8H
	DB	0d8H
	DB	0ffH
	DB	0d8H
	DB	0d8H
	DB	0d0H
	DB	0ffH
	DB	0d8H
	DB	0d8H
	DB	0d8H
	DB	0ffH
	DB	0d8H
	DB	0d4H
	DB	0d8H
	DB	0ffH
	DB	0d8H
	DB	0d8H
	DB	0d0H
	DB	0ffH
	DB	0d8H
	DB	0d8H
	DB	0d8H
	DB	0ffH
	DB	0d8H
	DB	0d4H
	DB	0d8H
	DB	0ffH
	DB	0d8H
	DB	0d8H
	DB	0d8H
	DB	0ffH
	DB	0d8H
	DB	0d8H
	DB	0d8H
	DB	0ffH
	DB	0d8H
	DB	0d4H
	DB	0d8H
	DB	0ffH
	DB	0d8H
	DB	0d8H
	DB	0d8H
	DB	0ffH
	DB	0d8H
	DB	0d8H
	DB	0d8H
	DB	0ffH
	DB	0a0H
	DB	0a4H
	DB	0a0H
	DB	0ffH
	DB	00H
	DB	00H
	DB	00H
	DB	0ffH
	DB	00H
	DB	00H
	DB	00H
	DB	0ffH
	DB	010H
	DB	0cH
	DB	010H
	DB	0ffH
	DB	0f0H
	DB	0f0H
	DB	0f0H
	DB	0ffH
	DB	0f8H
	DB	0fcH
	DB	0f8H
	DB	0ffH
	DB	0f8H
	DB	0fcH
	DB	0f8H
	DB	0ffH
	DB	0f8H
	DB	0fcH
	DB	0f8H
	DB	02cH
	DB	0f8H
	DB	0fcH
	DB	0f8H
	DB	071H
	DB	0f8H
	DB	0fcH
	DB	0f8H
	DB	0ffH
	DB	0f8H
	DB	0fcH
	DB	0f8H
	DB	0ffH
	DB	0a8H
	DB	0a8H
	DB	0a8H
	DB	0ffH
	DB	00H
	DB	00H
	DB	00H
	DB	0ffH
	DB	00H
	DB	00H
	DB	00H
	DB	0ffH
	DB	010H
	DB	0cH
	DB	00H
	DB	0ffH
	DB	068H
	DB	04cH
	DB	00H
	DB	0ffH
	DB	078H
	DB	058H
	DB	00H
	DB	0ffH
	DB	080H
	DB	060H
	DB	00H
	DB	0ffH
	DB	088H
	DB	064H
	DB	00H
	DB	0ffH
	DB	088H
	DB	064H
	DB	00H
	DB	0ffH
	DB	088H
	DB	064H
	DB	00H
	DB	0ffH
	DB	088H
	DB	064H
	DB	00H
	DB	0ffH
	DB	088H
	DB	064H
	DB	08H
	DB	0ffH
	DB	088H
	DB	064H
	DB	00H
	DB	0ffH
	DB	088H
	DB	064H
	DB	00H
	DB	0ffH
	DB	088H
	DB	064H
	DB	08H
	DB	0ffH
	DB	088H
	DB	064H
	DB	00H
	DB	0ffH
	DB	088H
	DB	064H
	DB	00H
	DB	0ffH
	DB	088H
	DB	064H
	DB	00H
	DB	0ffH
	DB	088H
	DB	064H
	DB	00H
	DB	0ffH
	DB	080H
	DB	06cH
	DB	08H
	DB	0ffH
	DB	048H
	DB	0a0H
	DB	028H
	DB	0ffH
	DB	020H
	DB	0c0H
	DB	038H
	DB	0ffH
	DB	020H
	DB	0c8H
	DB	040H
	DB	0ffH
	DB	020H
	DB	0c8H
	DB	040H
	DB	0ffH
	DB	028H
	DB	0bcH
	DB	038H
	DB	0ffH
	DB	058H
	DB	094H
	DB	020H
	DB	0ffH
	DB	088H
	DB	064H
	DB	00H
	DB	0ffH
	DB	088H
	DB	064H
	DB	00H
	DB	0ffH
	DB	088H
	DB	064H
	DB	00H
	DB	0ffH
	DB	088H
	DB	064H
	DB	00H
	DB	0ffH
	DB	038H
	DB	0b0H
	DB	030H
	DB	0ffH
	DB	018H
	DB	0c8H
	DB	040H
	DB	0ffH
	DB	020H
	DB	0c8H
	DB	040H
	DB	0ffH
	DB	018H
	DB	0c8H
	DB	040H
	DB	0ffH
	DB	020H
	DB	0c8H
	DB	040H
	DB	0ffH
	DB	018H
	DB	0c8H
	DB	040H
	DB	0ffH
	DB	088H
	DB	064H
	DB	00H
	DB	0ffH
	DB	088H
	DB	064H
	DB	00H
	DB	0ffH
	DB	060H
	DB	08cH
	DB	018H
	DB	0ffH
	DB	018H
	DB	0c8H
	DB	040H
	DB	0ffH
	DB	020H
	DB	0c8H
	DB	040H
	DB	0ffH
	DB	018H
	DB	0c8H
	DB	040H
	DB	0ffH
	DB	018H
	DB	0c8H
	DB	040H
	DB	0ffH
	DB	020H
	DB	0c8H
	DB	040H
	DB	0ffH
	DB	060H
	DB	088H
	DB	018H
	DB	0ffH
	DB	088H
	DB	064H
	DB	00H
	DB	0ffH
	DB	088H
	DB	064H
	DB	00H
	DB	0ffH
	DB	088H
	DB	064H
	DB	00H
	DB	0ffH
	DB	088H
	DB	064H
	DB	00H
	DB	0ffH
	DB	088H
	DB	064H
	DB	00H
	DB	0ffH
	DB	088H
	DB	064H
	DB	00H
	DB	0ffH
	DB	088H
	DB	064H
	DB	00H
	DB	0ffH
	DB	088H
	DB	064H
	DB	00H
	DB	0ffH
	DB	088H
	DB	068H
	DB	00H
	DB	0ffH
	DB	088H
	DB	064H
	DB	00H
	DB	0ffH
	DB	088H
	DB	064H
	DB	00H
	DB	0ffH
	DB	088H
	DB	064H
	DB	00H
	DB	0ffH
	DB	088H
	DB	064H
	DB	00H
	DB	0ffH
	DB	080H
	DB	05cH
	DB	00H
	DB	0ffH
	DB	068H
	DB	050H
	DB	00H
	DB	0ffH
	DB	00H
	DB	00H
	DB	00H
	DB	0ffH
	DB	00H
	DB	00H
	DB	00H
	DB	0ffH
	DB	0d8H
	DB	0d8H
	DB	0d8H
	DB	0ffH
	DB	0d8H
	DB	0d8H
	DB	0d8H
	DB	0ffH
	DB	0d8H
	DB	0d4H
	DB	0d8H
	DB	0ffH
	DB	0d8H
	DB	0d8H
	DB	0d8H
	DB	0ffH
	DB	0d0H
	DB	0d8H
	DB	0d8H
	DB	0ffH
	DB	0d8H
	DB	0d8H
	DB	0d0H
	DB	0ffH
	DB	0d8H
	DB	0d8H
	DB	0d8H
	DB	0ffH
	DB	0d8H
	DB	0d8H
	DB	0d8H
	DB	0ffH
	DB	0d8H
	DB	0d8H
	DB	0d8H
	DB	0ffH
	DB	0d0H
	DB	0d4H
	DB	0d8H
	DB	0ffH
	DB	0d8H
	DB	0d8H
	DB	0d0H
	DB	0ffH
	DB	0d8H
	DB	0d8H
	DB	0d8H
	DB	0ffH
	DB	0d8H
	DB	0d8H
	DB	0d8H
	DB	0ffH
	DB	0d0H
	DB	0d8H
	DB	0d8H
	DB	0ffH
	DB	0d8H
	DB	0d8H
	DB	0d0H
	DB	0ffH
	DB	0d8H
	DB	0d8H
	DB	0d8H
	DB	0ffH
	DB	0d0H
	DB	0d8H
	DB	0d8H
	DB	0ffH
	DB	0d8H
	DB	0d8H
	DB	0d0H
	DB	0ffH
	DB	0d0H
	DB	0d4H
	DB	0d0H
	DB	0ffH
	DB	0b0H
	DB	0b4H
	DB	0b0H
	DB	0ffH
	DB	0a0H
	DB	0a0H
	DB	0a0H
	DB	0ffH
	DB	098H
	DB	09cH
	DB	098H
	DB	0ffH
	DB	098H
	DB	09cH
	DB	098H
	DB	0ffH
	DB	0a0H
	DB	0a0H
	DB	0a0H
	DB	0ffH
	DB	0b8H
	DB	0bcH
	DB	0b8H
	DB	0ffH
	DB	0d8H
	DB	0d4H
	DB	0d8H
	DB	0ffH
	DB	0d8H
	DB	0d8H
	DB	0d8H
	DB	0ffH
	DB	0d8H
	DB	0d8H
	DB	0d8H
	DB	0ffH
	DB	0d0H
	DB	0d8H
	DB	0d0H
	DB	0ffH
	DB	0a8H
	DB	0acH
	DB	0a8H
	DB	0ffH
	DB	098H
	DB	09cH
	DB	098H
	DB	0ffH
	DB	098H
	DB	09cH
	DB	098H
	DB	0ffH
	DB	0c8H
	DB	0ccH
	DB	0c8H
	DB	0ffH
	DB	0d8H
	DB	0d8H
	DB	0d8H
	DB	0ffH
	DB	0d8H
	DB	0d8H
	DB	0d8H
	DB	0ffH
	DB	0d8H
	DB	0d4H
	DB	0d0H
	DB	0ffH
	DB	0a0H
	DB	0a8H
	DB	0a8H
	DB	0ffH
	DB	098H
	DB	098H
	DB	098H
	DB	0ffH
	DB	0d0H
	DB	0d0H
	DB	0d0H
	DB	0ffH
	DB	0d8H
	DB	0d4H
	DB	0d8H
	DB	0ffH
	DB	0d8H
	DB	0d8H
	DB	0d0H
	DB	0ffH
	DB	0d8H
	DB	0d8H
	DB	0d8H
	DB	0ffH
	DB	0d0H
	DB	0d8H
	DB	0d8H
	DB	0ffH
	DB	0d8H
	DB	0d4H
	DB	0d8H
	DB	0ffH
	DB	0d8H
	DB	0d8H
	DB	0d8H
	DB	0ffH
	DB	0d8H
	DB	0d8H
	DB	0d8H
	DB	0ffH
	DB	0d0H
	DB	0d8H
	DB	0d8H
	DB	0ffH
	DB	0d8H
	DB	0d4H
	DB	0d8H
	DB	0ffH
	DB	0d8H
	DB	0d8H
	DB	0d8H
	DB	0ffH
	DB	0d0H
	DB	0d8H
	DB	0d8H
	DB	0ffH
	DB	0d8H
	DB	0d8H
	DB	0d0H
	DB	0ffH
	DB	0d8H
	DB	0d8H
	DB	0d8H
	DB	0ffH
	DB	0d0H
	DB	0d4H
	DB	0d8H
	DB	0ffH
	DB	0d8H
	DB	0d8H
	DB	0d0H
	DB	0ffH
	DB	0d8H
	DB	0d8H
	DB	0d8H
	DB	0ffH
	DB	0d8H
	DB	0d8H
	DB	0d8H
	DB	0ffH
	DB	028H
	DB	028H
	DB	028H
	DB	0ffH
	DB	00H
	DB	00H
	DB	00H
	DB	0ffH
	DB	00H
	DB	00H
	DB	00H
	DB	0ffH
	DB	0a8H
	DB	0a8H
	DB	0a8H
	DB	0ffH
	DB	0f8H
	DB	0fcH
	DB	0f8H
	DB	0ffH
	DB	0f8H
	DB	0fcH
	DB	0f8H
	DB	0ffH
	DB	0f8H
	DB	0fcH
	DB	0f8H
	DB	071H
	DB	0f8H
	DB	0fcH
	DB	0f8H
	DB	0a6H
	DB	0f8H
	DB	0fcH
	DB	0f8H
	DB	0ffH
	DB	0f8H
	DB	0fcH
	DB	0f8H
	DB	0ffH
	DB	068H
	DB	064H
	DB	068H
	DB	0ffH
	DB	00H
	DB	00H
	DB	00H
	DB	0ffH
	DB	00H
	DB	00H
	DB	00H
	DB	0ffH
	DB	030H
	DB	024H
	DB	08H
	DB	0ffH
	DB	070H
	DB	050H
	DB	00H
	DB	0ffH
	DB	080H
	DB	05cH
	DB	00H
	DB	0ffH
	DB	080H
	DB	064H
	DB	00H
	DB	0ffH
	DB	088H
	DB	064H
	DB	00H
	DB	0ffH
	DB	088H
	DB	064H
	DB	00H
	DB	0ffH
	DB	088H
	DB	068H
	DB	00H
	DB	0ffH
	DB	088H
	DB	068H
	DB	00H
	DB	0ffH
	DB	088H
	DB	068H
	DB	00H
	DB	0ffH
	DB	088H
	DB	068H
	DB	00H
	DB	0ffH
	DB	088H
	DB	068H
	DB	00H
	DB	0ffH
	DB	088H
	DB	068H
	DB	00H
	DB	0ffH
	DB	088H
	DB	068H
	DB	00H
	DB	0ffH
	DB	088H
	DB	068H
	DB	00H
	DB	0ffH
	DB	088H
	DB	068H
	DB	00H
	DB	0ffH
	DB	088H
	DB	068H
	DB	00H
	DB	0ffH
	DB	030H
	DB	0b4H
	DB	030H
	DB	0ffH
	DB	020H
	DB	0c8H
	DB	040H
	DB	0ffH
	DB	020H
	DB	0c0H
	DB	038H
	DB	0ffH
	DB	040H
	DB	0a8H
	DB	028H
	DB	0ffH
	DB	038H
	DB	0b0H
	DB	030H
	DB	0ffH
	DB	020H
	DB	0c8H
	DB	038H
	DB	0ffH
	DB	020H
	DB	0c8H
	DB	040H
	DB	0ffH
	DB	048H
	DB	0a0H
	DB	028H
	DB	0ffH
	DB	088H
	DB	068H
	DB	00H
	DB	0ffH
	DB	088H
	DB	068H
	DB	00H
	DB	0ffH
	DB	088H
	DB	068H
	DB	00H
	DB	0ffH
	DB	038H
	DB	0acH
	DB	030H
	DB	0ffH
	DB	020H
	DB	0c8H
	DB	040H
	DB	0ffH
	DB	030H
	DB	0b4H
	DB	030H
	DB	0ffH
	DB	038H
	DB	0b0H
	DB	030H
	DB	0ffH
	DB	038H
	DB	0b0H
	DB	030H
	DB	0ffH
	DB	038H
	DB	0b0H
	DB	030H
	DB	0ffH
	DB	088H
	DB	068H
	DB	00H
	DB	0ffH
	DB	088H
	DB	068H
	DB	00H
	DB	0ffH
	DB	060H
	DB	08cH
	DB	018H
	DB	0ffH
	DB	020H
	DB	0c8H
	DB	040H
	DB	0ffH
	DB	020H
	DB	0c0H
	DB	038H
	DB	0ffH
	DB	038H
	DB	0b0H
	DB	030H
	DB	0ffH
	DB	038H
	DB	0b0H
	DB	030H
	DB	0ffH
	DB	038H
	DB	0acH
	DB	028H
	DB	0ffH
	DB	070H
	DB	080H
	DB	010H
	DB	0ffH
	DB	088H
	DB	068H
	DB	00H
	DB	0ffH
	DB	088H
	DB	068H
	DB	00H
	DB	0ffH
	DB	088H
	DB	068H
	DB	00H
	DB	0ffH
	DB	088H
	DB	068H
	DB	00H
	DB	0ffH
	DB	088H
	DB	068H
	DB	00H
	DB	0ffH
	DB	088H
	DB	068H
	DB	08H
	DB	0ffH
	DB	088H
	DB	068H
	DB	00H
	DB	0ffH
	DB	088H
	DB	068H
	DB	00H
	DB	0ffH
	DB	088H
	DB	068H
	DB	00H
	DB	0ffH
	DB	088H
	DB	068H
	DB	08H
	DB	0ffH
	DB	088H
	DB	068H
	DB	00H
	DB	0ffH
	DB	088H
	DB	068H
	DB	00H
	DB	0ffH
	DB	088H
	DB	064H
	DB	00H
	DB	0ffH
	DB	080H
	DB	05cH
	DB	00H
	DB	0ffH
	DB	070H
	DB	050H
	DB	00H
	DB	0ffH
	DB	00H
	DB	00H
	DB	00H
	DB	0ffH
	DB	00H
	DB	00H
	DB	00H
	DB	0ffH
	DB	0d8H
	DB	0d8H
	DB	0d8H
	DB	0ffH
	DB	0d8H
	DB	0d8H
	DB	0d8H
	DB	0ffH
	DB	0d8H
	DB	0d8H
	DB	0d0H
	DB	0ffH
	DB	0d8H
	DB	0d4H
	DB	0d8H
	DB	0ffH
	DB	0d8H
	DB	0d8H
	DB	0d8H
	DB	0ffH
	DB	0d8H
	DB	0d8H
	DB	0d8H
	DB	0ffH
	DB	0d0H
	DB	0d4H
	DB	0d8H
	DB	0ffH
	DB	0d8H
	DB	0d8H
	DB	0d8H
	DB	0ffH
	DB	0d8H
	DB	0d8H
	DB	0d0H
	DB	0ffH
	DB	0d8H
	DB	0d8H
	DB	0d8H
	DB	0ffH
	DB	0d8H
	DB	0d8H
	DB	0d8H
	DB	0ffH
	DB	0d8H
	DB	0d4H
	DB	0d8H
	DB	0ffH
	DB	0d8H
	DB	0d4H
	DB	0d8H
	DB	0ffH
	DB	0d8H
	DB	0d8H
	DB	0d8H
	DB	0ffH
	DB	0d8H
	DB	0d8H
	DB	0d8H
	DB	0ffH
	DB	0d8H
	DB	0d4H
	DB	0d8H
	DB	0ffH
	DB	0d8H
	DB	0d8H
	DB	0d8H
	DB	0ffH
	DB	0d8H
	DB	0d8H
	DB	0d8H
	DB	0ffH
	DB	0a8H
	DB	0a8H
	DB	0a8H
	DB	0ffH
	DB	098H
	DB	09cH
	DB	098H
	DB	0ffH
	DB	0a0H
	DB	09cH
	DB	0a0H
	DB	0ffH
	DB	0b0H
	DB	0b0H
	DB	0b0H
	DB	0ffH
	DB	0a8H
	DB	0acH
	DB	0a8H
	DB	0ffH
	DB	098H
	DB	09cH
	DB	098H
	DB	0ffH
	DB	098H
	DB	09cH
	DB	098H
	DB	0ffH
	DB	0b0H
	DB	0b0H
	DB	0b0H
	DB	0ffH
	DB	0d8H
	DB	0d8H
	DB	0d8H
	DB	0ffH
	DB	0d8H
	DB	0d8H
	DB	0d8H
	DB	0ffH
	DB	0d8H
	DB	0d4H
	DB	0d8H
	DB	0ffH
	DB	0a8H
	DB	0acH
	DB	0a8H
	DB	0ffH
	DB	098H
	DB	09cH
	DB	098H
	DB	0ffH
	DB	098H
	DB	09cH
	DB	098H
	DB	0ffH
	DB	0a8H
	DB	0a8H
	DB	0a8H
	DB	0ffH
	DB	0d8H
	DB	0d8H
	DB	0d8H
	DB	0ffH
	DB	0d8H
	DB	0d8H
	DB	0d8H
	DB	0ffH
	DB	0d8H
	DB	0d8H
	DB	0d8H
	DB	0ffH
	DB	0a8H
	DB	0a8H
	DB	0a8H
	DB	0ffH
	DB	098H
	DB	09cH
	DB	098H
	DB	0ffH
	DB	0d0H
	DB	0ccH
	DB	0d0H
	DB	0ffH
	DB	0d8H
	DB	0d8H
	DB	0d8H
	DB	0ffH
	DB	0d0H
	DB	0d8H
	DB	0d8H
	DB	0ffH
	DB	0d8H
	DB	0d4H
	DB	0d8H
	DB	0ffH
	DB	0d8H
	DB	0d8H
	DB	0d8H
	DB	0ffH
	DB	0d8H
	DB	0d8H
	DB	0d8H
	DB	0ffH
	DB	0d8H
	DB	0d4H
	DB	0d8H
	DB	0ffH
	DB	0d8H
	DB	0d8H
	DB	0d8H
	DB	0ffH
	DB	0d8H
	DB	0d8H
	DB	0d8H
	DB	0ffH
	DB	0d8H
	DB	0d8H
	DB	0d8H
	DB	0ffH
	DB	0d8H
	DB	0d8H
	DB	0d8H
	DB	0ffH
	DB	0d8H
	DB	0d4H
	DB	0d8H
	DB	0ffH
	DB	0d8H
	DB	0d8H
	DB	0d8H
	DB	0ffH
	DB	0d8H
	DB	0d8H
	DB	0d8H
	DB	0ffH
	DB	0d8H
	DB	0d8H
	DB	0d8H
	DB	0ffH
	DB	0d8H
	DB	0d8H
	DB	0d8H
	DB	0ffH
	DB	0d8H
	DB	0d4H
	DB	0d8H
	DB	0ffH
	DB	0d8H
	DB	0d8H
	DB	0d8H
	DB	0ffH
	DB	068H
	DB	06cH
	DB	068H
	DB	0ffH
	DB	00H
	DB	00H
	DB	00H
	DB	0ffH
	DB	00H
	DB	00H
	DB	00H
	DB	0ffH
	DB	068H
	DB	064H
	DB	068H
	DB	0ffH
	DB	0f8H
	DB	0fcH
	DB	0f8H
	DB	0ffH
	DB	0f8H
	DB	0fcH
	DB	0f8H
	DB	0ffH
	DB	0f8H
	DB	0fcH
	DB	0f8H
	DB	0aaH
	DB	0f8H
	DB	0fcH
	DB	0f8H
	DB	0cfH
	DB	0f8H
	DB	0fcH
	DB	0f8H
	DB	0ffH
	DB	0f8H
	DB	0fcH
	DB	0f8H
	DB	0ffH
	DB	038H
	DB	038H
	DB	038H
	DB	0ffH
	DB	00H
	DB	00H
	DB	00H
	DB	0ffH
	DB	00H
	DB	00H
	DB	00H
	DB	0ffH
	DB	050H
	DB	03cH
	DB	08H
	DB	0ffH
	DB	070H
	DB	058H
	DB	00H
	DB	0ffH
	DB	080H
	DB	060H
	DB	00H
	DB	0ffH
	DB	088H
	DB	064H
	DB	00H
	DB	0ffH
	DB	088H
	DB	068H
	DB	08H
	DB	0ffH
	DB	088H
	DB	068H
	DB	00H
	DB	0ffH
	DB	088H
	DB	068H
	DB	00H
	DB	0ffH
	DB	090H
	DB	068H
	DB	00H
	DB	0ffH
	DB	088H
	DB	068H
	DB	00H
	DB	0ffH
	DB	088H
	DB	068H
	DB	00H
	DB	0ffH
	DB	090H
	DB	068H
	DB	00H
	DB	0ffH
	DB	088H
	DB	068H
	DB	00H
	DB	0ffH
	DB	088H
	DB	068H
	DB	00H
	DB	0ffH
	DB	090H
	DB	068H
	DB	08H
	DB	0ffH
	DB	088H
	DB	068H
	DB	00H
	DB	0ffH
	DB	060H
	DB	08cH
	DB	018H
	DB	0ffH
	DB	020H
	DB	0c8H
	DB	040H
	DB	0ffH
	DB	028H
	DB	0c4H
	DB	038H
	DB	0ffH
	DB	078H
	DB	074H
	DB	08H
	DB	0ffH
	DB	088H
	DB	068H
	DB	00H
	DB	0ffH
	DB	088H
	DB	068H
	DB	00H
	DB	0ffH
	DB	070H
	DB	080H
	DB	010H
	DB	0ffH
	DB	020H
	DB	0c8H
	DB	040H
	DB	0ffH
	DB	018H
	DB	0c8H
	DB	040H
	DB	0ffH
	DB	078H
	DB	07cH
	DB	010H
	DB	0ffH
	DB	088H
	DB	068H
	DB	00H
	DB	0ffH
	DB	090H
	DB	068H
	DB	00H
	DB	0ffH
	DB	038H
	DB	0acH
	DB	030H
	DB	0ffH
	DB	020H
	DB	0c8H
	DB	040H
	DB	0ffH
	DB	068H
	DB	088H
	DB	010H
	DB	0ffH
	DB	088H
	DB	068H
	DB	00H
	DB	0ffH
	DB	090H
	DB	068H
	DB	00H
	DB	0ffH
	DB	090H
	DB	064H
	DB	00H
	DB	0ffH
	DB	088H
	DB	068H
	DB	00H
	DB	0ffH
	DB	088H
	DB	068H
	DB	00H
	DB	0ffH
	DB	060H
	DB	090H
	DB	018H
	DB	0ffH
	DB	020H
	DB	0c8H
	DB	040H
	DB	0ffH
	DB	040H
	DB	0a8H
	DB	028H
	DB	0ffH
	DB	090H
	DB	068H
	DB	00H
	DB	0ffH
	DB	090H
	DB	068H
	DB	00H
	DB	0ffH
	DB	088H
	DB	068H
	DB	00H
	DB	0ffH
	DB	088H
	DB	068H
	DB	00H
	DB	0ffH
	DB	090H
	DB	068H
	DB	00H
	DB	0ffH
	DB	088H
	DB	068H
	DB	00H
	DB	0ffH
	DB	090H
	DB	068H
	DB	08H
	DB	0ffH
	DB	088H
	DB	068H
	DB	00H
	DB	0ffH
	DB	088H
	DB	068H
	DB	00H
	DB	0ffH
	DB	090H
	DB	068H
	DB	00H
	DB	0ffH
	DB	088H
	DB	068H
	DB	00H
	DB	0ffH
	DB	088H
	DB	068H
	DB	00H
	DB	0ffH
	DB	090H
	DB	064H
	DB	00H
	DB	0ffH
	DB	088H
	DB	068H
	DB	00H
	DB	0ffH
	DB	088H
	DB	068H
	DB	00H
	DB	0ffH
	DB	088H
	DB	068H
	DB	00H
	DB	0ffH
	DB	088H
	DB	064H
	DB	08H
	DB	0ffH
	DB	080H
	DB	05cH
	DB	00H
	DB	0ffH
	DB	070H
	DB	050H
	DB	00H
	DB	0ffH
	DB	00H
	DB	00H
	DB	00H
	DB	0ffH
	DB	00H
	DB	00H
	DB	00H
	DB	0ffH
	DB	0d8H
	DB	0d4H
	DB	0d8H
	DB	0ffH
	DB	0d0H
	DB	0d8H
	DB	0d8H
	DB	0ffH
	DB	0d8H
	DB	0d8H
	DB	0d8H
	DB	0ffH
	DB	0d8H
	DB	0d8H
	DB	0d8H
	DB	0ffH
	DB	0d8H
	DB	0d4H
	DB	0d8H
	DB	0ffH
	DB	0d8H
	DB	0d8H
	DB	0d8H
	DB	0ffH
	DB	0d8H
	DB	0d8H
	DB	0d8H
	DB	0ffH
	DB	0d8H
	DB	0d4H
	DB	0d8H
	DB	0ffH
	DB	0d8H
	DB	0d8H
	DB	0d8H
	DB	0ffH
	DB	0d8H
	DB	0d8H
	DB	0d8H
	DB	0ffH
	DB	0d0H
	DB	0d8H
	DB	0d8H
	DB	0ffH
	DB	0d8H
	DB	0d8H
	DB	0d8H
	DB	0ffH
	DB	0d8H
	DB	0d8H
	DB	0d0H
	DB	0ffH
	DB	0d8H
	DB	0d8H
	DB	0d8H
	DB	0ffH
	DB	0d8H
	DB	0d4H
	DB	0d8H
	DB	0ffH
	DB	0d8H
	DB	0d8H
	DB	0d8H
	DB	0ffH
	DB	0d8H
	DB	0d4H
	DB	0d8H
	DB	0ffH
	DB	0c0H
	DB	0c0H
	DB	0c0H
	DB	0ffH
	DB	098H
	DB	098H
	DB	098H
	DB	0ffH
	DB	0a0H
	DB	0a0H
	DB	0a0H
	DB	0ffH
	DB	0d0H
	DB	0d0H
	DB	0d0H
	DB	0ffH
	DB	0d8H
	DB	0d4H
	DB	0d8H
	DB	0ffH
	DB	0d8H
	DB	0d8H
	DB	0d8H
	DB	0ffH
	DB	0c8H
	DB	0c8H
	DB	0c8H
	DB	0ffH
	DB	0a0H
	DB	09cH
	DB	0a0H
	DB	0ffH
	DB	098H
	DB	09cH
	DB	098H
	DB	0ffH
	DB	0c8H
	DB	0ccH
	DB	0c8H
	DB	0ffH
	DB	0d8H
	DB	0d4H
	DB	0d8H
	DB	0ffH
	DB	0d8H
	DB	0d8H
	DB	0d8H
	DB	0ffH
	DB	0a8H
	DB	0acH
	DB	0a8H
	DB	0ffH
	DB	0a0H
	DB	098H
	DB	0a0H
	DB	0ffH
	DB	0a0H
	DB	0a0H
	DB	0a0H
	DB	0ffH
	DB	098H
	DB	09cH
	DB	098H
	DB	0ffH
	DB	0c0H
	DB	0bcH
	DB	0c0H
	DB	0ffH
	DB	0d8H
	DB	0d4H
	DB	0d8H
	DB	0ffH
	DB	0d8H
	DB	0d8H
	DB	0d8H
	DB	0ffH
	DB	0a8H
	DB	0a8H
	DB	0a8H
	DB	0ffH
	DB	098H
	DB	09cH
	DB	098H
	DB	0ffH
	DB	0d0H
	DB	0d0H
	DB	0d0H
	DB	0ffH
	DB	0d8H
	DB	0d8H
	DB	0d8H
	DB	0ffH
	DB	0d8H
	DB	0d8H
	DB	0d8H
	DB	0ffH
	DB	0d8H
	DB	0d4H
	DB	0d8H
	DB	0ffH
	DB	0d8H
	DB	0d8H
	DB	0d0H
	DB	0ffH
	DB	0d8H
	DB	0d8H
	DB	0d8H
	DB	0ffH
	DB	0d8H
	DB	0d8H
	DB	0d8H
	DB	0ffH
	DB	0d0H
	DB	0d4H
	DB	0d0H
	DB	0ffH
	DB	0d8H
	DB	0d8H
	DB	0d8H
	DB	0ffH
	DB	0d8H
	DB	0d8H
	DB	0d8H
	DB	0ffH
	DB	0d8H
	DB	0d4H
	DB	0d0H
	DB	0ffH
	DB	0d8H
	DB	0d8H
	DB	0d8H
	DB	0ffH
	DB	0d0H
	DB	0d8H
	DB	0d8H
	DB	0ffH
	DB	0d8H
	DB	0d4H
	DB	0d8H
	DB	0ffH
	DB	0d8H
	DB	0d8H
	DB	0d8H
	DB	0ffH
	DB	0d8H
	DB	0d8H
	DB	0d8H
	DB	0ffH
	DB	0d8H
	DB	0d8H
	DB	0d8H
	DB	0ffH
	DB	0d8H
	DB	0d8H
	DB	0d8H
	DB	0ffH
	DB	0a0H
	DB	0a0H
	DB	0a0H
	DB	0ffH
	DB	00H
	DB	00H
	DB	00H
	DB	0ffH
	DB	00H
	DB	00H
	DB	00H
	DB	0ffH
	DB	038H
	DB	038H
	DB	038H
	DB	0ffH
	DB	0f8H
	DB	0fcH
	DB	0f8H
	DB	0ffH
	DB	0f8H
	DB	0fcH
	DB	0f8H
	DB	0ffH
	DB	0f8H
	DB	0fcH
	DB	0f8H
	DB	0cfH
	DB	0f8H
	DB	0fcH
	DB	0f8H
	DB	0ebH
	DB	0f8H
	DB	0fcH
	DB	0f8H
	DB	0ffH
	DB	0f8H
	DB	0fcH
	DB	0f8H
	DB	0ffH
	DB	010H
	DB	014H
	DB	010H
	DB	0ffH
	DB	00H
	DB	00H
	DB	00H
	DB	0ffH
	DB	00H
	DB	00H
	DB	00H
	DB	0ffH
	DB	060H
	DB	048H
	DB	08H
	DB	0ffH
	DB	078H
	DB	05cH
	DB	00H
	DB	0ffH
	DB	088H
	DB	060H
	DB	00H
	DB	0ffH
	DB	088H
	DB	068H
	DB	00H
	DB	0ffH
	DB	090H
	DB	068H
	DB	00H
	DB	0ffH
	DB	090H
	DB	068H
	DB	00H
	DB	0ffH
	DB	090H
	DB	064H
	DB	08H
	DB	0ffH
	DB	090H
	DB	064H
	DB	00H
	DB	0ffH
	DB	088H
	DB	068H
	DB	00H
	DB	0ffH
	DB	090H
	DB	064H
	DB	08H
	DB	0ffH
	DB	090H
	DB	064H
	DB	00H
	DB	0ffH
	DB	090H
	DB	068H
	DB	00H
	DB	0ffH
	DB	090H
	DB	064H
	DB	00H
	DB	0ffH
	DB	088H
	DB	068H
	DB	00H
	DB	0ffH
	DB	090H
	DB	068H
	DB	00H
	DB	0ffH
	DB	040H
	DB	0a8H
	DB	028H
	DB	0ffH
	DB	020H
	DB	0c8H
	DB	040H
	DB	0ffH
	DB	048H
	DB	0a0H
	DB	028H
	DB	0ffH
	DB	090H
	DB	068H
	DB	00H
	DB	0ffH
	DB	090H
	DB	068H
	DB	00H
	DB	0ffH
	DB	088H
	DB	068H
	DB	00H
	DB	0ffH
	DB	088H
	DB	068H
	DB	00H
	DB	0ffH
	DB	038H
	DB	0acH
	DB	028H
	DB	0ffH
	DB	020H
	DB	0c8H
	DB	040H
	DB	0ffH
	DB	058H
	DB	094H
	DB	020H
	DB	0ffH
	DB	090H
	DB	068H
	DB	00H
	DB	0ffH
	DB	088H
	DB	068H
	DB	00H
	DB	0ffH
	DB	038H
	DB	0acH
	DB	030H
	DB	0ffH
	DB	020H
	DB	0c8H
	DB	038H
	DB	0ffH
	DB	068H
	DB	088H
	DB	018H
	DB	0ffH
	DB	088H
	DB	068H
	DB	00H
	DB	0ffH
	DB	090H
	DB	064H
	DB	00H
	DB	0ffH
	DB	090H
	DB	068H
	DB	00H
	DB	0ffH
	DB	088H
	DB	068H
	DB	00H
	DB	0ffH
	DB	090H
	DB	068H
	DB	00H
	DB	0ffH
	DB	060H
	DB	08cH
	DB	018H
	DB	0ffH
	DB	020H
	DB	0c8H
	DB	040H
	DB	0ffH
	DB	040H
	DB	0a8H
	DB	028H
	DB	0ffH
	DB	088H
	DB	068H
	DB	00H
	DB	0ffH
	DB	090H
	DB	068H
	DB	00H
	DB	0ffH
	DB	090H
	DB	068H
	DB	00H
	DB	0ffH
	DB	088H
	DB	064H
	DB	00H
	DB	0ffH
	DB	090H
	DB	068H
	DB	00H
	DB	0ffH
	DB	090H
	DB	064H
	DB	00H
	DB	0ffH
	DB	088H
	DB	064H
	DB	00H
	DB	0ffH
	DB	090H
	DB	068H
	DB	00H
	DB	0ffH
	DB	090H
	DB	064H
	DB	00H
	DB	0ffH
	DB	090H
	DB	064H
	DB	00H
	DB	0ffH
	DB	090H
	DB	068H
	DB	08H
	DB	0ffH
	DB	090H
	DB	068H
	DB	00H
	DB	0ffH
	DB	090H
	DB	064H
	DB	00H
	DB	0ffH
	DB	090H
	DB	068H
	DB	00H
	DB	0ffH
	DB	090H
	DB	068H
	DB	00H
	DB	0ffH
	DB	090H
	DB	064H
	DB	00H
	DB	0ffH
	DB	088H
	DB	064H
	DB	00H
	DB	0ffH
	DB	080H
	DB	060H
	DB	00H
	DB	0ffH
	DB	070H
	DB	050H
	DB	00H
	DB	0ffH
	DB	00H
	DB	00H
	DB	00H
	DB	0ffH
	DB	00H
	DB	00H
	DB	00H
	DB	0ffH
	DB	0d8H
	DB	0d8H
	DB	0d8H
	DB	0ffH
	DB	0d8H
	DB	0d8H
	DB	0d8H
	DB	0ffH
	DB	0d8H
	DB	0d4H
	DB	0d8H
	DB	0ffH
	DB	0d8H
	DB	0d8H
	DB	0d8H
	DB	0ffH
	DB	0d0H
	DB	0d8H
	DB	0d0H
	DB	0ffH
	DB	0d8H
	DB	0d8H
	DB	0d8H
	DB	0ffH
	DB	0d8H
	DB	0d8H
	DB	0d8H
	DB	0ffH
	DB	0d8H
	DB	0d4H
	DB	0d0H
	DB	0ffH
	DB	0d8H
	DB	0d8H
	DB	0d8H
	DB	0ffH
	DB	0d8H
	DB	0d4H
	DB	0d8H
	DB	0ffH
	DB	0d8H
	DB	0d4H
	DB	0d8H
	DB	0ffH
	DB	0d8H
	DB	0d8H
	DB	0d8H
	DB	0ffH
	DB	0d0H
	DB	0d8H
	DB	0d8H
	DB	0ffH
	DB	0d8H
	DB	0d8H
	DB	0d8H
	DB	0ffH
	DB	0d8H
	DB	0d8H
	DB	0d8H
	DB	0ffH
	DB	0d0H
	DB	0d8H
	DB	0d0H
	DB	0ffH
	DB	0d8H
	DB	0d8H
	DB	0d8H
	DB	0ffH
	DB	0b0H
	DB	0b0H
	DB	0b0H
	DB	0ffH
	DB	098H
	DB	09cH
	DB	098H
	DB	0ffH
	DB	0b0H
	DB	0b4H
	DB	0b0H
	DB	0ffH
	DB	0d8H
	DB	0d8H
	DB	0d8H
	DB	0ffH
	DB	0d8H
	DB	0d8H
	DB	0d8H
	DB	0ffH
	DB	0d8H
	DB	0d4H
	DB	0d8H
	DB	0ffH
	DB	0d8H
	DB	0d8H
	DB	0d8H
	DB	0ffH
	DB	0a8H
	DB	0a8H
	DB	0a8H
	DB	0ffH
	DB	098H
	DB	09cH
	DB	0a0H
	DB	0ffH
	DB	0b8H
	DB	0bcH
	DB	0b8H
	DB	0ffH
	DB	0d8H
	DB	0d8H
	DB	0d8H
	DB	0ffH
	DB	0d8H
	DB	0d8H
	DB	0d8H
	DB	0ffH
	DB	0a8H
	DB	0acH
	DB	0a8H
	DB	0ffH
	DB	0a0H
	DB	09cH
	DB	0a0H
	DB	0ffH
	DB	0c0H
	DB	0c0H
	DB	0c0H
	DB	0ffH
	DB	098H
	DB	09cH
	DB	098H
	DB	0ffH
	DB	0a0H
	DB	0a0H
	DB	0a0H
	DB	0ffH
	DB	0d0H
	DB	0d4H
	DB	0d0H
	DB	0ffH
	DB	0d8H
	DB	0d4H
	DB	0d8H
	DB	0ffH
	DB	0a8H
	DB	0a8H
	DB	0a8H
	DB	0ffH
	DB	098H
	DB	098H
	DB	098H
	DB	0ffH
	DB	0d0H
	DB	0d0H
	DB	0d0H
	DB	0ffH
	DB	0d8H
	DB	0d8H
	DB	0d8H
	DB	0ffH
	DB	0d8H
	DB	0d4H
	DB	0d8H
	DB	0ffH
	DB	0d8H
	DB	0d8H
	DB	0d8H
	DB	0ffH
	DB	0d8H
	DB	0d8H
	DB	0d8H
	DB	0ffH
	DB	0d8H
	DB	0d8H
	DB	0d8H
	DB	0ffH
	DB	0d8H
	DB	0d8H
	DB	0d8H
	DB	0ffH
	DB	0d8H
	DB	0d8H
	DB	0d8H
	DB	0ffH
	DB	0d8H
	DB	0d4H
	DB	0d8H
	DB	0ffH
	DB	0d8H
	DB	0d8H
	DB	0d8H
	DB	0ffH
	DB	0d0H
	DB	0d8H
	DB	0d8H
	DB	0ffH
	DB	0d8H
	DB	0d8H
	DB	0d8H
	DB	0ffH
	DB	0d8H
	DB	0d8H
	DB	0d0H
	DB	0ffH
	DB	0d8H
	DB	0d4H
	DB	0d8H
	DB	0ffH
	DB	0d8H
	DB	0d8H
	DB	0d8H
	DB	0ffH
	DB	0d0H
	DB	0d8H
	DB	0d0H
	DB	0ffH
	DB	0d8H
	DB	0d4H
	DB	0d8H
	DB	0ffH
	DB	0d8H
	DB	0d8H
	DB	0d8H
	DB	0ffH
	DB	0c0H
	DB	0c0H
	DB	0c0H
	DB	0ffH
	DB	00H
	DB	00H
	DB	00H
	DB	0ffH
	DB	00H
	DB	00H
	DB	00H
	DB	0ffH
	DB	010H
	DB	014H
	DB	010H
	DB	0ffH
	DB	0f8H
	DB	0fcH
	DB	0f8H
	DB	0ffH
	DB	0f8H
	DB	0fcH
	DB	0f8H
	DB	0ffH
	DB	0f8H
	DB	0fcH
	DB	0f8H
	DB	0ebH
	DB	0f8H
	DB	0fcH
	DB	0f8H
	DB	0fbH
	DB	0f8H
	DB	0fcH
	DB	0f8H
	DB	0ffH
	DB	0f8H
	DB	0fcH
	DB	0f8H
	DB	0ffH
	DB	08H
	DB	04H
	DB	08H
	DB	0ffH
	DB	00H
	DB	00H
	DB	00H
	DB	0ffH
	DB	00H
	DB	00H
	DB	00H
	DB	0ffH
	DB	068H
	DB	050H
	DB	00H
	DB	0ffH
	DB	080H
	DB	05cH
	DB	00H
	DB	0ffH
	DB	088H
	DB	064H
	DB	00H
	DB	0ffH
	DB	090H
	DB	068H
	DB	00H
	DB	0ffH
	DB	090H
	DB	068H
	DB	00H
	DB	0ffH
	DB	088H
	DB	068H
	DB	00H
	DB	0ffH
	DB	090H
	DB	068H
	DB	00H
	DB	0ffH
	DB	090H
	DB	068H
	DB	00H
	DB	0ffH
	DB	088H
	DB	068H
	DB	00H
	DB	0ffH
	DB	090H
	DB	068H
	DB	00H
	DB	0ffH
	DB	088H
	DB	068H
	DB	00H
	DB	0ffH
	DB	090H
	DB	068H
	DB	08H
	DB	0ffH
	DB	090H
	DB	068H
	DB	00H
	DB	0ffH
	DB	088H
	DB	068H
	DB	00H
	DB	0ffH
	DB	090H
	DB	068H
	DB	00H
	DB	0ffH
	DB	030H
	DB	0b4H
	DB	030H
	DB	0ffH
	DB	020H
	DB	0c8H
	DB	040H
	DB	0ffH
	DB	060H
	DB	08cH
	DB	018H
	DB	0ffH
	DB	090H
	DB	068H
	DB	00H
	DB	0ffH
	DB	090H
	DB	068H
	DB	00H
	DB	0ffH
	DB	090H
	DB	068H
	DB	00H
	DB	0ffH
	DB	090H
	DB	068H
	DB	00H
	DB	0ffH
	DB	048H
	DB	0a0H
	DB	028H
	DB	0ffH
	DB	020H
	DB	0c8H
	DB	038H
	DB	0ffH
	DB	048H
	DB	0a0H
	DB	028H
	DB	0ffH
	DB	090H
	DB	068H
	DB	00H
	DB	0ffH
	DB	090H
	DB	068H
	DB	00H
	DB	0ffH
	DB	038H
	DB	0acH
	DB	030H
	DB	0ffH
	DB	020H
	DB	0c8H
	DB	040H
	DB	0ffH
	DB	030H
	DB	0b4H
	DB	030H
	DB	0ffH
	DB	040H
	DB	0a8H
	DB	028H
	DB	0ffH
	DB	040H
	DB	0a8H
	DB	028H
	DB	0ffH
	DB	058H
	DB	094H
	DB	020H
	DB	0ffH
	DB	090H
	DB	068H
	DB	00H
	DB	0ffH
	DB	090H
	DB	068H
	DB	00H
	DB	0ffH
	DB	060H
	DB	08cH
	DB	018H
	DB	0ffH
	DB	018H
	DB	0c8H
	DB	040H
	DB	0ffH
	DB	028H
	DB	0bcH
	DB	038H
	DB	0ffH
	DB	040H
	DB	0a8H
	DB	028H
	DB	0ffH
	DB	040H
	DB	0a8H
	DB	028H
	DB	0ffH
	DB	040H
	DB	0a8H
	DB	028H
	DB	0ffH
	DB	088H
	DB	06cH
	DB	08H
	DB	0ffH
	DB	090H
	DB	068H
	DB	00H
	DB	0ffH
	DB	088H
	DB	068H
	DB	00H
	DB	0ffH
	DB	090H
	DB	068H
	DB	00H
	DB	0ffH
	DB	090H
	DB	068H
	DB	08H
	DB	0ffH
	DB	088H
	DB	068H
	DB	00H
	DB	0ffH
	DB	088H
	DB	068H
	DB	00H
	DB	0ffH
	DB	090H
	DB	068H
	DB	00H
	DB	0ffH
	DB	088H
	DB	068H
	DB	00H
	DB	0ffH
	DB	088H
	DB	068H
	DB	08H
	DB	0ffH
	DB	090H
	DB	068H
	DB	00H
	DB	0ffH
	DB	090H
	DB	068H
	DB	00H
	DB	0ffH
	DB	088H
	DB	068H
	DB	08H
	DB	0ffH
	DB	088H
	DB	068H
	DB	00H
	DB	0ffH
	DB	080H
	DB	060H
	DB	00H
	DB	0ffH
	DB	070H
	DB	050H
	DB	00H
	DB	0ffH
	DB	00H
	DB	00H
	DB	00H
	DB	0ffH
	DB	00H
	DB	00H
	DB	00H
	DB	0ffH
	DB	0d8H
	DB	0d8H
	DB	0d8H
	DB	0ffH
	DB	0d8H
	DB	0d8H
	DB	0d8H
	DB	0ffH
	DB	0d8H
	DB	0d8H
	DB	0d8H
	DB	0ffH
	DB	0d8H
	DB	0d4H
	DB	0d8H
	DB	0ffH
	DB	0d8H
	DB	0d8H
	DB	0d8H
	DB	0ffH
	DB	0d8H
	DB	0d8H
	DB	0d8H
	DB	0ffH
	DB	0d8H
	DB	0d4H
	DB	0d8H
	DB	0ffH
	DB	0d0H
	DB	0d8H
	DB	0d8H
	DB	0ffH
	DB	0d8H
	DB	0d8H
	DB	0d8H
	DB	0ffH
	DB	0d8H
	DB	0d8H
	DB	0d8H
	DB	0ffH
	DB	0d8H
	DB	0d8H
	DB	0d0H
	DB	0ffH
	DB	0d8H
	DB	0d4H
	DB	0d8H
	DB	0ffH
	DB	0d8H
	DB	0d8H
	DB	0d8H
	DB	0ffH
	DB	0d8H
	DB	0d4H
	DB	0d8H
	DB	0ffH
	DB	0d8H
	DB	0d8H
	DB	0d8H
	DB	0ffH
	DB	0d8H
	DB	0d8H
	DB	0d8H
	DB	0ffH
	DB	0d8H
	DB	0d4H
	DB	0d8H
	DB	0ffH
	DB	0a8H
	DB	0a8H
	DB	0a8H
	DB	0ffH
	DB	098H
	DB	098H
	DB	098H
	DB	0ffH
	DB	0c0H
	DB	0c0H
	DB	0c0H
	DB	0ffH
	DB	0d8H
	DB	0d8H
	DB	0d8H
	DB	0ffH
	DB	0d8H
	DB	0d4H
	DB	0d8H
	DB	0ffH
	DB	0d8H
	DB	0d8H
	DB	0d8H
	DB	0ffH
	DB	0d8H
	DB	0d8H
	DB	0d8H
	DB	0ffH
	DB	0b0H
	DB	0b4H
	DB	0b0H
	DB	0ffH
	DB	0a0H
	DB	098H
	DB	098H
	DB	0ffH
	DB	0b8H
	DB	0b4H
	DB	0b0H
	DB	0ffH
	DB	0d8H
	DB	0d4H
	DB	0d8H
	DB	0ffH
	DB	0d8H
	DB	0d4H
	DB	0d8H
	DB	0ffH
	DB	0a8H
	DB	0acH
	DB	0a8H
	DB	0ffH
	DB	098H
	DB	09cH
	DB	098H
	DB	0ffH
	DB	0d0H
	DB	0ccH
	DB	0d0H
	DB	0ffH
	DB	0a8H
	DB	0acH
	DB	0a8H
	DB	0ffH
	DB	098H
	DB	09cH
	DB	098H
	DB	0ffH
	DB	0b8H
	DB	0b8H
	DB	0b8H
	DB	0ffH
	DB	0d8H
	DB	0d8H
	DB	0d8H
	DB	0ffH
	DB	0a8H
	DB	0a8H
	DB	0a8H
	DB	0ffH
	DB	098H
	DB	098H
	DB	098H
	DB	0ffH
	DB	0d0H
	DB	0d0H
	DB	0d0H
	DB	0ffH
	DB	0d8H
	DB	0d8H
	DB	0d8H
	DB	0ffH
	DB	0d8H
	DB	0d8H
	DB	0d0H
	DB	0ffH
	DB	0d0H
	DB	0d8H
	DB	0d8H
	DB	0ffH
	DB	0d8H
	DB	0d4H
	DB	0d8H
	DB	0ffH
	DB	0d8H
	DB	0d8H
	DB	0d8H
	DB	0ffH
	DB	0d0H
	DB	0d8H
	DB	0d8H
	DB	0ffH
	DB	0d8H
	DB	0d4H
	DB	0d8H
	DB	0ffH
	DB	0d8H
	DB	0d8H
	DB	0d0H
	DB	0ffH
	DB	0d8H
	DB	0d8H
	DB	0d8H
	DB	0ffH
	DB	0d8H
	DB	0d4H
	DB	0d8H
	DB	0ffH
	DB	0d8H
	DB	0d8H
	DB	0d8H
	DB	0ffH
	DB	0d8H
	DB	0d8H
	DB	0d8H
	DB	0ffH
	DB	0d8H
	DB	0d8H
	DB	0d8H
	DB	0ffH
	DB	0d8H
	DB	0d8H
	DB	0d8H
	DB	0ffH
	DB	0d8H
	DB	0d4H
	DB	0d8H
	DB	0ffH
	DB	0d8H
	DB	0d8H
	DB	0d8H
	DB	0ffH
	DB	0d8H
	DB	0d8H
	DB	0d8H
	DB	0ffH
	DB	0d0H
	DB	0d0H
	DB	0d0H
	DB	0ffH
	DB	00H
	DB	00H
	DB	00H
	DB	0ffH
	DB	00H
	DB	00H
	DB	00H
	DB	0ffH
	DB	08H
	DB	04H
	DB	08H
	DB	0ffH
	DB	0f8H
	DB	0fcH
	DB	0f8H
	DB	0ffH
	DB	0f8H
	DB	0fcH
	DB	0f8H
	DB	0ffH
	DB	0f8H
	DB	0fcH
	DB	0f8H
	DB	0fbH
	DB	0f8H
	DB	0fcH
	DB	0f8H
	DB	0f7H
	DB	0f8H
	DB	0fcH
	DB	0f8H
	DB	0ffH
	DB	0f8H
	DB	0fcH
	DB	0f8H
	DB	0ffH
	DB	08H
	DB	08H
	DB	08H
	DB	0ffH
	DB	00H
	DB	00H
	DB	00H
	DB	0ffH
	DB	00H
	DB	00H
	DB	00H
	DB	0ffH
	DB	068H
	DB	050H
	DB	00H
	DB	0ffH
	DB	080H
	DB	05cH
	DB	00H
	DB	0ffH
	DB	088H
	DB	068H
	DB	00H
	DB	0ffH
	DB	090H
	DB	068H
	DB	08H
	DB	0ffH
	DB	090H
	DB	068H
	DB	00H
	DB	0ffH
	DB	088H
	DB	068H
	DB	00H
	DB	0ffH
	DB	090H
	DB	068H
	DB	00H
	DB	0ffH
	DB	090H
	DB	068H
	DB	00H
	DB	0ffH
	DB	090H
	DB	068H
	DB	08H
	DB	0ffH
	DB	090H
	DB	068H
	DB	00H
	DB	0ffH
	DB	090H
	DB	068H
	DB	00H
	DB	0ffH
	DB	088H
	DB	068H
	DB	00H
	DB	0ffH
	DB	090H
	DB	068H
	DB	00H
	DB	0ffH
	DB	090H
	DB	068H
	DB	00H
	DB	0ffH
	DB	090H
	DB	068H
	DB	00H
	DB	0ffH
	DB	030H
	DB	0b4H
	DB	030H
	DB	0ffH
	DB	020H
	DB	0c8H
	DB	040H
	DB	0ffH
	DB	060H
	DB	090H
	DB	018H
	DB	0ffH
	DB	088H
	DB	068H
	DB	00H
	DB	0ffH
	DB	090H
	DB	068H
	DB	00H
	DB	0ffH
	DB	090H
	DB	068H
	DB	00H
	DB	0ffH
	DB	090H
	DB	068H
	DB	00H
	DB	0ffH
	DB	048H
	DB	0a4H
	DB	028H
	DB	0ffH
	DB	020H
	DB	0c8H
	DB	040H
	DB	0ffH
	DB	048H
	DB	0a0H
	DB	020H
	DB	0ffH
	DB	090H
	DB	068H
	DB	00H
	DB	0ffH
	DB	090H
	DB	068H
	DB	00H
	DB	0ffH
	DB	038H
	DB	0b0H
	DB	030H
	DB	0ffH
	DB	020H
	DB	0c8H
	DB	038H
	DB	0ffH
	DB	020H
	DB	0c8H
	DB	040H
	DB	0ffH
	DB	020H
	DB	0c8H
	DB	040H
	DB	0ffH
	DB	020H
	DB	0c8H
	DB	040H
	DB	0ffH
	DB	038H
	DB	0b0H
	DB	030H
	DB	0ffH
	DB	090H
	DB	068H
	DB	00H
	DB	0ffH
	DB	090H
	DB	068H
	DB	00H
	DB	0ffH
	DB	060H
	DB	090H
	DB	018H
	DB	0ffH
	DB	020H
	DB	0c8H
	DB	040H
	DB	0ffH
	DB	020H
	DB	0c8H
	DB	040H
	DB	0ffH
	DB	020H
	DB	0c8H
	DB	040H
	DB	0ffH
	DB	020H
	DB	0c8H
	DB	040H
	DB	0ffH
	DB	020H
	DB	0c8H
	DB	040H
	DB	0ffH
	DB	088H
	DB	070H
	DB	08H
	DB	0ffH
	DB	090H
	DB	068H
	DB	00H
	DB	0ffH
	DB	090H
	DB	068H
	DB	00H
	DB	0ffH
	DB	090H
	DB	068H
	DB	00H
	DB	0ffH
	DB	090H
	DB	068H
	DB	00H
	DB	0ffH
	DB	090H
	DB	068H
	DB	00H
	DB	0ffH
	DB	090H
	DB	068H
	DB	00H
	DB	0ffH
	DB	090H
	DB	068H
	DB	00H
	DB	0ffH
	DB	090H
	DB	068H
	DB	00H
	DB	0ffH
	DB	090H
	DB	068H
	DB	00H
	DB	0ffH
	DB	090H
	DB	068H
	DB	00H
	DB	0ffH
	DB	090H
	DB	068H
	DB	00H
	DB	0ffH
	DB	090H
	DB	068H
	DB	00H
	DB	0ffH
	DB	088H
	DB	068H
	DB	00H
	DB	0ffH
	DB	080H
	DB	060H
	DB	00H
	DB	0ffH
	DB	070H
	DB	054H
	DB	08H
	DB	0ffH
	DB	00H
	DB	00H
	DB	00H
	DB	0ffH
	DB	00H
	DB	00H
	DB	00H
	DB	0ffH
	DB	0d8H
	DB	0d8H
	DB	0d8H
	DB	0ffH
	DB	0d0H
	DB	0d8H
	DB	0d8H
	DB	0ffH
	DB	0d8H
	DB	0d8H
	DB	0d8H
	DB	0ffH
	DB	0d8H
	DB	0d4H
	DB	0d8H
	DB	0ffH
	DB	0d8H
	DB	0d8H
	DB	0d8H
	DB	0ffH
	DB	0d8H
	DB	0d8H
	DB	0d8H
	DB	0ffH
	DB	0d8H
	DB	0d8H
	DB	0d8H
	DB	0ffH
	DB	0d8H
	DB	0d8H
	DB	0d8H
	DB	0ffH
	DB	0d8H
	DB	0d8H
	DB	0d8H
	DB	0ffH
	DB	0d0H
	DB	0d8H
	DB	0d8H
	DB	0ffH
	DB	0d8H
	DB	0d8H
	DB	0d8H
	DB	0ffH
	DB	0d8H
	DB	0d8H
	DB	0d8H
	DB	0ffH
	DB	0d8H
	DB	0d8H
	DB	0d8H
	DB	0ffH
	DB	0d8H
	DB	0d4H
	DB	0d0H
	DB	0ffH
	DB	0d8H
	DB	0d8H
	DB	0d8H
	DB	0ffH
	DB	0d8H
	DB	0d8H
	DB	0d8H
	DB	0ffH
	DB	0d8H
	DB	0d4H
	DB	0d8H
	DB	0ffH
	DB	0a8H
	DB	0a8H
	DB	0a8H
	DB	0ffH
	DB	098H
	DB	09cH
	DB	098H
	DB	0ffH
	DB	0c0H
	DB	0bcH
	DB	0c0H
	DB	0ffH
	DB	0d8H
	DB	0d8H
	DB	0d8H
	DB	0ffH
	DB	0d8H
	DB	0d8H
	DB	0d8H
	DB	0ffH
	DB	0d8H
	DB	0d8H
	DB	0d8H
	DB	0ffH
	DB	0d8H
	DB	0d8H
	DB	0d8H
	DB	0ffH
	DB	0b0H
	DB	0b4H
	DB	0b0H
	DB	0ffH
	DB	098H
	DB	09cH
	DB	0a0H
	DB	0ffH
	DB	0b0H
	DB	0b4H
	DB	0b0H
	DB	0ffH
	DB	0d8H
	DB	0d8H
	DB	0d8H
	DB	0ffH
	DB	0d8H
	DB	0d8H
	DB	0d8H
	DB	0ffH
	DB	0a8H
	DB	0acH
	DB	0a8H
	DB	0ffH
	DB	0a0H
	DB	098H
	DB	0a0H
	DB	0ffH
	DB	0d0H
	DB	0d0H
	DB	0d0H
	DB	0ffH
	DB	0c8H
	DB	0ccH
	DB	0c8H
	DB	0ffH
	DB	0a0H
	DB	098H
	DB	0a0H
	DB	0ffH
	DB	098H
	DB	09cH
	DB	098H
	DB	0ffH
	DB	0d0H
	DB	0d0H
	DB	0d0H
	DB	0ffH
	DB	0a8H
	DB	0acH
	DB	0a8H
	DB	0ffH
	DB	098H
	DB	09cH
	DB	098H
	DB	0ffH
	DB	0d0H
	DB	0ccH
	DB	0d0H
	DB	0ffH
	DB	0d8H
	DB	0d8H
	DB	0d8H
	DB	0ffH
	DB	0d8H
	DB	0d8H
	DB	0d8H
	DB	0ffH
	DB	0d8H
	DB	0d4H
	DB	0d8H
	DB	0ffH
	DB	0d8H
	DB	0d8H
	DB	0d8H
	DB	0ffH
	DB	0d8H
	DB	0d8H
	DB	0d0H
	DB	0ffH
	DB	0d8H
	DB	0d4H
	DB	0d8H
	DB	0ffH
	DB	0d8H
	DB	0d8H
	DB	0d8H
	DB	0ffH
	DB	0d8H
	DB	0d8H
	DB	0d8H
	DB	0ffH
	DB	0d8H
	DB	0d8H
	DB	0d8H
	DB	0ffH
	DB	0d8H
	DB	0d8H
	DB	0d8H
	DB	0ffH
	DB	0d8H
	DB	0d4H
	DB	0d8H
	DB	0ffH
	DB	0d0H
	DB	0d8H
	DB	0d8H
	DB	0ffH
	DB	0d8H
	DB	0d8H
	DB	0d8H
	DB	0ffH
	DB	0d8H
	DB	0d4H
	DB	0d8H
	DB	0ffH
	DB	0d8H
	DB	0d8H
	DB	0d8H
	DB	0ffH
	DB	0d8H
	DB	0d8H
	DB	0d8H
	DB	0ffH
	DB	0d8H
	DB	0d8H
	DB	0d8H
	DB	0ffH
	DB	0d0H
	DB	0d0H
	DB	0d0H
	DB	0ffH
	DB	00H
	DB	00H
	DB	00H
	DB	0ffH
	DB	00H
	DB	00H
	DB	00H
	DB	0ffH
	DB	08H
	DB	08H
	DB	08H
	DB	0ffH
	DB	0f8H
	DB	0fcH
	DB	0f8H
	DB	0ffH
	DB	0f8H
	DB	0fcH
	DB	0f8H
	DB	0ffH
	DB	0f8H
	DB	0fcH
	DB	0f8H
	DB	0f7H
	DB	0f8H
	DB	0fcH
	DB	0f8H
	DB	0ebH
	DB	0f8H
	DB	0fcH
	DB	0f8H
	DB	0ffH
	DB	0f8H
	DB	0fcH
	DB	0f8H
	DB	0ffH
	DB	010H
	DB	014H
	DB	010H
	DB	0ffH
	DB	00H
	DB	00H
	DB	00H
	DB	0ffH
	DB	00H
	DB	00H
	DB	00H
	DB	0ffH
	DB	068H
	DB	04cH
	DB	08H
	DB	0ffH
	DB	080H
	DB	05cH
	DB	00H
	DB	0ffH
	DB	088H
	DB	068H
	DB	00H
	DB	0ffH
	DB	090H
	DB	068H
	DB	00H
	DB	0ffH
	DB	090H
	DB	068H
	DB	00H
	DB	0ffH
	DB	090H
	DB	068H
	DB	00H
	DB	0ffH
	DB	090H
	DB	068H
	DB	00H
	DB	0ffH
	DB	090H
	DB	068H
	DB	00H
	DB	0ffH
	DB	090H
	DB	068H
	DB	00H
	DB	0ffH
	DB	090H
	DB	068H
	DB	00H
	DB	0ffH
	DB	090H
	DB	06cH
	DB	00H
	DB	0ffH
	DB	090H
	DB	068H
	DB	00H
	DB	0ffH
	DB	090H
	DB	068H
	DB	00H
	DB	0ffH
	DB	090H
	DB	068H
	DB	08H
	DB	0ffH
	DB	090H
	DB	068H
	DB	00H
	DB	0ffH
	DB	040H
	DB	0a8H
	DB	028H
	DB	0ffH
	DB	020H
	DB	0c8H
	DB	040H
	DB	0ffH
	DB	048H
	DB	0a4H
	DB	028H
	DB	0ffH
	DB	090H
	DB	068H
	DB	00H
	DB	0ffH
	DB	090H
	DB	068H
	DB	00H
	DB	0ffH
	DB	090H
	DB	068H
	DB	00H
	DB	0ffH
	DB	090H
	DB	068H
	DB	00H
	DB	0ffH
	DB	030H
	DB	0b4H
	DB	030H
	DB	0ffH
	DB	020H
	DB	0c8H
	DB	040H
	DB	0ffH
	DB	058H
	DB	094H
	DB	020H
	DB	0ffH
	DB	090H
	DB	068H
	DB	00H
	DB	0ffH
	DB	090H
	DB	068H
	DB	00H
	DB	0ffH
	DB	038H
	DB	0b0H
	DB	030H
	DB	0ffH
	DB	020H
	DB	0c8H
	DB	038H
	DB	0ffH
	DB	060H
	DB	090H
	DB	018H
	DB	0ffH
	DB	088H
	DB	070H
	DB	08H
	DB	0ffH
	DB	088H
	DB	070H
	DB	00H
	DB	0ffH
	DB	088H
	DB	070H
	DB	08H
	DB	0ffH
	DB	090H
	DB	068H
	DB	00H
	DB	0ffH
	DB	090H
	DB	068H
	DB	00H
	DB	0ffH
	DB	060H
	DB	090H
	DB	018H
	DB	0ffH
	DB	020H
	DB	0c8H
	DB	040H
	DB	0ffH
	DB	040H
	DB	0a8H
	DB	028H
	DB	0ffH
	DB	088H
	DB	070H
	DB	00H
	DB	0ffH
	DB	088H
	DB	070H
	DB	08H
	DB	0ffH
	DB	088H
	DB	070H
	DB	08H
	DB	0ffH
	DB	090H
	DB	068H
	DB	00H
	DB	0ffH
	DB	090H
	DB	068H
	DB	00H
	DB	0ffH
	DB	090H
	DB	068H
	DB	00H
	DB	0ffH
	DB	090H
	DB	068H
	DB	00H
	DB	0ffH
	DB	090H
	DB	06cH
	DB	00H
	DB	0ffH
	DB	090H
	DB	068H
	DB	00H
	DB	0ffH
	DB	090H
	DB	068H
	DB	08H
	DB	0ffH
	DB	090H
	DB	068H
	DB	00H
	DB	0ffH
	DB	090H
	DB	068H
	DB	00H
	DB	0ffH
	DB	090H
	DB	068H
	DB	00H
	DB	0ffH
	DB	090H
	DB	068H
	DB	00H
	DB	0ffH
	DB	090H
	DB	068H
	DB	00H
	DB	0ffH
	DB	090H
	DB	068H
	DB	00H
	DB	0ffH
	DB	090H
	DB	068H
	DB	00H
	DB	0ffH
	DB	080H
	DB	060H
	DB	00H
	DB	0ffH
	DB	070H
	DB	054H
	DB	00H
	DB	0ffH
	DB	00H
	DB	00H
	DB	00H
	DB	0ffH
	DB	00H
	DB	00H
	DB	00H
	DB	0ffH
	DB	0d8H
	DB	0d4H
	DB	0d8H
	DB	0ffH
	DB	0d8H
	DB	0d8H
	DB	0d8H
	DB	0ffH
	DB	0d8H
	DB	0d8H
	DB	0d8H
	DB	0ffH
	DB	0d8H
	DB	0d8H
	DB	0d0H
	DB	0ffH
	DB	0d0H
	DB	0d4H
	DB	0d8H
	DB	0ffH
	DB	0d8H
	DB	0d8H
	DB	0d8H
	DB	0ffH
	DB	0d8H
	DB	0d8H
	DB	0d0H
	DB	0ffH
	DB	0d8H
	DB	0d4H
	DB	0d8H
	DB	0ffH
	DB	0d8H
	DB	0d4H
	DB	0d8H
	DB	0ffH
	DB	0d8H
	DB	0d8H
	DB	0d8H
	DB	0ffH
	DB	0d8H
	DB	0d4H
	DB	0d8H
	DB	0ffH
	DB	0d8H
	DB	0d8H
	DB	0d8H
	DB	0ffH
	DB	0d0H
	DB	0d8H
	DB	0d8H
	DB	0ffH
	DB	0d8H
	DB	0d8H
	DB	0d8H
	DB	0ffH
	DB	0d8H
	DB	0d8H
	DB	0d8H
	DB	0ffH
	DB	0d0H
	DB	0d8H
	DB	0d8H
	DB	0ffH
	DB	0d8H
	DB	0d8H
	DB	0d8H
	DB	0ffH
	DB	0b0H
	DB	0b0H
	DB	0b0H
	DB	0ffH
	DB	098H
	DB	09cH
	DB	098H
	DB	0ffH
	DB	0b0H
	DB	0b4H
	DB	0b0H
	DB	0ffH
	DB	0d8H
	DB	0d4H
	DB	0d8H
	DB	0ffH
	DB	0d8H
	DB	0d8H
	DB	0d8H
	DB	0ffH
	DB	0d8H
	DB	0d4H
	DB	0d8H
	DB	0ffH
	DB	0d8H
	DB	0d4H
	DB	0d8H
	DB	0ffH
	DB	0a8H
	DB	0a8H
	DB	0a8H
	DB	0ffH
	DB	098H
	DB	09cH
	DB	098H
	DB	0ffH
	DB	0b8H
	DB	0b8H
	DB	0c0H
	DB	0ffH
	DB	0d8H
	DB	0d8H
	DB	0d8H
	DB	0ffH
	DB	0d8H
	DB	0d8H
	DB	0d8H
	DB	0ffH
	DB	0a8H
	DB	0acH
	DB	0a8H
	DB	0ffH
	DB	098H
	DB	09cH
	DB	0a0H
	DB	0ffH
	DB	0d0H
	DB	0d0H
	DB	0d0H
	DB	0ffH
	DB	0d8H
	DB	0d8H
	DB	0d8H
	DB	0ffH
	DB	0b0H
	DB	0b0H
	DB	0b0H
	DB	0ffH
	DB	098H
	DB	09cH
	DB	098H
	DB	0ffH
	DB	0b0H
	DB	0acH
	DB	0b0H
	DB	0ffH
	DB	0a8H
	DB	0acH
	DB	0a8H
	DB	0ffH
	DB	098H
	DB	09cH
	DB	098H
	DB	0ffH
	DB	0d0H
	DB	0d0H
	DB	0d0H
	DB	0ffH
	DB	0d8H
	DB	0d4H
	DB	0d8H
	DB	0ffH
	DB	0d8H
	DB	0d8H
	DB	0d8H
	DB	0ffH
	DB	0d8H
	DB	0d8H
	DB	0d8H
	DB	0ffH
	DB	0d8H
	DB	0d8H
	DB	0d8H
	DB	0ffH
	DB	0d8H
	DB	0d8H
	DB	0d8H
	DB	0ffH
	DB	0d8H
	DB	0d8H
	DB	0d8H
	DB	0ffH
	DB	0d0H
	DB	0d8H
	DB	0d8H
	DB	0ffH
	DB	0d8H
	DB	0d4H
	DB	0d8H
	DB	0ffH
	DB	0d8H
	DB	0d8H
	DB	0d8H
	DB	0ffH
	DB	0d0H
	DB	0d8H
	DB	0d0H
	DB	0ffH
	DB	0d8H
	DB	0d8H
	DB	0d8H
	DB	0ffH
	DB	0d8H
	DB	0d4H
	DB	0d8H
	DB	0ffH
	DB	0d8H
	DB	0d8H
	DB	0d0H
	DB	0ffH
	DB	0d8H
	DB	0d8H
	DB	0d8H
	DB	0ffH
	DB	0d0H
	DB	0d8H
	DB	0d8H
	DB	0ffH
	DB	0d8H
	DB	0d8H
	DB	0d8H
	DB	0ffH
	DB	0d8H
	DB	0d8H
	DB	0d8H
	DB	0ffH
	DB	0c0H
	DB	0c0H
	DB	0c0H
	DB	0ffH
	DB	00H
	DB	00H
	DB	00H
	DB	0ffH
	DB	00H
	DB	00H
	DB	00H
	DB	0ffH
	DB	010H
	DB	014H
	DB	010H
	DB	0ffH
	DB	0f8H
	DB	0fcH
	DB	0f8H
	DB	0ffH
	DB	0f8H
	DB	0fcH
	DB	0f8H
	DB	0ffH
	DB	0f8H
	DB	0fcH
	DB	0f8H
	DB	0ebH
	DB	0f8H
	DB	0fcH
	DB	0f8H
	DB	0d3H
	DB	0f8H
	DB	0fcH
	DB	0f8H
	DB	0ffH
	DB	0f8H
	DB	0fcH
	DB	0f8H
	DB	0ffH
	DB	038H
	DB	038H
	DB	038H
	DB	0ffH
	DB	00H
	DB	00H
	DB	00H
	DB	0ffH
	DB	00H
	DB	00H
	DB	00H
	DB	0ffH
	DB	058H
	DB	040H
	DB	08H
	DB	0ffH
	DB	080H
	DB	05cH
	DB	00H
	DB	0ffH
	DB	088H
	DB	068H
	DB	00H
	DB	0ffH
	DB	090H
	DB	06cH
	DB	00H
	DB	0ffH
	DB	090H
	DB	06cH
	DB	00H
	DB	0ffH
	DB	090H
	DB	06cH
	DB	08H
	DB	0ffH
	DB	090H
	DB	06cH
	DB	00H
	DB	0ffH
	DB	090H
	DB	06cH
	DB	00H
	DB	0ffH
	DB	090H
	DB	06cH
	DB	00H
	DB	0ffH
	DB	090H
	DB	06cH
	DB	00H
	DB	0ffH
	DB	090H
	DB	06cH
	DB	08H
	DB	0ffH
	DB	090H
	DB	06cH
	DB	00H
	DB	0ffH
	DB	090H
	DB	06cH
	DB	00H
	DB	0ffH
	DB	090H
	DB	06cH
	DB	00H
	DB	0ffH
	DB	090H
	DB	06cH
	DB	00H
	DB	0ffH
	DB	068H
	DB	088H
	DB	018H
	DB	0ffH
	DB	020H
	DB	0c8H
	DB	040H
	DB	0ffH
	DB	028H
	DB	0c4H
	DB	038H
	DB	0ffH
	DB	080H
	DB	078H
	DB	08H
	DB	0ffH
	DB	090H
	DB	06cH
	DB	00H
	DB	0ffH
	DB	090H
	DB	06cH
	DB	00H
	DB	0ffH
	DB	070H
	DB	084H
	DB	010H
	DB	0ffH
	DB	018H
	DB	0c8H
	DB	040H
	DB	0ffH
	DB	020H
	DB	0c8H
	DB	040H
	DB	0ffH
	DB	078H
	DB	080H
	DB	08H
	DB	0ffH
	DB	090H
	DB	06cH
	DB	00H
	DB	0ffH
	DB	090H
	DB	06cH
	DB	00H
	DB	0ffH
	DB	038H
	DB	0b0H
	DB	030H
	DB	0ffH
	DB	020H
	DB	0c8H
	DB	040H
	DB	0ffH
	DB	068H
	DB	088H
	DB	010H
	DB	0ffH
	DB	090H
	DB	068H
	DB	00H
	DB	0ffH
	DB	090H
	DB	068H
	DB	00H
	DB	0ffH
	DB	090H
	DB	068H
	DB	00H
	DB	0ffH
	DB	090H
	DB	06cH
	DB	00H
	DB	0ffH
	DB	090H
	DB	068H
	DB	00H
	DB	0ffH
	DB	060H
	DB	090H
	DB	018H
	DB	0ffH
	DB	018H
	DB	0c8H
	DB	040H
	DB	0ffH
	DB	040H
	DB	0a8H
	DB	028H
	DB	0ffH
	DB	090H
	DB	068H
	DB	00H
	DB	0ffH
	DB	090H
	DB	068H
	DB	00H
	DB	0ffH
	DB	090H
	DB	068H
	DB	00H
	DB	0ffH
	DB	090H
	DB	06cH
	DB	00H
	DB	0ffH
	DB	090H
	DB	06cH
	DB	00H
	DB	0ffH
	DB	090H
	DB	06cH
	DB	00H
	DB	0ffH
	DB	090H
	DB	06cH
	DB	08H
	DB	0ffH
	DB	090H
	DB	06cH
	DB	00H
	DB	0ffH
	DB	090H
	DB	06cH
	DB	00H
	DB	0ffH
	DB	090H
	DB	06cH
	DB	00H
	DB	0ffH
	DB	090H
	DB	06cH
	DB	00H
	DB	0ffH
	DB	090H
	DB	06cH
	DB	00H
	DB	0ffH
	DB	090H
	DB	06cH
	DB	08H
	DB	0ffH
	DB	090H
	DB	06cH
	DB	00H
	DB	0ffH
	DB	090H
	DB	06cH
	DB	00H
	DB	0ffH
	DB	090H
	DB	06cH
	DB	08H
	DB	0ffH
	DB	090H
	DB	068H
	DB	00H
	DB	0ffH
	DB	080H
	DB	060H
	DB	00H
	DB	0ffH
	DB	070H
	DB	054H
	DB	00H
	DB	0ffH
	DB	00H
	DB	00H
	DB	00H
	DB	0ffH
	DB	00H
	DB	00H
	DB	00H
	DB	0ffH
	DB	0d8H
	DB	0d8H
	DB	0d8H
	DB	0ffH
	DB	0d8H
	DB	0d4H
	DB	0d8H
	DB	0ffH
	DB	0d8H
	DB	0d8H
	DB	0d8H
	DB	0ffH
	DB	0d8H
	DB	0d8H
	DB	0d8H
	DB	0ffH
	DB	0d8H
	DB	0d8H
	DB	0d8H
	DB	0ffH
	DB	0d8H
	DB	0d4H
	DB	0d8H
	DB	0ffH
	DB	0d0H
	DB	0d8H
	DB	0d8H
	DB	0ffH
	DB	0d8H
	DB	0d8H
	DB	0d8H
	DB	0ffH
	DB	0d8H
	DB	0d8H
	DB	0d0H
	DB	0ffH
	DB	0d8H
	DB	0d8H
	DB	0d8H
	DB	0ffH
	DB	0d8H
	DB	0d8H
	DB	0d8H
	DB	0ffH
	DB	0d8H
	DB	0d4H
	DB	0d0H
	DB	0ffH
	DB	0d8H
	DB	0d8H
	DB	0d8H
	DB	0ffH
	DB	0d8H
	DB	0d8H
	DB	0d8H
	DB	0ffH
	DB	0d8H
	DB	0d4H
	DB	0d8H
	DB	0ffH
	DB	0d8H
	DB	0d8H
	DB	0d0H
	DB	0ffH
	DB	0d8H
	DB	0d4H
	DB	0d8H
	DB	0ffH
	DB	0c0H
	DB	0c4H
	DB	0c0H
	DB	0ffH
	DB	098H
	DB	09cH
	DB	098H
	DB	0ffH
	DB	0a0H
	DB	0a0H
	DB	0a0H
	DB	0ffH
	DB	0d0H
	DB	0d0H
	DB	0d0H
	DB	0ffH
	DB	0d8H
	DB	0d8H
	DB	0d8H
	DB	0ffH
	DB	0d8H
	DB	0d8H
	DB	0d8H
	DB	0ffH
	DB	0c8H
	DB	0c8H
	DB	0c8H
	DB	0ffH
	DB	098H
	DB	09cH
	DB	098H
	DB	0ffH
	DB	0a0H
	DB	098H
	DB	098H
	DB	0ffH
	DB	0d0H
	DB	0ccH
	DB	0c8H
	DB	0ffH
	DB	0d8H
	DB	0d8H
	DB	0d8H
	DB	0ffH
	DB	0d8H
	DB	0d4H
	DB	0d8H
	DB	0ffH
	DB	0a8H
	DB	0a8H
	DB	0a8H
	DB	0ffH
	DB	0a0H
	DB	09cH
	DB	098H
	DB	0ffH
	DB	0d0H
	DB	0d0H
	DB	0d0H
	DB	0ffH
	DB	0d8H
	DB	0d4H
	DB	0d8H
	DB	0ffH
	DB	0d0H
	DB	0d4H
	DB	0d0H
	DB	0ffH
	DB	0a0H
	DB	0a0H
	DB	0a0H
	DB	0ffH
	DB	0a0H
	DB	09cH
	DB	0a0H
	DB	0ffH
	DB	0a0H
	DB	09cH
	DB	0a0H
	DB	0ffH
	DB	098H
	DB	09cH
	DB	098H
	DB	0ffH
	DB	0d0H
	DB	0d0H
	DB	0d0H
	DB	0ffH
	DB	0d8H
	DB	0d8H
	DB	0d8H
	DB	0ffH
	DB	0d8H
	DB	0d4H
	DB	0d8H
	DB	0ffH
	DB	0d0H
	DB	0d8H
	DB	0d8H
	DB	0ffH
	DB	0d8H
	DB	0d4H
	DB	0d0H
	DB	0ffH
	DB	0d8H
	DB	0d8H
	DB	0d8H
	DB	0ffH
	DB	0d8H
	DB	0d8H
	DB	0d8H
	DB	0ffH
	DB	0d8H
	DB	0d4H
	DB	0d0H
	DB	0ffH
	DB	0d8H
	DB	0d8H
	DB	0d8H
	DB	0ffH
	DB	0d8H
	DB	0d8H
	DB	0d8H
	DB	0ffH
	DB	0d8H
	DB	0d4H
	DB	0d8H
	DB	0ffH
	DB	0d8H
	DB	0d8H
	DB	0d8H
	DB	0ffH
	DB	0d8H
	DB	0d8H
	DB	0d8H
	DB	0ffH
	DB	0d8H
	DB	0d8H
	DB	0d8H
	DB	0ffH
	DB	0d8H
	DB	0d4H
	DB	0d8H
	DB	0ffH
	DB	0d8H
	DB	0d8H
	DB	0d0H
	DB	0ffH
	DB	0d8H
	DB	0d8H
	DB	0d8H
	DB	0ffH
	DB	0d8H
	DB	0d8H
	DB	0d8H
	DB	0ffH
	DB	0a0H
	DB	0a0H
	DB	0a0H
	DB	0ffH
	DB	00H
	DB	00H
	DB	00H
	DB	0ffH
	DB	00H
	DB	00H
	DB	00H
	DB	0ffH
	DB	038H
	DB	038H
	DB	038H
	DB	0ffH
	DB	0f8H
	DB	0fcH
	DB	0f8H
	DB	0ffH
	DB	0f8H
	DB	0fcH
	DB	0f8H
	DB	0ffH
	DB	0f8H
	DB	0fcH
	DB	0f8H
	DB	0d3H
	DB	0f8H
	DB	0fcH
	DB	0f8H
	DB	0aaH
	DB	0f8H
	DB	0fcH
	DB	0f8H
	DB	0ffH
	DB	0f8H
	DB	0fcH
	DB	0f8H
	DB	0ffH
	DB	068H
	DB	064H
	DB	068H
	DB	0ffH
	DB	00H
	DB	00H
	DB	00H
	DB	0ffH
	DB	00H
	DB	00H
	DB	00H
	DB	0ffH
	DB	040H
	DB	034H
	DB	010H
	DB	0ffH
	DB	080H
	DB	05cH
	DB	00H
	DB	0ffH
	DB	088H
	DB	068H
	DB	00H
	DB	0ffH
	DB	090H
	DB	06cH
	DB	00H
	DB	0ffH
	DB	090H
	DB	06cH
	DB	00H
	DB	0ffH
	DB	090H
	DB	06cH
	DB	00H
	DB	0ffH
	DB	090H
	DB	06cH
	DB	00H
	DB	0ffH
	DB	090H
	DB	06cH
	DB	00H
	DB	0ffH
	DB	090H
	DB	06cH
	DB	00H
	DB	0ffH
	DB	090H
	DB	06cH
	DB	00H
	DB	0ffH
	DB	090H
	DB	068H
	DB	00H
	DB	0ffH
	DB	090H
	DB	06cH
	DB	00H
	DB	0ffH
	DB	090H
	DB	06cH
	DB	00H
	DB	0ffH
	DB	090H
	DB	06cH
	DB	00H
	DB	0ffH
	DB	090H
	DB	06cH
	DB	00H
	DB	0ffH
	DB	090H
	DB	06cH
	DB	00H
	DB	0ffH
	DB	030H
	DB	0b4H
	DB	030H
	DB	0ffH
	DB	020H
	DB	0c8H
	DB	040H
	DB	0ffH
	DB	020H
	DB	0c0H
	DB	038H
	DB	0ffH
	DB	038H
	DB	0b0H
	DB	030H
	DB	0ffH
	DB	038H
	DB	0b0H
	DB	030H
	DB	0ffH
	DB	020H
	DB	0c8H
	DB	040H
	DB	0ffH
	DB	020H
	DB	0c8H
	DB	040H
	DB	0ffH
	DB	048H
	DB	0a4H
	DB	020H
	DB	0ffH
	DB	090H
	DB	06cH
	DB	00H
	DB	0ffH
	DB	090H
	DB	06cH
	DB	00H
	DB	0ffH
	DB	090H
	DB	06cH
	DB	00H
	DB	0ffH
	DB	038H
	DB	0b0H
	DB	030H
	DB	0ffH
	DB	020H
	DB	0c8H
	DB	040H
	DB	0ffH
	DB	068H
	DB	088H
	DB	010H
	DB	0ffH
	DB	090H
	DB	06cH
	DB	00H
	DB	0ffH
	DB	090H
	DB	06cH
	DB	00H
	DB	0ffH
	DB	090H
	DB	06cH
	DB	00H
	DB	0ffH
	DB	090H
	DB	06cH
	DB	00H
	DB	0ffH
	DB	090H
	DB	06cH
	DB	00H
	DB	0ffH
	DB	060H
	DB	090H
	DB	018H
	DB	0ffH
	DB	020H
	DB	0c8H
	DB	040H
	DB	0ffH
	DB	048H
	DB	0a8H
	DB	028H
	DB	0ffH
	DB	090H
	DB	06cH
	DB	00H
	DB	0ffH
	DB	090H
	DB	06cH
	DB	00H
	DB	0ffH
	DB	090H
	DB	06cH
	DB	00H
	DB	0ffH
	DB	090H
	DB	06cH
	DB	00H
	DB	0ffH
	DB	090H
	DB	06cH
	DB	00H
	DB	0ffH
	DB	090H
	DB	06cH
	DB	00H
	DB	0ffH
	DB	090H
	DB	068H
	DB	00H
	DB	0ffH
	DB	090H
	DB	06cH
	DB	00H
	DB	0ffH
	DB	090H
	DB	06cH
	DB	00H
	DB	0ffH
	DB	090H
	DB	06cH
	DB	00H
	DB	0ffH
	DB	090H
	DB	06cH
	DB	00H
	DB	0ffH
	DB	090H
	DB	06cH
	DB	00H
	DB	0ffH
	DB	090H
	DB	06cH
	DB	00H
	DB	0ffH
	DB	090H
	DB	06cH
	DB	00H
	DB	0ffH
	DB	090H
	DB	06cH
	DB	00H
	DB	0ffH
	DB	090H
	DB	06cH
	DB	00H
	DB	0ffH
	DB	090H
	DB	068H
	DB	00H
	DB	0ffH
	DB	080H
	DB	060H
	DB	00H
	DB	0ffH
	DB	070H
	DB	054H
	DB	00H
	DB	0ffH
	DB	00H
	DB	00H
	DB	00H
	DB	0ffH
	DB	00H
	DB	00H
	DB	00H
	DB	0ffH
	DB	0d8H
	DB	0d8H
	DB	0d8H
	DB	0ffH
	DB	0d8H
	DB	0d8H
	DB	0d8H
	DB	0ffH
	DB	0d0H
	DB	0d4H
	DB	0d8H
	DB	0ffH
	DB	0d8H
	DB	0d8H
	DB	0d8H
	DB	0ffH
	DB	0d8H
	DB	0d8H
	DB	0d8H
	DB	0ffH
	DB	0d8H
	DB	0d8H
	DB	0d8H
	DB	0ffH
	DB	0d8H
	DB	0d8H
	DB	0d8H
	DB	0ffH
	DB	0d8H
	DB	0d8H
	DB	0d8H
	DB	0ffH
	DB	0d8H
	DB	0d4H
	DB	0d8H
	DB	0ffH
	DB	0d0H
	DB	0d8H
	DB	0d8H
	DB	0ffH
	DB	0d8H
	DB	0d8H
	DB	0d8H
	DB	0ffH
	DB	0d8H
	DB	0d8H
	DB	0d8H
	DB	0ffH
	DB	0d8H
	DB	0d4H
	DB	0d8H
	DB	0ffH
	DB	0d8H
	DB	0d8H
	DB	0d8H
	DB	0ffH
	DB	0d8H
	DB	0d8H
	DB	0d8H
	DB	0ffH
	DB	0d8H
	DB	0d4H
	DB	0d8H
	DB	0ffH
	DB	0d8H
	DB	0d8H
	DB	0d8H
	DB	0ffH
	DB	0d8H
	DB	0d4H
	DB	0d8H
	DB	0ffH
	DB	0a8H
	DB	0a8H
	DB	0a8H
	DB	0ffH
	DB	098H
	DB	098H
	DB	098H
	DB	0ffH
	DB	0a0H
	DB	0a0H
	DB	0a0H
	DB	0ffH
	DB	0a8H
	DB	0acH
	DB	0a8H
	DB	0ffH
	DB	0a8H
	DB	0a8H
	DB	0a8H
	DB	0ffH
	DB	098H
	DB	09cH
	DB	098H
	DB	0ffH
	DB	098H
	DB	09cH
	DB	098H
	DB	0ffH
	DB	0b0H
	DB	0b4H
	DB	0b8H
	DB	0ffH
	DB	0d8H
	DB	0d8H
	DB	0d8H
	DB	0ffH
	DB	0d8H
	DB	0d8H
	DB	0d8H
	DB	0ffH
	DB	0d8H
	DB	0d8H
	DB	0d8H
	DB	0ffH
	DB	0a8H
	DB	0acH
	DB	0a8H
	DB	0ffH
	DB	098H
	DB	098H
	DB	098H
	DB	0ffH
	DB	0d0H
	DB	0d0H
	DB	0d0H
	DB	0ffH
	DB	0d8H
	DB	0d8H
	DB	0d8H
	DB	0ffH
	DB	0d8H
	DB	0d8H
	DB	0d8H
	DB	0ffH
	DB	0c0H
	DB	0c0H
	DB	0c0H
	DB	0ffH
	DB	098H
	DB	09cH
	DB	098H
	DB	0ffH
	DB	0a0H
	DB	098H
	DB	0a0H
	DB	0ffH
	DB	098H
	DB	09cH
	DB	098H
	DB	0ffH
	DB	0d0H
	DB	0d0H
	DB	0d0H
	DB	0ffH
	DB	0d8H
	DB	0d8H
	DB	0d8H
	DB	0ffH
	DB	0d8H
	DB	0d8H
	DB	0d8H
	DB	0ffH
	DB	0d8H
	DB	0d8H
	DB	0d8H
	DB	0ffH
	DB	0d8H
	DB	0d8H
	DB	0d8H
	DB	0ffH
	DB	0d8H
	DB	0d4H
	DB	0d8H
	DB	0ffH
	DB	0d0H
	DB	0d8H
	DB	0d8H
	DB	0ffH
	DB	0d8H
	DB	0d8H
	DB	0d8H
	DB	0ffH
	DB	0d8H
	DB	0d8H
	DB	0d8H
	DB	0ffH
	DB	0d8H
	DB	0d8H
	DB	0d8H
	DB	0ffH
	DB	0d8H
	DB	0d4H
	DB	0d8H
	DB	0ffH
	DB	0d8H
	DB	0d8H
	DB	0d8H
	DB	0ffH
	DB	0d8H
	DB	0d8H
	DB	0d8H
	DB	0ffH
	DB	0d0H
	DB	0d4H
	DB	0d8H
	DB	0ffH
	DB	0d8H
	DB	0d8H
	DB	0d8H
	DB	0ffH
	DB	0d8H
	DB	0d4H
	DB	0d8H
	DB	0ffH
	DB	0d8H
	DB	0d8H
	DB	0d8H
	DB	0ffH
	DB	0d8H
	DB	0d8H
	DB	0d8H
	DB	0ffH
	DB	070H
	DB	06cH
	DB	070H
	DB	0ffH
	DB	00H
	DB	00H
	DB	00H
	DB	0ffH
	DB	00H
	DB	00H
	DB	00H
	DB	0ffH
	DB	068H
	DB	064H
	DB	068H
	DB	0ffH
	DB	0f8H
	DB	0fcH
	DB	0f8H
	DB	0ffH
	DB	0f8H
	DB	0fcH
	DB	0f8H
	DB	0ffH
	DB	0f8H
	DB	0fcH
	DB	0f8H
	DB	0aaH
	DB	0f8H
	DB	0fcH
	DB	0f8H
	DB	071H
	DB	0f8H
	DB	0fcH
	DB	0f8H
	DB	0ffH
	DB	0f8H
	DB	0fcH
	DB	0f8H
	DB	0ffH
	DB	0a8H
	DB	0a8H
	DB	0a8H
	DB	0ffH
	DB	00H
	DB	00H
	DB	00H
	DB	0ffH
	DB	00H
	DB	00H
	DB	00H
	DB	0ffH
	DB	028H
	DB	020H
	DB	018H
	DB	0ffH
	DB	078H
	DB	058H
	DB	00H
	DB	0ffH
	DB	088H
	DB	064H
	DB	00H
	DB	0ffH
	DB	090H
	DB	068H
	DB	00H
	DB	0ffH
	DB	090H
	DB	068H
	DB	00H
	DB	0ffH
	DB	090H
	DB	06cH
	DB	00H
	DB	0ffH
	DB	090H
	DB	068H
	DB	00H
	DB	0ffH
	DB	090H
	DB	068H
	DB	00H
	DB	0ffH
	DB	090H
	DB	06cH
	DB	00H
	DB	0ffH
	DB	090H
	DB	06cH
	DB	00H
	DB	0ffH
	DB	090H
	DB	068H
	DB	00H
	DB	0ffH
	DB	090H
	DB	06cH
	DB	00H
	DB	0ffH
	DB	090H
	DB	068H
	DB	00H
	DB	0ffH
	DB	090H
	DB	06cH
	DB	00H
	DB	0ffH
	DB	090H
	DB	06cH
	DB	00H
	DB	0ffH
	DB	090H
	DB	06cH
	DB	00H
	DB	0ffH
	DB	088H
	DB	070H
	DB	08H
	DB	0ffH
	DB	058H
	DB	09cH
	DB	020H
	DB	0ffH
	DB	028H
	DB	0c0H
	DB	038H
	DB	0ffH
	DB	020H
	DB	0c8H
	DB	040H
	DB	0ffH
	DB	020H
	DB	0c8H
	DB	040H
	DB	0ffH
	DB	028H
	DB	0bcH
	DB	030H
	DB	0ffH
	DB	060H
	DB	090H
	DB	018H
	DB	0ffH
	DB	090H
	DB	06cH
	DB	00H
	DB	0ffH
	DB	090H
	DB	068H
	DB	00H
	DB	0ffH
	DB	090H
	DB	06cH
	DB	00H
	DB	0ffH
	DB	090H
	DB	068H
	DB	00H
	DB	0ffH
	DB	040H
	DB	0b0H
	DB	028H
	DB	0ffH
	DB	020H
	DB	0c8H
	DB	040H
	DB	0ffH
	DB	068H
	DB	088H
	DB	010H
	DB	0ffH
	DB	090H
	DB	06cH
	DB	00H
	DB	0ffH
	DB	090H
	DB	06cH
	DB	00H
	DB	0ffH
	DB	090H
	DB	06cH
	DB	00H
	DB	0ffH
	DB	090H
	DB	06cH
	DB	00H
	DB	0ffH
	DB	090H
	DB	06cH
	DB	00H
	DB	0ffH
	DB	060H
	DB	090H
	DB	018H
	DB	0ffH
	DB	020H
	DB	0c8H
	DB	040H
	DB	0ffH
	DB	040H
	DB	0a8H
	DB	028H
	DB	0ffH
	DB	090H
	DB	06cH
	DB	00H
	DB	0ffH
	DB	090H
	DB	06cH
	DB	00H
	DB	0ffH
	DB	090H
	DB	06cH
	DB	00H
	DB	0ffH
	DB	090H
	DB	068H
	DB	00H
	DB	0ffH
	DB	090H
	DB	06cH
	DB	00H
	DB	0ffH
	DB	090H
	DB	068H
	DB	00H
	DB	0ffH
	DB	090H
	DB	06cH
	DB	00H
	DB	0ffH
	DB	090H
	DB	06cH
	DB	00H
	DB	0ffH
	DB	090H
	DB	068H
	DB	00H
	DB	0ffH
	DB	090H
	DB	068H
	DB	00H
	DB	0ffH
	DB	090H
	DB	06cH
	DB	00H
	DB	0ffH
	DB	090H
	DB	068H
	DB	00H
	DB	0ffH
	DB	090H
	DB	068H
	DB	00H
	DB	0ffH
	DB	090H
	DB	06cH
	DB	00H
	DB	0ffH
	DB	090H
	DB	068H
	DB	00H
	DB	0ffH
	DB	090H
	DB	06cH
	DB	00H
	DB	0ffH
	DB	090H
	DB	068H
	DB	00H
	DB	0ffH
	DB	088H
	DB	060H
	DB	00H
	DB	0ffH
	DB	070H
	DB	054H
	DB	00H
	DB	0ffH
	DB	00H
	DB	00H
	DB	00H
	DB	0ffH
	DB	00H
	DB	00H
	DB	00H
	DB	0ffH
	DB	0d8H
	DB	0d8H
	DB	0d8H
	DB	0ffH
	DB	0d8H
	DB	0d8H
	DB	0d8H
	DB	0ffH
	DB	0d8H
	DB	0d8H
	DB	0d8H
	DB	0ffH
	DB	0d8H
	DB	0d4H
	DB	0d0H
	DB	0ffH
	DB	0d8H
	DB	0d8H
	DB	0d8H
	DB	0ffH
	DB	0d8H
	DB	0d8H
	DB	0d8H
	DB	0ffH
	DB	0d8H
	DB	0d4H
	DB	0d0H
	DB	0ffH
	DB	0d8H
	DB	0d8H
	DB	0d8H
	DB	0ffH
	DB	0d8H
	DB	0d8H
	DB	0d8H
	DB	0ffH
	DB	0d8H
	DB	0d4H
	DB	0d8H
	DB	0ffH
	DB	0d8H
	DB	0d8H
	DB	0d8H
	DB	0ffH
	DB	0d0H
	DB	0d8H
	DB	0d8H
	DB	0ffH
	DB	0d8H
	DB	0d8H
	DB	0d0H
	DB	0ffH
	DB	0d8H
	DB	0d8H
	DB	0d8H
	DB	0ffH
	DB	0d0H
	DB	0d8H
	DB	0d8H
	DB	0ffH
	DB	0d8H
	DB	0d8H
	DB	0d8H
	DB	0ffH
	DB	0d8H
	DB	0d8H
	DB	0d8H
	DB	0ffH
	DB	0d8H
	DB	0d8H
	DB	0d8H
	DB	0ffH
	DB	0d0H
	DB	0d4H
	DB	0d0H
	DB	0ffH
	DB	0b8H
	DB	0b4H
	DB	0b8H
	DB	0ffH
	DB	0a0H
	DB	0a0H
	DB	0a0H
	DB	0ffH
	DB	098H
	DB	09cH
	DB	098H
	DB	0ffH
	DB	098H
	DB	098H
	DB	098H
	DB	0ffH
	DB	0a8H
	DB	0a4H
	DB	0a8H
	DB	0ffH
	DB	0c0H
	DB	0c0H
	DB	0c0H
	DB	0ffH
	DB	0d8H
	DB	0d4H
	DB	0d8H
	DB	0ffH
	DB	0d8H
	DB	0d4H
	DB	0d8H
	DB	0ffH
	DB	0d8H
	DB	0d8H
	DB	0d8H
	DB	0ffH
	DB	0d8H
	DB	0d8H
	DB	0d8H
	DB	0ffH
	DB	0a8H
	DB	0acH
	DB	0b0H
	DB	0ffH
	DB	0a0H
	DB	09cH
	DB	098H
	DB	0ffH
	DB	0d0H
	DB	0ccH
	DB	0d0H
	DB	0ffH
	DB	0d8H
	DB	0d8H
	DB	0d8H
	DB	0ffH
	DB	0d8H
	DB	0d4H
	DB	0d8H
	DB	0ffH
	DB	0d8H
	DB	0d8H
	DB	0d8H
	DB	0ffH
	DB	0a0H
	DB	0a4H
	DB	0a0H
	DB	0ffH
	DB	098H
	DB	09cH
	DB	098H
	DB	0ffH
	DB	098H
	DB	098H
	DB	0a0H
	DB	0ffH
	DB	0d0H
	DB	0d0H
	DB	0d0H
	DB	0ffH
	DB	0d8H
	DB	0d4H
	DB	0d8H
	DB	0ffH
	DB	0d8H
	DB	0d8H
	DB	0d8H
	DB	0ffH
	DB	0d8H
	DB	0d8H
	DB	0d8H
	DB	0ffH
	DB	0d8H
	DB	0d8H
	DB	0d8H
	DB	0ffH
	DB	0d8H
	DB	0d8H
	DB	0d8H
	DB	0ffH
	DB	0d8H
	DB	0d4H
	DB	0d8H
	DB	0ffH
	DB	0d8H
	DB	0d8H
	DB	0d8H
	DB	0ffH
	DB	0d8H
	DB	0d8H
	DB	0d8H
	DB	0ffH
	DB	0d0H
	DB	0d4H
	DB	0d0H
	DB	0ffH
	DB	0d8H
	DB	0d8H
	DB	0d8H
	DB	0ffH
	DB	0d8H
	DB	0d8H
	DB	0d8H
	DB	0ffH
	DB	0d8H
	DB	0d8H
	DB	0d0H
	DB	0ffH
	DB	0d8H
	DB	0d8H
	DB	0d8H
	DB	0ffH
	DB	0d8H
	DB	0d8H
	DB	0d8H
	DB	0ffH
	DB	0d8H
	DB	0d8H
	DB	0d8H
	DB	0ffH
	DB	0d0H
	DB	0d4H
	DB	0d8H
	DB	0ffH
	DB	0d8H
	DB	0d8H
	DB	0d8H
	DB	0ffH
	DB	028H
	DB	028H
	DB	028H
	DB	0ffH
	DB	00H
	DB	00H
	DB	00H
	DB	0ffH
	DB	00H
	DB	00H
	DB	00H
	DB	0ffH
	DB	0a8H
	DB	0a8H
	DB	0a8H
	DB	0ffH
	DB	0f8H
	DB	0fcH
	DB	0f8H
	DB	0ffH
	DB	0f8H
	DB	0fcH
	DB	0f8H
	DB	0ffH
	DB	0f8H
	DB	0fcH
	DB	0f8H
	DB	071H
	DB	0f8H
	DB	0fcH
	DB	0f8H
	DB	02cH
	DB	0f8H
	DB	0fcH
	DB	0f8H
	DB	0ffH
	DB	0f8H
	DB	0fcH
	DB	0f8H
	DB	0ffH
	DB	0f0H
	DB	0f0H
	DB	0f0H
	DB	0ffH
	DB	08H
	DB	0cH
	DB	08H
	DB	0ffH
	DB	00H
	DB	00H
	DB	00H
	DB	0ffH
	DB	08H
	DB	08H
	DB	08H
	DB	0ffH
	DB	058H
	DB	044H
	DB	08H
	DB	0ffH
	DB	080H
	DB	060H
	DB	00H
	DB	0ffH
	DB	090H
	DB	068H
	DB	00H
	DB	0ffH
	DB	090H
	DB	06cH
	DB	00H
	DB	0ffH
	DB	090H
	DB	06cH
	DB	00H
	DB	0ffH
	DB	098H
	DB	06cH
	DB	00H
	DB	0ffH
	DB	090H
	DB	06cH
	DB	00H
	DB	0ffH
	DB	090H
	DB	06cH
	DB	00H
	DB	0ffH
	DB	090H
	DB	06cH
	DB	00H
	DB	0ffH
	DB	098H
	DB	06cH
	DB	00H
	DB	0ffH
	DB	090H
	DB	06cH
	DB	00H
	DB	0ffH
	DB	090H
	DB	06cH
	DB	00H
	DB	0ffH
	DB	098H
	DB	06cH
	DB	00H
	DB	0ffH
	DB	090H
	DB	06cH
	DB	00H
	DB	0ffH
	DB	090H
	DB	06cH
	DB	00H
	DB	0ffH
	DB	098H
	DB	06cH
	DB	00H
	DB	0ffH
	DB	090H
	DB	06cH
	DB	00H
	DB	0ffH
	DB	090H
	DB	06cH
	DB	00H
	DB	0ffH
	DB	088H
	DB	074H
	DB	00H
	DB	0ffH
	DB	088H
	DB	070H
	DB	00H
	DB	0ffH
	DB	098H
	DB	06cH
	DB	00H
	DB	0ffH
	DB	090H
	DB	06cH
	DB	00H
	DB	0ffH
	DB	098H
	DB	06cH
	DB	00H
	DB	0ffH
	DB	098H
	DB	06cH
	DB	00H
	DB	0ffH
	DB	090H
	DB	06cH
	DB	00H
	DB	0ffH
	DB	090H
	DB	06cH
	DB	00H
	DB	0ffH
	DB	090H
	DB	06cH
	DB	00H
	DB	0ffH
	DB	090H
	DB	06cH
	DB	00H
	DB	0ffH
	DB	090H
	DB	06cH
	DB	00H
	DB	0ffH
	DB	098H
	DB	06cH
	DB	00H
	DB	0ffH
	DB	090H
	DB	06cH
	DB	00H
	DB	0ffH
	DB	090H
	DB	06cH
	DB	00H
	DB	0ffH
	DB	098H
	DB	06cH
	DB	00H
	DB	0ffH
	DB	090H
	DB	06cH
	DB	00H
	DB	0ffH
	DB	090H
	DB	06cH
	DB	00H
	DB	0ffH
	DB	098H
	DB	06cH
	DB	00H
	DB	0ffH
	DB	090H
	DB	06cH
	DB	00H
	DB	0ffH
	DB	090H
	DB	06cH
	DB	00H
	DB	0ffH
	DB	098H
	DB	06cH
	DB	00H
	DB	0ffH
	DB	090H
	DB	06cH
	DB	00H
	DB	0ffH
	DB	090H
	DB	06cH
	DB	00H
	DB	0ffH
	DB	090H
	DB	06cH
	DB	00H
	DB	0ffH
	DB	090H
	DB	06cH
	DB	00H
	DB	0ffH
	DB	090H
	DB	06cH
	DB	00H
	DB	0ffH
	DB	090H
	DB	06cH
	DB	00H
	DB	0ffH
	DB	090H
	DB	06cH
	DB	00H
	DB	0ffH
	DB	090H
	DB	06cH
	DB	00H
	DB	0ffH
	DB	090H
	DB	06cH
	DB	00H
	DB	0ffH
	DB	090H
	DB	06cH
	DB	00H
	DB	0ffH
	DB	090H
	DB	06cH
	DB	00H
	DB	0ffH
	DB	090H
	DB	06cH
	DB	00H
	DB	0ffH
	DB	090H
	DB	06cH
	DB	00H
	DB	0ffH
	DB	090H
	DB	06cH
	DB	00H
	DB	0ffH
	DB	090H
	DB	06cH
	DB	00H
	DB	0ffH
	DB	088H
	DB	064H
	DB	00H
	DB	0ffH
	DB	078H
	DB	054H
	DB	00H
	DB	0ffH
	DB	00H
	DB	00H
	DB	00H
	DB	0ffH
	DB	00H
	DB	00H
	DB	00H
	DB	0ffH
	DB	0d8H
	DB	0d8H
	DB	0d8H
	DB	0ffH
	DB	0d8H
	DB	0d8H
	DB	0d8H
	DB	0ffH
	DB	0d8H
	DB	0d8H
	DB	0d8H
	DB	0ffH
	DB	0d8H
	DB	0d4H
	DB	0d8H
	DB	0ffH
	DB	0d0H
	DB	0d8H
	DB	0d8H
	DB	0ffH
	DB	0d8H
	DB	0d8H
	DB	0d8H
	DB	0ffH
	DB	0d8H
	DB	0d4H
	DB	0d8H
	DB	0ffH
	DB	0d0H
	DB	0d8H
	DB	0d8H
	DB	0ffH
	DB	0d8H
	DB	0d8H
	DB	0d8H
	DB	0ffH
	DB	0d8H
	DB	0d8H
	DB	0d0H
	DB	0ffH
	DB	0d8H
	DB	0d4H
	DB	0d8H
	DB	0ffH
	DB	0d8H
	DB	0d8H
	DB	0d8H
	DB	0ffH
	DB	0d8H
	DB	0d8H
	DB	0d8H
	DB	0ffH
	DB	0d8H
	DB	0d4H
	DB	0d8H
	DB	0ffH
	DB	0d8H
	DB	0d8H
	DB	0d8H
	DB	0ffH
	DB	0d8H
	DB	0d8H
	DB	0d0H
	DB	0ffH
	DB	0d8H
	DB	0d4H
	DB	0d8H
	DB	0ffH
	DB	0d8H
	DB	0d8H
	DB	0d8H
	DB	0ffH
	DB	0d8H
	DB	0d8H
	DB	0d8H
	DB	0ffH
	DB	0d8H
	DB	0d8H
	DB	0d8H
	DB	0ffH
	DB	0d8H
	DB	0d8H
	DB	0d8H
	DB	0ffH
	DB	0d0H
	DB	0d4H
	DB	0d0H
	DB	0ffH
	DB	0d8H
	DB	0d4H
	DB	0d8H
	DB	0ffH
	DB	0d8H
	DB	0d8H
	DB	0d8H
	DB	0ffH
	DB	0d8H
	DB	0d8H
	DB	0d8H
	DB	0ffH
	DB	0d8H
	DB	0d8H
	DB	0d8H
	DB	0ffH
	DB	0d8H
	DB	0d8H
	DB	0d8H
	DB	0ffH
	DB	0d8H
	DB	0d4H
	DB	0d8H
	DB	0ffH
	DB	0d8H
	DB	0d8H
	DB	0d8H
	DB	0ffH
	DB	0d8H
	DB	0d8H
	DB	0d8H
	DB	0ffH
	DB	0d8H
	DB	0d8H
	DB	0d8H
	DB	0ffH
	DB	0d8H
	DB	0d8H
	DB	0d8H
	DB	0ffH
	DB	0d8H
	DB	0d8H
	DB	0d8H
	DB	0ffH
	DB	0d8H
	DB	0d8H
	DB	0d8H
	DB	0ffH
	DB	0d8H
	DB	0d4H
	DB	0d8H
	DB	0ffH
	DB	0d8H
	DB	0d8H
	DB	0d8H
	DB	0ffH
	DB	0d8H
	DB	0d8H
	DB	0d8H
	DB	0ffH
	DB	0d8H
	DB	0d8H
	DB	0d8H
	DB	0ffH
	DB	0d8H
	DB	0d8H
	DB	0d8H
	DB	0ffH
	DB	0d8H
	DB	0d4H
	DB	0d8H
	DB	0ffH
	DB	0d8H
	DB	0d8H
	DB	0d8H
	DB	0ffH
	DB	0d0H
	DB	0d4H
	DB	0d0H
	DB	0ffH
	DB	0d8H
	DB	0d8H
	DB	0d8H
	DB	0ffH
	DB	0d8H
	DB	0d8H
	DB	0d8H
	DB	0ffH
	DB	0d8H
	DB	0d4H
	DB	0d0H
	DB	0ffH
	DB	0d8H
	DB	0d8H
	DB	0d8H
	DB	0ffH
	DB	0d8H
	DB	0d8H
	DB	0d8H
	DB	0ffH
	DB	0d8H
	DB	0d8H
	DB	0d8H
	DB	0ffH
	DB	0d8H
	DB	0d8H
	DB	0d8H
	DB	0ffH
	DB	0d8H
	DB	0d4H
	DB	0d8H
	DB	0ffH
	DB	0d0H
	DB	0d8H
	DB	0d8H
	DB	0ffH
	DB	0d8H
	DB	0d8H
	DB	0d8H
	DB	0ffH
	DB	0d8H
	DB	0d4H
	DB	0d0H
	DB	0ffH
	DB	0d8H
	DB	0d8H
	DB	0d8H
	DB	0ffH
	DB	0d8H
	DB	0d8H
	DB	0d8H
	DB	0ffH
	DB	0a0H
	DB	0a4H
	DB	0a0H
	DB	0ffH
	DB	00H
	DB	00H
	DB	00H
	DB	0ffH
	DB	00H
	DB	00H
	DB	00H
	DB	0ffH
	DB	08H
	DB	0cH
	DB	08H
	DB	0ffH
	DB	0f0H
	DB	0f0H
	DB	0f0H
	DB	0ffH
	DB	0f8H
	DB	0fcH
	DB	0f8H
	DB	0ffH
	DB	0f8H
	DB	0fcH
	DB	0f8H
	DB	0ffH
	DB	0f8H
	DB	0fcH
	DB	0f8H
	DB	02cH
	DB	00H
	DB	00H
	DB	00H
	DB	00H
	DB	0f8H
	DB	0fcH
	DB	0f8H
	DB	0d3H
	DB	0f8H
	DB	0fcH
	DB	0f8H
	DB	0ffH
	DB	0f8H
	DB	0fcH
	DB	0f8H
	DB	0ffH
	DB	060H
	DB	064H
	DB	060H
	DB	0ffH
	DB	00H
	DB	00H
	DB	00H
	DB	0ffH
	DB	00H
	DB	00H
	DB	00H
	DB	0ffH
	DB	030H
	DB	02cH
	DB	018H
	DB	0ffH
	DB	078H
	DB	058H
	DB	00H
	DB	0ffH
	DB	090H
	DB	068H
	DB	00H
	DB	0ffH
	DB	090H
	DB	06cH
	DB	00H
	DB	0ffH
	DB	098H
	DB	06cH
	DB	00H
	DB	0ffH
	DB	098H
	DB	06cH
	DB	00H
	DB	0ffH
	DB	098H
	DB	06cH
	DB	00H
	DB	0ffH
	DB	098H
	DB	06cH
	DB	00H
	DB	0ffH
	DB	098H
	DB	06cH
	DB	00H
	DB	0ffH
	DB	090H
	DB	06cH
	DB	00H
	DB	0ffH
	DB	098H
	DB	06cH
	DB	00H
	DB	0ffH
	DB	098H
	DB	06cH
	DB	00H
	DB	0ffH
	DB	098H
	DB	06cH
	DB	00H
	DB	0ffH
	DB	098H
	DB	06cH
	DB	00H
	DB	0ffH
	DB	090H
	DB	06cH
	DB	00H
	DB	0ffH
	DB	098H
	DB	06cH
	DB	00H
	DB	0ffH
	DB	090H
	DB	06cH
	DB	00H
	DB	0ffH
	DB	098H
	DB	06cH
	DB	00H
	DB	0ffH
	DB	090H
	DB	06cH
	DB	00H
	DB	0ffH
	DB	098H
	DB	06cH
	DB	00H
	DB	0ffH
	DB	098H
	DB	06cH
	DB	00H
	DB	0ffH
	DB	090H
	DB	06cH
	DB	00H
	DB	0ffH
	DB	098H
	DB	06cH
	DB	00H
	DB	0ffH
	DB	098H
	DB	06cH
	DB	00H
	DB	0ffH
	DB	098H
	DB	06cH
	DB	00H
	DB	0ffH
	DB	098H
	DB	06cH
	DB	00H
	DB	0ffH
	DB	098H
	DB	06cH
	DB	00H
	DB	0ffH
	DB	098H
	DB	06cH
	DB	00H
	DB	0ffH
	DB	098H
	DB	06cH
	DB	00H
	DB	0ffH
	DB	098H
	DB	06cH
	DB	00H
	DB	0ffH
	DB	098H
	DB	06cH
	DB	00H
	DB	0ffH
	DB	098H
	DB	06cH
	DB	00H
	DB	0ffH
	DB	098H
	DB	06cH
	DB	00H
	DB	0ffH
	DB	098H
	DB	06cH
	DB	00H
	DB	0ffH
	DB	098H
	DB	06cH
	DB	00H
	DB	0ffH
	DB	090H
	DB	06cH
	DB	00H
	DB	0ffH
	DB	098H
	DB	06cH
	DB	00H
	DB	0ffH
	DB	098H
	DB	06cH
	DB	00H
	DB	0ffH
	DB	098H
	DB	06cH
	DB	00H
	DB	0ffH
	DB	098H
	DB	06cH
	DB	00H
	DB	0ffH
	DB	098H
	DB	06cH
	DB	00H
	DB	0ffH
	DB	098H
	DB	06cH
	DB	00H
	DB	0ffH
	DB	098H
	DB	06cH
	DB	00H
	DB	0ffH
	DB	098H
	DB	06cH
	DB	00H
	DB	0ffH
	DB	098H
	DB	06cH
	DB	00H
	DB	0ffH
	DB	098H
	DB	06cH
	DB	00H
	DB	0ffH
	DB	098H
	DB	06cH
	DB	00H
	DB	0ffH
	DB	098H
	DB	06cH
	DB	00H
	DB	0ffH
	DB	098H
	DB	06cH
	DB	00H
	DB	0ffH
	DB	098H
	DB	06cH
	DB	00H
	DB	0ffH
	DB	098H
	DB	06cH
	DB	00H
	DB	0ffH
	DB	098H
	DB	06cH
	DB	00H
	DB	0ffH
	DB	098H
	DB	06cH
	DB	00H
	DB	0ffH
	DB	090H
	DB	06cH
	DB	00H
	DB	0ffH
	DB	088H
	DB	064H
	DB	00H
	DB	0ffH
	DB	078H
	DB	054H
	DB	00H
	DB	0ffH
	DB	00H
	DB	00H
	DB	00H
	DB	0ffH
	DB	00H
	DB	00H
	DB	00H
	DB	0ffH
	DB	0d8H
	DB	0d8H
	DB	0d8H
	DB	0ffH
	DB	0d8H
	DB	0d4H
	DB	0d8H
	DB	0ffH
	DB	0d8H
	DB	0d8H
	DB	0d8H
	DB	0ffH
	DB	0d8H
	DB	0d8H
	DB	0d8H
	DB	0ffH
	DB	0d8H
	DB	0d8H
	DB	0d8H
	DB	0ffH
	DB	0d8H
	DB	0d8H
	DB	0d0H
	DB	0ffH
	DB	0d8H
	DB	0d8H
	DB	0d8H
	DB	0ffH
	DB	0d8H
	DB	0d4H
	DB	0d8H
	DB	0ffH
	DB	0d8H
	DB	0d8H
	DB	0d8H
	DB	0ffH
	DB	0d8H
	DB	0d8H
	DB	0d8H
	DB	0ffH
	DB	0d8H
	DB	0d8H
	DB	0d8H
	DB	0ffH
	DB	0d8H
	DB	0d4H
	DB	0d8H
	DB	0ffH
	DB	0d8H
	DB	0d8H
	DB	0d8H
	DB	0ffH
	DB	0d8H
	DB	0d8H
	DB	0d8H
	DB	0ffH
	DB	0d8H
	DB	0d4H
	DB	0d8H
	DB	0ffH
	DB	0d0H
	DB	0d8H
	DB	0d8H
	DB	0ffH
	DB	0d8H
	DB	0d8H
	DB	0d8H
	DB	0ffH
	DB	0d8H
	DB	0d4H
	DB	0d8H
	DB	0ffH
	DB	0d8H
	DB	0d8H
	DB	0d8H
	DB	0ffH
	DB	0d8H
	DB	0d8H
	DB	0d8H
	DB	0ffH
	DB	0d8H
	DB	0d4H
	DB	0d8H
	DB	0ffH
	DB	0d8H
	DB	0d8H
	DB	0d8H
	DB	0ffH
	DB	0d8H
	DB	0d4H
	DB	0d8H
	DB	0ffH
	DB	0d8H
	DB	0d4H
	DB	0d8H
	DB	0ffH
	DB	0d8H
	DB	0d8H
	DB	0d8H
	DB	0ffH
	DB	0d8H
	DB	0d8H
	DB	0d8H
	DB	0ffH
	DB	0d8H
	DB	0d8H
	DB	0d8H
	DB	0ffH
	DB	0d8H
	DB	0d8H
	DB	0d8H
	DB	0ffH
	DB	0d8H
	DB	0d4H
	DB	0d8H
	DB	0ffH
	DB	0d8H
	DB	0d4H
	DB	0d8H
	DB	0ffH
	DB	0d8H
	DB	0d8H
	DB	0d8H
	DB	0ffH
	DB	0d8H
	DB	0d8H
	DB	0d8H
	DB	0ffH
	DB	0d8H
	DB	0d4H
	DB	0d8H
	DB	0ffH
	DB	0d8H
	DB	0d8H
	DB	0d8H
	DB	0ffH
	DB	0d8H
	DB	0d8H
	DB	0d8H
	DB	0ffH
	DB	0d8H
	DB	0d4H
	DB	0d8H
	DB	0ffH
	DB	0d8H
	DB	0d8H
	DB	0d8H
	DB	0ffH
	DB	0d8H
	DB	0d8H
	DB	0d8H
	DB	0ffH
	DB	0d8H
	DB	0d8H
	DB	0d8H
	DB	0ffH
	DB	0d8H
	DB	0d8H
	DB	0d8H
	DB	0ffH
	DB	0d8H
	DB	0d8H
	DB	0d8H
	DB	0ffH
	DB	0d8H
	DB	0d8H
	DB	0d8H
	DB	0ffH
	DB	0d8H
	DB	0d4H
	DB	0d8H
	DB	0ffH
	DB	0d8H
	DB	0d8H
	DB	0d8H
	DB	0ffH
	DB	0d0H
	DB	0d8H
	DB	0d8H
	DB	0ffH
	DB	0d8H
	DB	0d8H
	DB	0d8H
	DB	0ffH
	DB	0d8H
	DB	0d4H
	DB	0d8H
	DB	0ffH
	DB	0d8H
	DB	0d8H
	DB	0d8H
	DB	0ffH
	DB	0d8H
	DB	0d8H
	DB	0d8H
	DB	0ffH
	DB	0d8H
	DB	0d4H
	DB	0d8H
	DB	0ffH
	DB	0d8H
	DB	0d8H
	DB	0d8H
	DB	0ffH
	DB	0d8H
	DB	0d8H
	DB	0d8H
	DB	0ffH
	DB	0d8H
	DB	0d4H
	DB	0d8H
	DB	0ffH
	DB	0d8H
	DB	0d8H
	DB	0d8H
	DB	0ffH
	DB	0d8H
	DB	0d4H
	DB	0d0H
	DB	0ffH
	DB	038H
	DB	034H
	DB	038H
	DB	0ffH
	DB	00H
	DB	00H
	DB	00H
	DB	0ffH
	DB	00H
	DB	00H
	DB	00H
	DB	0ffH
	DB	060H
	DB	064H
	DB	060H
	DB	0ffH
	DB	0f8H
	DB	0fcH
	DB	0f8H
	DB	0ffH
	DB	0f8H
	DB	0fcH
	DB	0f8H
	DB	0ffH
	DB	0f8H
	DB	0fcH
	DB	0f8H
	DB	0d7H
	DB	00H
	DB	00H
	DB	00H
	DB	00H
	DB	00H
	DB	00H
	DB	00H
	DB	00H
	DB	0f8H
	DB	0fcH
	DB	0f8H
	DB	075H
	DB	0f8H
	DB	0fcH
	DB	0f8H
	DB	0ffH
	DB	0f8H
	DB	0fcH
	DB	0f8H
	DB	0ffH
	DB	0d8H
	DB	0dcH
	DB	0e0H
	DB	0ffH
	DB	08H
	DB	04H
	DB	08H
	DB	0ffH
	DB	00H
	DB	00H
	DB	00H
	DB	0ffH
	DB	08H
	DB	0cH
	DB	010H
	DB	0ffH
	DB	050H
	DB	040H
	DB	010H
	DB	0ffH
	DB	080H
	DB	060H
	DB	00H
	DB	0ffH
	DB	090H
	DB	068H
	DB	00H
	DB	0ffH
	DB	090H
	DB	06cH
	DB	00H
	DB	0ffH
	DB	090H
	DB	06cH
	DB	00H
	DB	0ffH
	DB	090H
	DB	06cH
	DB	00H
	DB	0ffH
	DB	090H
	DB	06cH
	DB	00H
	DB	0ffH
	DB	098H
	DB	06cH
	DB	00H
	DB	0ffH
	DB	090H
	DB	06cH
	DB	00H
	DB	0ffH
	DB	090H
	DB	06cH
	DB	00H
	DB	0ffH
	DB	098H
	DB	06cH
	DB	00H
	DB	0ffH
	DB	090H
	DB	06cH
	DB	00H
	DB	0ffH
	DB	090H
	DB	06cH
	DB	00H
	DB	0ffH
	DB	098H
	DB	06cH
	DB	00H
	DB	0ffH
	DB	090H
	DB	06cH
	DB	00H
	DB	0ffH
	DB	098H
	DB	06cH
	DB	00H
	DB	0ffH
	DB	098H
	DB	06cH
	DB	00H
	DB	0ffH
	DB	090H
	DB	06cH
	DB	00H
	DB	0ffH
	DB	098H
	DB	070H
	DB	00H
	DB	0ffH
	DB	090H
	DB	06cH
	DB	00H
	DB	0ffH
	DB	090H
	DB	06cH
	DB	00H
	DB	0ffH
	DB	090H
	DB	06cH
	DB	00H
	DB	0ffH
	DB	090H
	DB	06cH
	DB	00H
	DB	0ffH
	DB	090H
	DB	06cH
	DB	00H
	DB	0ffH
	DB	090H
	DB	06cH
	DB	00H
	DB	0ffH
	DB	098H
	DB	06cH
	DB	00H
	DB	0ffH
	DB	090H
	DB	070H
	DB	00H
	DB	0ffH
	DB	090H
	DB	06cH
	DB	00H
	DB	0ffH
	DB	090H
	DB	06cH
	DB	00H
	DB	0ffH
	DB	090H
	DB	06cH
	DB	00H
	DB	0ffH
	DB	090H
	DB	06cH
	DB	00H
	DB	0ffH
	DB	090H
	DB	06cH
	DB	00H
	DB	0ffH
	DB	090H
	DB	06cH
	DB	00H
	DB	0ffH
	DB	098H
	DB	06cH
	DB	00H
	DB	0ffH
	DB	090H
	DB	06cH
	DB	00H
	DB	0ffH
	DB	090H
	DB	06cH
	DB	00H
	DB	0ffH
	DB	098H
	DB	06cH
	DB	00H
	DB	0ffH
	DB	090H
	DB	06cH
	DB	00H
	DB	0ffH
	DB	090H
	DB	06cH
	DB	00H
	DB	0ffH
	DB	090H
	DB	06cH
	DB	00H
	DB	0ffH
	DB	098H
	DB	06cH
	DB	00H
	DB	0ffH
	DB	090H
	DB	06cH
	DB	00H
	DB	0ffH
	DB	090H
	DB	06cH
	DB	00H
	DB	0ffH
	DB	098H
	DB	06cH
	DB	00H
	DB	0ffH
	DB	090H
	DB	06cH
	DB	00H
	DB	0ffH
	DB	090H
	DB	06cH
	DB	00H
	DB	0ffH
	DB	098H
	DB	070H
	DB	00H
	DB	0ffH
	DB	090H
	DB	06cH
	DB	00H
	DB	0ffH
	DB	090H
	DB	06cH
	DB	00H
	DB	0ffH
	DB	098H
	DB	06cH
	DB	00H
	DB	0ffH
	DB	090H
	DB	06cH
	DB	00H
	DB	0ffH
	DB	090H
	DB	06cH
	DB	00H
	DB	0ffH
	DB	090H
	DB	06cH
	DB	00H
	DB	0ffH
	DB	088H
	DB	064H
	DB	00H
	DB	0ffH
	DB	070H
	DB	058H
	DB	00H
	DB	0ffH
	DB	00H
	DB	00H
	DB	00H
	DB	0ffH
	DB	00H
	DB	00H
	DB	00H
	DB	0ffH
	DB	0d8H
	DB	0d8H
	DB	0d8H
	DB	0ffH
	DB	0d8H
	DB	0d8H
	DB	0d8H
	DB	0ffH
	DB	0d0H
	DB	0d4H
	DB	0d0H
	DB	0ffH
	DB	0d8H
	DB	0d8H
	DB	0d8H
	DB	0ffH
	DB	0d8H
	DB	0d4H
	DB	0d8H
	DB	0ffH
	DB	0d8H
	DB	0d8H
	DB	0d8H
	DB	0ffH
	DB	0d8H
	DB	0d8H
	DB	0d8H
	DB	0ffH
	DB	0d8H
	DB	0d8H
	DB	0d8H
	DB	0ffH
	DB	0d0H
	DB	0d4H
	DB	0d8H
	DB	0ffH
	DB	0d8H
	DB	0d8H
	DB	0d8H
	DB	0ffH
	DB	0d8H
	DB	0d8H
	DB	0d0H
	DB	0ffH
	DB	0d0H
	DB	0d8H
	DB	0d8H
	DB	0ffH
	DB	0d8H
	DB	0d8H
	DB	0d8H
	DB	0ffH
	DB	0d8H
	DB	0d8H
	DB	0d0H
	DB	0ffH
	DB	0d8H
	DB	0d4H
	DB	0d8H
	DB	0ffH
	DB	0d8H
	DB	0d8H
	DB	0d8H
	DB	0ffH
	DB	0d8H
	DB	0d8H
	DB	0d8H
	DB	0ffH
	DB	0d8H
	DB	0d8H
	DB	0d8H
	DB	0ffH
	DB	0d8H
	DB	0d4H
	DB	0d8H
	DB	0ffH
	DB	0d8H
	DB	0d8H
	DB	0d8H
	DB	0ffH
	DB	0d8H
	DB	0d8H
	DB	0d8H
	DB	0ffH
	DB	0d8H
	DB	0d8H
	DB	0d8H
	DB	0ffH
	DB	0d8H
	DB	0d8H
	DB	0d8H
	DB	0ffH
	DB	0d8H
	DB	0d8H
	DB	0d8H
	DB	0ffH
	DB	0d8H
	DB	0d4H
	DB	0d8H
	DB	0ffH
	DB	0d8H
	DB	0d8H
	DB	0d8H
	DB	0ffH
	DB	0d8H
	DB	0d8H
	DB	0d8H
	DB	0ffH
	DB	0d8H
	DB	0d8H
	DB	0d8H
	DB	0ffH
	DB	0d8H
	DB	0d8H
	DB	0d8H
	DB	0ffH
	DB	0d8H
	DB	0d8H
	DB	0d8H
	DB	0ffH
	DB	0d8H
	DB	0d8H
	DB	0d8H
	DB	0ffH
	DB	0d8H
	DB	0d4H
	DB	0d8H
	DB	0ffH
	DB	0d8H
	DB	0d8H
	DB	0d8H
	DB	0ffH
	DB	0d8H
	DB	0d8H
	DB	0d8H
	DB	0ffH
	DB	0d8H
	DB	0d8H
	DB	0d8H
	DB	0ffH
	DB	0d8H
	DB	0d8H
	DB	0d8H
	DB	0ffH
	DB	0d8H
	DB	0d4H
	DB	0d8H
	DB	0ffH
	DB	0d8H
	DB	0d8H
	DB	0d8H
	DB	0ffH
	DB	0d8H
	DB	0d4H
	DB	0d8H
	DB	0ffH
	DB	0d8H
	DB	0d8H
	DB	0d0H
	DB	0ffH
	DB	0d8H
	DB	0d8H
	DB	0d8H
	DB	0ffH
	DB	0d8H
	DB	0d8H
	DB	0d8H
	DB	0ffH
	DB	0d8H
	DB	0d8H
	DB	0d8H
	DB	0ffH
	DB	0d8H
	DB	0d4H
	DB	0d8H
	DB	0ffH
	DB	0d8H
	DB	0d8H
	DB	0d8H
	DB	0ffH
	DB	0d8H
	DB	0d8H
	DB	0d0H
	DB	0ffH
	DB	0d0H
	DB	0d4H
	DB	0d8H
	DB	0ffH
	DB	0d8H
	DB	0d8H
	DB	0d8H
	DB	0ffH
	DB	0d8H
	DB	0d8H
	DB	0d0H
	DB	0ffH
	DB	0d0H
	DB	0d8H
	DB	0d8H
	DB	0ffH
	DB	0d8H
	DB	0d8H
	DB	0d8H
	DB	0ffH
	DB	0d8H
	DB	0d8H
	DB	0d0H
	DB	0ffH
	DB	0d0H
	DB	0d8H
	DB	0d8H
	DB	0ffH
	DB	0d8H
	DB	0d8H
	DB	0d8H
	DB	0ffH
	DB	080H
	DB	080H
	DB	080H
	DB	0ffH
	DB	00H
	DB	00H
	DB	00H
	DB	0ffH
	DB	00H
	DB	00H
	DB	00H
	DB	0ffH
	DB	08H
	DB	04H
	DB	08H
	DB	0ffH
	DB	0d8H
	DB	0d8H
	DB	0d8H
	DB	0ffH
	DB	0f8H
	DB	0fcH
	DB	0f8H
	DB	0ffH
	DB	0f8H
	DB	0fcH
	DB	0f8H
	DB	0ffH
	DB	0f8H
	DB	0fcH
	DB	0f8H
	DB	071H
	DB	00H
	DB	00H
	DB	00H
	DB	00H
	DB	00H
	DB	00H
	DB	00H
	DB	00H
	DB	0f8H
	DB	0fcH
	DB	0f8H
	DB	0cH
	DB	0f8H
	DB	0fcH
	DB	0f8H
	DB	0ebH
	DB	0f8H
	DB	0fcH
	DB	0f8H
	DB	0ffH
	DB	0f8H
	DB	0fcH
	DB	0f8H
	DB	0ffH
	DB	078H
	DB	074H
	DB	078H
	DB	0ffH
	DB	00H
	DB	00H
	DB	00H
	DB	0ffH
	DB	00H
	DB	00H
	DB	00H
	DB	0ffH
	DB	020H
	DB	020H
	DB	020H
	DB	0ffH
	DB	060H
	DB	048H
	DB	08H
	DB	0ffH
	DB	088H
	DB	064H
	DB	00H
	DB	0ffH
	DB	090H
	DB	06cH
	DB	00H
	DB	0ffH
	DB	090H
	DB	06cH
	DB	00H
	DB	0ffH
	DB	090H
	DB	070H
	DB	00H
	DB	0ffH
	DB	098H
	DB	070H
	DB	00H
	DB	0ffH
	DB	098H
	DB	070H
	DB	00H
	DB	0ffH
	DB	098H
	DB	070H
	DB	00H
	DB	0ffH
	DB	098H
	DB	070H
	DB	00H
	DB	0ffH
	DB	090H
	DB	070H
	DB	00H
	DB	0ffH
	DB	098H
	DB	070H
	DB	00H
	DB	0ffH
	DB	098H
	DB	070H
	DB	00H
	DB	0ffH
	DB	098H
	DB	070H
	DB	00H
	DB	0ffH
	DB	098H
	DB	070H
	DB	00H
	DB	0ffH
	DB	090H
	DB	070H
	DB	00H
	DB	0ffH
	DB	098H
	DB	070H
	DB	00H
	DB	0ffH
	DB	098H
	DB	070H
	DB	00H
	DB	0ffH
	DB	090H
	DB	070H
	DB	00H
	DB	0ffH
	DB	098H
	DB	070H
	DB	00H
	DB	0ffH
	DB	098H
	DB	070H
	DB	00H
	DB	0ffH
	DB	098H
	DB	070H
	DB	00H
	DB	0ffH
	DB	098H
	DB	070H
	DB	00H
	DB	0ffH
	DB	098H
	DB	070H
	DB	00H
	DB	0ffH
	DB	098H
	DB	070H
	DB	00H
	DB	0ffH
	DB	090H
	DB	070H
	DB	00H
	DB	0ffH
	DB	098H
	DB	070H
	DB	00H
	DB	0ffH
	DB	098H
	DB	070H
	DB	00H
	DB	0ffH
	DB	098H
	DB	070H
	DB	00H
	DB	0ffH
	DB	098H
	DB	070H
	DB	00H
	DB	0ffH
	DB	098H
	DB	070H
	DB	00H
	DB	0ffH
	DB	098H
	DB	070H
	DB	00H
	DB	0ffH
	DB	098H
	DB	070H
	DB	00H
	DB	0ffH
	DB	098H
	DB	070H
	DB	00H
	DB	0ffH
	DB	098H
	DB	070H
	DB	00H
	DB	0ffH
	DB	098H
	DB	070H
	DB	00H
	DB	0ffH
	DB	090H
	DB	070H
	DB	00H
	DB	0ffH
	DB	098H
	DB	070H
	DB	00H
	DB	0ffH
	DB	098H
	DB	070H
	DB	00H
	DB	0ffH
	DB	098H
	DB	070H
	DB	00H
	DB	0ffH
	DB	090H
	DB	070H
	DB	00H
	DB	0ffH
	DB	098H
	DB	070H
	DB	00H
	DB	0ffH
	DB	098H
	DB	070H
	DB	00H
	DB	0ffH
	DB	090H
	DB	070H
	DB	00H
	DB	0ffH
	DB	098H
	DB	070H
	DB	00H
	DB	0ffH
	DB	098H
	DB	070H
	DB	00H
	DB	0ffH
	DB	090H
	DB	070H
	DB	00H
	DB	0ffH
	DB	098H
	DB	070H
	DB	00H
	DB	0ffH
	DB	098H
	DB	070H
	DB	00H
	DB	0ffH
	DB	098H
	DB	070H
	DB	00H
	DB	0ffH
	DB	098H
	DB	070H
	DB	00H
	DB	0ffH
	DB	098H
	DB	070H
	DB	00H
	DB	0ffH
	DB	090H
	DB	06cH
	DB	00H
	DB	0ffH
	DB	088H
	DB	064H
	DB	00H
	DB	0ffH
	DB	078H
	DB	058H
	DB	00H
	DB	0ffH
	DB	00H
	DB	00H
	DB	00H
	DB	0ffH
	DB	00H
	DB	00H
	DB	00H
	DB	0ffH
	DB	0d8H
	DB	0d8H
	DB	0d8H
	DB	0ffH
	DB	0d8H
	DB	0d8H
	DB	0d8H
	DB	0ffH
	DB	0d8H
	DB	0d8H
	DB	0d8H
	DB	0ffH
	DB	0d8H
	DB	0d8H
	DB	0d8H
	DB	0ffH
	DB	0d8H
	DB	0d8H
	DB	0d8H
	DB	0ffH
	DB	0d0H
	DB	0d4H
	DB	0d8H
	DB	0ffH
	DB	0d8H
	DB	0d8H
	DB	0d8H
	DB	0ffH
	DB	0d8H
	DB	0d8H
	DB	0d0H
	DB	0ffH
	DB	0d8H
	DB	0d8H
	DB	0d8H
	DB	0ffH
	DB	0d8H
	DB	0d4H
	DB	0d8H
	DB	0ffH
	DB	0d8H
	DB	0d8H
	DB	0d8H
	DB	0ffH
	DB	0d8H
	DB	0d8H
	DB	0d8H
	DB	0ffH
	DB	0d8H
	DB	0d4H
	DB	0d8H
	DB	0ffH
	DB	0d0H
	DB	0d8H
	DB	0d8H
	DB	0ffH
	DB	0d8H
	DB	0d8H
	DB	0d8H
	DB	0ffH
	DB	0d8H
	DB	0d8H
	DB	0d8H
	DB	0ffH
	DB	0d8H
	DB	0d8H
	DB	0d0H
	DB	0ffH
	DB	0d0H
	DB	0d8H
	DB	0d8H
	DB	0ffH
	DB	0d8H
	DB	0d8H
	DB	0d8H
	DB	0ffH
	DB	0d8H
	DB	0d4H
	DB	0d8H
	DB	0ffH
	DB	0d8H
	DB	0d8H
	DB	0d8H
	DB	0ffH
	DB	0d8H
	DB	0d8H
	DB	0d8H
	DB	0ffH
	DB	0d8H
	DB	0d8H
	DB	0d8H
	DB	0ffH
	DB	0d8H
	DB	0d8H
	DB	0d8H
	DB	0ffH
	DB	0d0H
	DB	0d8H
	DB	0d0H
	DB	0ffH
	DB	0d8H
	DB	0d4H
	DB	0d8H
	DB	0ffH
	DB	0d8H
	DB	0d4H
	DB	0d8H
	DB	0ffH
	DB	0d0H
	DB	0d8H
	DB	0d0H
	DB	0ffH
	DB	0d8H
	DB	0d8H
	DB	0d8H
	DB	0ffH
	DB	0d8H
	DB	0d8H
	DB	0d8H
	DB	0ffH
	DB	0d0H
	DB	0d4H
	DB	0d8H
	DB	0ffH
	DB	0d8H
	DB	0d8H
	DB	0d8H
	DB	0ffH
	DB	0d8H
	DB	0d8H
	DB	0d8H
	DB	0ffH
	DB	0d0H
	DB	0d4H
	DB	0d8H
	DB	0ffH
	DB	0d8H
	DB	0d8H
	DB	0d8H
	DB	0ffH
	DB	0d8H
	DB	0d8H
	DB	0d8H
	DB	0ffH
	DB	0d8H
	DB	0d8H
	DB	0d0H
	DB	0ffH
	DB	0d8H
	DB	0d4H
	DB	0d8H
	DB	0ffH
	DB	0d8H
	DB	0d8H
	DB	0d8H
	DB	0ffH
	DB	0d8H
	DB	0d4H
	DB	0d8H
	DB	0ffH
	DB	0d0H
	DB	0d8H
	DB	0d8H
	DB	0ffH
	DB	0d8H
	DB	0d4H
	DB	0d8H
	DB	0ffH
	DB	0d8H
	DB	0d8H
	DB	0d0H
	DB	0ffH
	DB	0d0H
	DB	0d8H
	DB	0d8H
	DB	0ffH
	DB	0d8H
	DB	0d8H
	DB	0d8H
	DB	0ffH
	DB	0d8H
	DB	0d8H
	DB	0d8H
	DB	0ffH
	DB	0d8H
	DB	0d8H
	DB	0d8H
	DB	0ffH
	DB	0d8H
	DB	0d8H
	DB	0d8H
	DB	0ffH
	DB	0d8H
	DB	0d4H
	DB	0d8H
	DB	0ffH
	DB	0d8H
	DB	0d8H
	DB	0d8H
	DB	0ffH
	DB	0d8H
	DB	0d4H
	DB	0d8H
	DB	0ffH
	DB	0d8H
	DB	0d8H
	DB	0d8H
	DB	0ffH
	DB	0d8H
	DB	0d8H
	DB	0d8H
	DB	0ffH
	DB	0a8H
	DB	0a8H
	DB	0a8H
	DB	0ffH
	DB	08H
	DB	08H
	DB	08H
	DB	0ffH
	DB	00H
	DB	00H
	DB	00H
	DB	0ffH
	DB	00H
	DB	00H
	DB	00H
	DB	0ffH
	DB	070H
	DB	074H
	DB	070H
	DB	0ffH
	DB	0f8H
	DB	0fcH
	DB	0f8H
	DB	0ffH
	DB	0f8H
	DB	0fcH
	DB	0f8H
	DB	0ffH
	DB	0f8H
	DB	0fcH
	DB	0f8H
	DB	0efH
	DB	0f8H
	DB	0fcH
	DB	0f8H
	DB	0cH
	DB	00H
	DB	00H
	DB	00H
	DB	00H
	DB	00H
	DB	00H
	DB	00H
	DB	00H
	DB	00H
	DB	00H
	DB	00H
	DB	00H
	DB	0f8H
	DB	0fcH
	DB	0f8H
	DB	071H
	DB	0f8H
	DB	0fcH
	DB	0f8H
	DB	0ffH
	DB	0f8H
	DB	0fcH
	DB	0f8H
	DB	0ffH
	DB	0f8H
	DB	0f8H
	DB	0f8H
	DB	0ffH
	DB	030H
	DB	02cH
	DB	030H
	DB	0ffH
	DB	00H
	DB	00H
	DB	00H
	DB	0ffH
	DB	00H
	DB	04H
	DB	00H
	DB	0ffH
	DB	028H
	DB	028H
	DB	020H
	DB	0ffH
	DB	060H
	DB	048H
	DB	08H
	DB	0ffH
	DB	080H
	DB	05cH
	DB	00H
	DB	0ffH
	DB	090H
	DB	068H
	DB	00H
	DB	0ffH
	DB	090H
	DB	06cH
	DB	00H
	DB	0ffH
	DB	098H
	DB	070H
	DB	00H
	DB	0ffH
	DB	098H
	DB	06cH
	DB	00H
	DB	0ffH
	DB	098H
	DB	06cH
	DB	00H
	DB	0ffH
	DB	098H
	DB	070H
	DB	00H
	DB	0ffH
	DB	098H
	DB	06cH
	DB	00H
	DB	0ffH
	DB	098H
	DB	06cH
	DB	00H
	DB	0ffH
	DB	098H
	DB	070H
	DB	00H
	DB	0ffH
	DB	098H
	DB	06cH
	DB	00H
	DB	0ffH
	DB	098H
	DB	06cH
	DB	00H
	DB	0ffH
	DB	098H
	DB	070H
	DB	00H
	DB	0ffH
	DB	098H
	DB	06cH
	DB	00H
	DB	0ffH
	DB	098H
	DB	06cH
	DB	00H
	DB	0ffH
	DB	098H
	DB	06cH
	DB	00H
	DB	0ffH
	DB	098H
	DB	06cH
	DB	00H
	DB	0ffH
	DB	098H
	DB	070H
	DB	00H
	DB	0ffH
	DB	098H
	DB	06cH
	DB	00H
	DB	0ffH
	DB	098H
	DB	06cH
	DB	00H
	DB	0ffH
	DB	098H
	DB	070H
	DB	00H
	DB	0ffH
	DB	098H
	DB	06cH
	DB	00H
	DB	0ffH
	DB	098H
	DB	06cH
	DB	00H
	DB	0ffH
	DB	098H
	DB	06cH
	DB	00H
	DB	0ffH
	DB	098H
	DB	06cH
	DB	00H
	DB	0ffH
	DB	098H
	DB	070H
	DB	00H
	DB	0ffH
	DB	098H
	DB	06cH
	DB	00H
	DB	0ffH
	DB	098H
	DB	06cH
	DB	00H
	DB	0ffH
	DB	098H
	DB	070H
	DB	00H
	DB	0ffH
	DB	090H
	DB	06cH
	DB	00H
	DB	0ffH
	DB	098H
	DB	06cH
	DB	00H
	DB	0ffH
	DB	098H
	DB	070H
	DB	00H
	DB	0ffH
	DB	098H
	DB	06cH
	DB	00H
	DB	0ffH
	DB	098H
	DB	06cH
	DB	00H
	DB	0ffH
	DB	098H
	DB	070H
	DB	00H
	DB	0ffH
	DB	098H
	DB	06cH
	DB	00H
	DB	0ffH
	DB	098H
	DB	06cH
	DB	00H
	DB	0ffH
	DB	098H
	DB	070H
	DB	00H
	DB	0ffH
	DB	098H
	DB	06cH
	DB	00H
	DB	0ffH
	DB	098H
	DB	06cH
	DB	00H
	DB	0ffH
	DB	098H
	DB	070H
	DB	00H
	DB	0ffH
	DB	098H
	DB	06cH
	DB	00H
	DB	0ffH
	DB	098H
	DB	06cH
	DB	00H
	DB	0ffH
	DB	098H
	DB	06cH
	DB	00H
	DB	0ffH
	DB	098H
	DB	06cH
	DB	00H
	DB	0ffH
	DB	098H
	DB	070H
	DB	00H
	DB	0ffH
	DB	090H
	DB	06cH
	DB	00H
	DB	0ffH
	DB	098H
	DB	06cH
	DB	00H
	DB	0ffH
	DB	098H
	DB	070H
	DB	00H
	DB	0ffH
	DB	090H
	DB	06cH
	DB	00H
	DB	0ffH
	DB	088H
	DB	064H
	DB	00H
	DB	0ffH
	DB	078H
	DB	058H
	DB	00H
	DB	0ffH
	DB	00H
	DB	00H
	DB	00H
	DB	0ffH
	DB	00H
	DB	00H
	DB	00H
	DB	0ffH
	DB	0d8H
	DB	0d4H
	DB	0d8H
	DB	0ffH
	DB	0d8H
	DB	0d8H
	DB	0d8H
	DB	0ffH
	DB	0d8H
	DB	0d8H
	DB	0d8H
	DB	0ffH
	DB	0d8H
	DB	0d4H
	DB	0d8H
	DB	0ffH
	DB	0d8H
	DB	0d8H
	DB	0d0H
	DB	0ffH
	DB	0d8H
	DB	0d8H
	DB	0d8H
	DB	0ffH
	DB	0d8H
	DB	0d4H
	DB	0d8H
	DB	0ffH
	DB	0d8H
	DB	0d8H
	DB	0d8H
	DB	0ffH
	DB	0d8H
	DB	0d8H
	DB	0d8H
	DB	0ffH
	DB	0d8H
	DB	0d8H
	DB	0d8H
	DB	0ffH
	DB	0d8H
	DB	0d4H
	DB	0d8H
	DB	0ffH
	DB	0d8H
	DB	0d8H
	DB	0d8H
	DB	0ffH
	DB	0d8H
	DB	0d8H
	DB	0d8H
	DB	0ffH
	DB	0d8H
	DB	0d4H
	DB	0d8H
	DB	0ffH
	DB	0d8H
	DB	0d8H
	DB	0d8H
	DB	0ffH
	DB	0d8H
	DB	0d4H
	DB	0d8H
	DB	0ffH
	DB	0d8H
	DB	0d4H
	DB	0d8H
	DB	0ffH
	DB	0d8H
	DB	0d8H
	DB	0d8H
	DB	0ffH
	DB	0d8H
	DB	0d8H
	DB	0d8H
	DB	0ffH
	DB	0d8H
	DB	0d8H
	DB	0d0H
	DB	0ffH
	DB	0d0H
	DB	0d4H
	DB	0d8H
	DB	0ffH
	DB	0d8H
	DB	0d4H
	DB	0d8H
	DB	0ffH
	DB	0d8H
	DB	0d8H
	DB	0d8H
	DB	0ffH
	DB	0d8H
	DB	0d8H
	DB	0d8H
	DB	0ffH
	DB	0d8H
	DB	0d8H
	DB	0d8H
	DB	0ffH
	DB	0d8H
	DB	0d8H
	DB	0d8H
	DB	0ffH
	DB	0d8H
	DB	0d8H
	DB	0d8H
	DB	0ffH
	DB	0d8H
	DB	0d4H
	DB	0d8H
	DB	0ffH
	DB	0d8H
	DB	0d8H
	DB	0d8H
	DB	0ffH
	DB	0d8H
	DB	0d8H
	DB	0d0H
	DB	0ffH
	DB	0d8H
	DB	0d4H
	DB	0d8H
	DB	0ffH
	DB	0d8H
	DB	0d8H
	DB	0d8H
	DB	0ffH
	DB	0d8H
	DB	0d8H
	DB	0d0H
	DB	0ffH
	DB	0d8H
	DB	0d8H
	DB	0d8H
	DB	0ffH
	DB	0d8H
	DB	0d4H
	DB	0d8H
	DB	0ffH
	DB	0d8H
	DB	0d8H
	DB	0d8H
	DB	0ffH
	DB	0d0H
	DB	0d8H
	DB	0d8H
	DB	0ffH
	DB	0d8H
	DB	0d8H
	DB	0d8H
	DB	0ffH
	DB	0d8H
	DB	0d8H
	DB	0d8H
	DB	0ffH
	DB	0d8H
	DB	0d8H
	DB	0d8H
	DB	0ffH
	DB	0d8H
	DB	0d8H
	DB	0d8H
	DB	0ffH
	DB	0d8H
	DB	0d8H
	DB	0d8H
	DB	0ffH
	DB	0d8H
	DB	0d4H
	DB	0d8H
	DB	0ffH
	DB	0d8H
	DB	0d8H
	DB	0d8H
	DB	0ffH
	DB	0d8H
	DB	0d8H
	DB	0d8H
	DB	0ffH
	DB	0d8H
	DB	0d4H
	DB	0d8H
	DB	0ffH
	DB	0d8H
	DB	0d8H
	DB	0d8H
	DB	0ffH
	DB	0d8H
	DB	0d8H
	DB	0d8H
	DB	0ffH
	DB	0d8H
	DB	0d8H
	DB	0d8H
	DB	0ffH
	DB	0d8H
	DB	0d4H
	DB	0d8H
	DB	0ffH
	DB	0d8H
	DB	0d8H
	DB	0d8H
	DB	0ffH
	DB	0d8H
	DB	0d8H
	DB	0d8H
	DB	0ffH
	DB	0a8H
	DB	0a8H
	DB	0a8H
	DB	0ffH
	DB	010H
	DB	010H
	DB	010H
	DB	0ffH
	DB	00H
	DB	00H
	DB	00H
	DB	0ffH
	DB	00H
	DB	00H
	DB	00H
	DB	0ffH
	DB	030H
	DB	030H
	DB	030H
	DB	0ffH
	DB	0f8H
	DB	0f4H
	DB	0f8H
	DB	0ffH
	DB	0f8H
	DB	0fcH
	DB	0f8H
	DB	0ffH
	DB	0f8H
	DB	0fcH
	DB	0f8H
	DB	0ffH
	DB	0f8H
	DB	0fcH
	DB	0f8H
	DB	071H
	DB	00H
	DB	00H
	DB	00H
	DB	00H
	DB	00H
	DB	00H
	DB	00H
	DB	00H
	DB	00H
	DB	00H
	DB	00H
	DB	00H
	DB	00H
	DB	00H
	DB	00H
	DB	00H
	DB	0f8H
	DB	0fcH
	DB	0f8H
	DB	04H
	DB	0f8H
	DB	0fcH
	DB	0f8H
	DB	0cbH
	DB	0f8H
	DB	0fcH
	DB	0f8H
	DB	0ffH
	DB	0f8H
	DB	0fcH
	DB	0f8H
	DB	0ffH
	DB	0d8H
	DB	0dcH
	DB	0d8H
	DB	0ffH
	DB	018H
	DB	014H
	DB	018H
	DB	0ffH
	DB	00H
	DB	00H
	DB	00H
	DB	0ffH
	DB	00H
	DB	04H
	DB	00H
	DB	0ffH
	DB	028H
	DB	024H
	DB	028H
	DB	0ffH
	DB	050H
	DB	044H
	DB	018H
	DB	0ffH
	DB	078H
	DB	058H
	DB	00H
	DB	0ffH
	DB	088H
	DB	064H
	DB	00H
	DB	0ffH
	DB	090H
	DB	06cH
	DB	00H
	DB	0ffH
	DB	090H
	DB	06cH
	DB	00H
	DB	0ffH
	DB	090H
	DB	06cH
	DB	00H
	DB	0ffH
	DB	090H
	DB	070H
	DB	00H
	DB	0ffH
	DB	090H
	DB	070H
	DB	00H
	DB	0ffH
	DB	098H
	DB	070H
	DB	00H
	DB	0ffH
	DB	090H
	DB	070H
	DB	00H
	DB	0ffH
	DB	090H
	DB	070H
	DB	00H
	DB	0ffH
	DB	098H
	DB	070H
	DB	00H
	DB	0ffH
	DB	090H
	DB	070H
	DB	00H
	DB	0ffH
	DB	098H
	DB	070H
	DB	00H
	DB	0ffH
	DB	090H
	DB	070H
	DB	00H
	DB	0ffH
	DB	098H
	DB	070H
	DB	00H
	DB	0ffH
	DB	098H
	DB	070H
	DB	00H
	DB	0ffH
	DB	090H
	DB	070H
	DB	00H
	DB	0ffH
	DB	090H
	DB	070H
	DB	00H
	DB	0ffH
	DB	098H
	DB	070H
	DB	00H
	DB	0ffH
	DB	090H
	DB	070H
	DB	00H
	DB	0ffH
	DB	098H
	DB	070H
	DB	00H
	DB	0ffH
	DB	098H
	DB	070H
	DB	00H
	DB	0ffH
	DB	090H
	DB	070H
	DB	00H
	DB	0ffH
	DB	090H
	DB	070H
	DB	00H
	DB	0ffH
	DB	098H
	DB	070H
	DB	00H
	DB	0ffH
	DB	090H
	DB	070H
	DB	00H
	DB	0ffH
	DB	090H
	DB	070H
	DB	00H
	DB	0ffH
	DB	098H
	DB	070H
	DB	00H
	DB	0ffH
	DB	098H
	DB	070H
	DB	00H
	DB	0ffH
	DB	090H
	DB	070H
	DB	00H
	DB	0ffH
	DB	098H
	DB	070H
	DB	00H
	DB	0ffH
	DB	090H
	DB	070H
	DB	00H
	DB	0ffH
	DB	098H
	DB	070H
	DB	00H
	DB	0ffH
	DB	090H
	DB	070H
	DB	00H
	DB	0ffH
	DB	090H
	DB	070H
	DB	00H
	DB	0ffH
	DB	098H
	DB	070H
	DB	00H
	DB	0ffH
	DB	098H
	DB	070H
	DB	00H
	DB	0ffH
	DB	090H
	DB	070H
	DB	00H
	DB	0ffH
	DB	098H
	DB	070H
	DB	00H
	DB	0ffH
	DB	098H
	DB	070H
	DB	00H
	DB	0ffH
	DB	090H
	DB	070H
	DB	00H
	DB	0ffH
	DB	098H
	DB	070H
	DB	00H
	DB	0ffH
	DB	098H
	DB	070H
	DB	00H
	DB	0ffH
	DB	090H
	DB	070H
	DB	00H
	DB	0ffH
	DB	098H
	DB	070H
	DB	00H
	DB	0ffH
	DB	098H
	DB	070H
	DB	00H
	DB	0ffH
	DB	090H
	DB	070H
	DB	00H
	DB	0ffH
	DB	098H
	DB	070H
	DB	00H
	DB	0ffH
	DB	098H
	DB	06cH
	DB	00H
	DB	0ffH
	DB	088H
	DB	064H
	DB	00H
	DB	0ffH
	DB	078H
	DB	058H
	DB	00H
	DB	0ffH
	DB	00H
	DB	00H
	DB	00H
	DB	0ffH
	DB	00H
	DB	00H
	DB	00H
	DB	0ffH
	DB	0d8H
	DB	0d8H
	DB	0d8H
	DB	0ffH
	DB	0d0H
	DB	0d8H
	DB	0d8H
	DB	0ffH
	DB	0d8H
	DB	0d4H
	DB	0d8H
	DB	0ffH
	DB	0d8H
	DB	0d8H
	DB	0d8H
	DB	0ffH
	DB	0d0H
	DB	0d8H
	DB	0d8H
	DB	0ffH
	DB	0d8H
	DB	0d8H
	DB	0d8H
	DB	0ffH
	DB	0d8H
	DB	0d8H
	DB	0d8H
	DB	0ffH
	DB	0d0H
	DB	0d4H
	DB	0d8H
	DB	0ffH
	DB	0d8H
	DB	0d8H
	DB	0d8H
	DB	0ffH
	DB	0d8H
	DB	0d8H
	DB	0d0H
	DB	0ffH
	DB	0d0H
	DB	0d8H
	DB	0d8H
	DB	0ffH
	DB	0d8H
	DB	0d8H
	DB	0d8H
	DB	0ffH
	DB	0d8H
	DB	0d8H
	DB	0d0H
	DB	0ffH
	DB	0d8H
	DB	0d8H
	DB	0d8H
	DB	0ffH
	DB	0d8H
	DB	0d8H
	DB	0d8H
	DB	0ffH
	DB	0d0H
	DB	0d8H
	DB	0d0H
	DB	0ffH
	DB	0d8H
	DB	0d8H
	DB	0d8H
	DB	0ffH
	DB	0d8H
	DB	0d4H
	DB	0d8H
	DB	0ffH
	DB	0d8H
	DB	0d8H
	DB	0d8H
	DB	0ffH
	DB	0d8H
	DB	0d8H
	DB	0d8H
	DB	0ffH
	DB	0d8H
	DB	0d8H
	DB	0d8H
	DB	0ffH
	DB	0d8H
	DB	0d8H
	DB	0d0H
	DB	0ffH
	DB	0d8H
	DB	0d4H
	DB	0d8H
	DB	0ffH
	DB	0d0H
	DB	0d4H
	DB	0d8H
	DB	0ffH
	DB	0d8H
	DB	0d8H
	DB	0d8H
	DB	0ffH
	DB	0d8H
	DB	0d8H
	DB	0d8H
	DB	0ffH
	DB	0d8H
	DB	0d8H
	DB	0d8H
	DB	0ffH
	DB	0d8H
	DB	0d8H
	DB	0d8H
	DB	0ffH
	DB	0d8H
	DB	0d4H
	DB	0d8H
	DB	0ffH
	DB	0d8H
	DB	0d8H
	DB	0d8H
	DB	0ffH
	DB	0d8H
	DB	0d8H
	DB	0d8H
	DB	0ffH
	DB	0d8H
	DB	0d8H
	DB	0d8H
	DB	0ffH
	DB	0d8H
	DB	0d8H
	DB	0d8H
	DB	0ffH
	DB	0d8H
	DB	0d8H
	DB	0d8H
	DB	0ffH
	DB	0d8H
	DB	0d8H
	DB	0d0H
	DB	0ffH
	DB	0d8H
	DB	0d4H
	DB	0d8H
	DB	0ffH
	DB	0d8H
	DB	0d8H
	DB	0d8H
	DB	0ffH
	DB	0d8H
	DB	0d8H
	DB	0d8H
	DB	0ffH
	DB	0d8H
	DB	0d4H
	DB	0d0H
	DB	0ffH
	DB	0d0H
	DB	0d8H
	DB	0d8H
	DB	0ffH
	DB	0d8H
	DB	0d8H
	DB	0d8H
	DB	0ffH
	DB	0d8H
	DB	0d8H
	DB	0d0H
	DB	0ffH
	DB	0d8H
	DB	0d8H
	DB	0d8H
	DB	0ffH
	DB	0d8H
	DB	0d4H
	DB	0d8H
	DB	0ffH
	DB	0d8H
	DB	0d8H
	DB	0d0H
	DB	0ffH
	DB	0d0H
	DB	0d8H
	DB	0d8H
	DB	0ffH
	DB	0d8H
	DB	0d4H
	DB	0d8H
	DB	0ffH
	DB	0d8H
	DB	0d8H
	DB	0d0H
	DB	0ffH
	DB	0d0H
	DB	0d8H
	DB	0d8H
	DB	0ffH
	DB	0d8H
	DB	0d8H
	DB	0d8H
	DB	0ffH
	DB	0d0H
	DB	0d4H
	DB	0d0H
	DB	0ffH
	DB	080H
	DB	080H
	DB	080H
	DB	0ffH
	DB	08H
	DB	08H
	DB	08H
	DB	0ffH
	DB	00H
	DB	00H
	DB	00H
	DB	0ffH
	DB	00H
	DB	00H
	DB	00H
	DB	0ffH
	DB	010H
	DB	014H
	DB	010H
	DB	0ffH
	DB	0d8H
	DB	0dcH
	DB	0d8H
	DB	0ffH
	DB	0f8H
	DB	0fcH
	DB	0f8H
	DB	0ffH
	DB	0f8H
	DB	0fcH
	DB	0f8H
	DB	0ffH
	DB	0f8H
	DB	0fcH
	DB	0f8H
	DB	0cfH
	DB	0f8H
	DB	0fcH
	DB	0f8H
	DB	04H
	DB	00H
	DB	00H
	DB	00H
	DB	00H
	DB	00H
	DB	00H
	DB	00H
	DB	00H
	DB	00H
	DB	00H
	DB	00H
	DB	00H
	DB	00H
	DB	00H
	DB	00H
	DB	00H
	DB	00H
	DB	00H
	DB	00H
	DB	00H
	DB	0f8H
	DB	0fcH
	DB	0f8H
	DB	028H
	DB	0f8H
	DB	0fcH
	DB	0f8H
	DB	0f3H
	DB	0f8H
	DB	0fcH
	DB	0f8H
	DB	0ffH
	DB	0f8H
	DB	0fcH
	DB	0f8H
	DB	0ffH
	DB	0d0H
	DB	0ccH
	DB	0d0H
	DB	0ffH
	DB	018H
	DB	018H
	DB	018H
	DB	0ffH
	DB	00H
	DB	00H
	DB	00H
	DB	0ffH
	DB	00H
	DB	00H
	DB	00H
	DB	0ffH
	DB	018H
	DB	01cH
	DB	018H
	DB	0ffH
	DB	040H
	DB	038H
	DB	028H
	DB	0ffH
	DB	060H
	DB	04cH
	DB	08H
	DB	0ffH
	DB	078H
	DB	058H
	DB	00H
	DB	0ffH
	DB	080H
	DB	060H
	DB	00H
	DB	0ffH
	DB	088H
	DB	064H
	DB	00H
	DB	0ffH
	DB	090H
	DB	068H
	DB	00H
	DB	0ffH
	DB	090H
	DB	06cH
	DB	00H
	DB	0ffH
	DB	090H
	DB	06cH
	DB	00H
	DB	0ffH
	DB	090H
	DB	068H
	DB	00H
	DB	0ffH
	DB	090H
	DB	06cH
	DB	00H
	DB	0ffH
	DB	090H
	DB	06cH
	DB	00H
	DB	0ffH
	DB	090H
	DB	06cH
	DB	00H
	DB	0ffH
	DB	090H
	DB	06cH
	DB	00H
	DB	0ffH
	DB	090H
	DB	06cH
	DB	00H
	DB	0ffH
	DB	090H
	DB	06cH
	DB	00H
	DB	0ffH
	DB	090H
	DB	06cH
	DB	00H
	DB	0ffH
	DB	090H
	DB	06cH
	DB	00H
	DB	0ffH
	DB	090H
	DB	06cH
	DB	00H
	DB	0ffH
	DB	090H
	DB	06cH
	DB	00H
	DB	0ffH
	DB	090H
	DB	068H
	DB	00H
	DB	0ffH
	DB	090H
	DB	06cH
	DB	00H
	DB	0ffH
	DB	090H
	DB	06cH
	DB	00H
	DB	0ffH
	DB	090H
	DB	06cH
	DB	00H
	DB	0ffH
	DB	090H
	DB	06cH
	DB	00H
	DB	0ffH
	DB	090H
	DB	06cH
	DB	00H
	DB	0ffH
	DB	090H
	DB	068H
	DB	00H
	DB	0ffH
	DB	090H
	DB	06cH
	DB	00H
	DB	0ffH
	DB	090H
	DB	06cH
	DB	00H
	DB	0ffH
	DB	090H
	DB	06cH
	DB	00H
	DB	0ffH
	DB	090H
	DB	068H
	DB	00H
	DB	0ffH
	DB	090H
	DB	06cH
	DB	00H
	DB	0ffH
	DB	090H
	DB	06cH
	DB	00H
	DB	0ffH
	DB	090H
	DB	06cH
	DB	00H
	DB	0ffH
	DB	090H
	DB	06cH
	DB	00H
	DB	0ffH
	DB	090H
	DB	06cH
	DB	00H
	DB	0ffH
	DB	090H
	DB	06cH
	DB	00H
	DB	0ffH
	DB	090H
	DB	068H
	DB	00H
	DB	0ffH
	DB	090H
	DB	06cH
	DB	00H
	DB	0ffH
	DB	090H
	DB	06cH
	DB	00H
	DB	0ffH
	DB	090H
	DB	06cH
	DB	00H
	DB	0ffH
	DB	090H
	DB	06cH
	DB	00H
	DB	0ffH
	DB	090H
	DB	06cH
	DB	00H
	DB	0ffH
	DB	090H
	DB	06cH
	DB	00H
	DB	0ffH
	DB	090H
	DB	06cH
	DB	00H
	DB	0ffH
	DB	090H
	DB	06cH
	DB	00H
	DB	0ffH
	DB	090H
	DB	068H
	DB	00H
	DB	0ffH
	DB	090H
	DB	06cH
	DB	00H
	DB	0ffH
	DB	090H
	DB	06cH
	DB	00H
	DB	0ffH
	DB	090H
	DB	068H
	DB	00H
	DB	0ffH
	DB	088H
	DB	060H
	DB	00H
	DB	0ffH
	DB	070H
	DB	054H
	DB	00H
	DB	0ffH
	DB	00H
	DB	00H
	DB	00H
	DB	0ffH
	DB	00H
	DB	00H
	DB	00H
	DB	0ffH
	DB	0d8H
	DB	0d8H
	DB	0d8H
	DB	0ffH
	DB	0d8H
	DB	0d8H
	DB	0d8H
	DB	0ffH
	DB	0d8H
	DB	0d8H
	DB	0d8H
	DB	0ffH
	DB	0d8H
	DB	0d8H
	DB	0d8H
	DB	0ffH
	DB	0d8H
	DB	0d4H
	DB	0d8H
	DB	0ffH
	DB	0d8H
	DB	0d8H
	DB	0d8H
	DB	0ffH
	DB	0d8H
	DB	0d8H
	DB	0d0H
	DB	0ffH
	DB	0d8H
	DB	0d8H
	DB	0d8H
	DB	0ffH
	DB	0d8H
	DB	0d4H
	DB	0d8H
	DB	0ffH
	DB	0d8H
	DB	0d8H
	DB	0d8H
	DB	0ffH
	DB	0d8H
	DB	0d8H
	DB	0d8H
	DB	0ffH
	DB	0d8H
	DB	0d4H
	DB	0d8H
	DB	0ffH
	DB	0d0H
	DB	0d4H
	DB	0d8H
	DB	0ffH
	DB	0d8H
	DB	0d8H
	DB	0d8H
	DB	0ffH
	DB	0d8H
	DB	0d8H
	DB	0d8H
	DB	0ffH
	DB	0d8H
	DB	0d8H
	DB	0d8H
	DB	0ffH
	DB	0d8H
	DB	0d8H
	DB	0d8H
	DB	0ffH
	DB	0d8H
	DB	0d8H
	DB	0d8H
	DB	0ffH
	DB	0d0H
	DB	0d4H
	DB	0d8H
	DB	0ffH
	DB	0d8H
	DB	0d8H
	DB	0d8H
	DB	0ffH
	DB	0d8H
	DB	0d8H
	DB	0d8H
	DB	0ffH
	DB	0d8H
	DB	0d8H
	DB	0d8H
	DB	0ffH
	DB	0d8H
	DB	0d8H
	DB	0d8H
	DB	0ffH
	DB	0d8H
	DB	0d8H
	DB	0d0H
	DB	0ffH
	DB	0d8H
	DB	0d4H
	DB	0d8H
	DB	0ffH
	DB	0d8H
	DB	0d8H
	DB	0d8H
	DB	0ffH
	DB	0d0H
	DB	0d8H
	DB	0d0H
	DB	0ffH
	DB	0d8H
	DB	0d4H
	DB	0d8H
	DB	0ffH
	DB	0d8H
	DB	0d8H
	DB	0d8H
	DB	0ffH
	DB	0d0H
	DB	0d8H
	DB	0d8H
	DB	0ffH
	DB	0d8H
	DB	0d8H
	DB	0d8H
	DB	0ffH
	DB	0d8H
	DB	0d4H
	DB	0d8H
	DB	0ffH
	DB	0d0H
	DB	0d4H
	DB	0d8H
	DB	0ffH
	DB	0d8H
	DB	0d8H
	DB	0d8H
	DB	0ffH
	DB	0d8H
	DB	0d8H
	DB	0d8H
	DB	0ffH
	DB	0d8H
	DB	0d8H
	DB	0d8H
	DB	0ffH
	DB	0d8H
	DB	0d4H
	DB	0d8H
	DB	0ffH
	DB	0d8H
	DB	0d8H
	DB	0d8H
	DB	0ffH
	DB	0d8H
	DB	0d8H
	DB	0d8H
	DB	0ffH
	DB	0d8H
	DB	0d4H
	DB	0d8H
	DB	0ffH
	DB	0d8H
	DB	0d8H
	DB	0d8H
	DB	0ffH
	DB	0d8H
	DB	0d4H
	DB	0d8H
	DB	0ffH
	DB	0d0H
	DB	0d8H
	DB	0d8H
	DB	0ffH
	DB	0d8H
	DB	0d8H
	DB	0d8H
	DB	0ffH
	DB	0d8H
	DB	0d8H
	DB	0d8H
	DB	0ffH
	DB	0d8H
	DB	0d8H
	DB	0d8H
	DB	0ffH
	DB	0d8H
	DB	0d4H
	DB	0d8H
	DB	0ffH
	DB	0d8H
	DB	0d8H
	DB	0d8H
	DB	0ffH
	DB	0d8H
	DB	0d8H
	DB	0d8H
	DB	0ffH
	DB	0a8H
	DB	0a4H
	DB	0a0H
	DB	0ffH
	DB	038H
	DB	034H
	DB	038H
	DB	0ffH
	DB	00H
	DB	00H
	DB	00H
	DB	0ffH
	DB	00H
	DB	00H
	DB	00H
	DB	0ffH
	DB	00H
	DB	00H
	DB	00H
	DB	0ffH
	DB	018H
	DB	018H
	DB	018H
	DB	0ffH
	DB	0d0H
	DB	0ccH
	DB	0d0H
	DB	0ffH
	DB	0f8H
	DB	0fcH
	DB	0f8H
	DB	0ffH
	DB	0f8H
	DB	0fcH
	DB	0f8H
	DB	0ffH
	DB	0f8H
	DB	0fcH
	DB	0f8H
	DB	0f3H
	DB	0f8H
	DB	0fcH
	DB	0f8H
	DB	028H
	DB	00H
	DB	00H
	DB	00H
	DB	00H
	DB	00H
	DB	00H
	DB	00H
	DB	00H
	DB	00H
	DB	00H
	DB	00H
	DB	00H
	DB	00H
	DB	00H
	DB	00H
	DB	00H
	DB	00H
	DB	00H
	DB	00H
	DB	00H
	DB	00H
	DB	00H
	DB	00H
	DB	00H
	DB	00H
	DB	00H
	DB	00H
	DB	00H
	DB	0f8H
	DB	0fcH
	DB	0f8H
	DB	04dH
	DB	0f8H
	DB	0fcH
	DB	0f8H
	DB	0fbH
	DB	0f8H
	DB	0fcH
	DB	0f8H
	DB	0ffH
	DB	0f8H
	DB	0fcH
	DB	0f8H
	DB	0ffH
	DB	0d8H
	DB	0dcH
	DB	0d8H
	DB	0ffH
	DB	030H
	DB	02cH
	DB	030H
	DB	0ffH
	DB	00H
	DB	00H
	DB	00H
	DB	0ffH
	DB	00H
	DB	00H
	DB	00H
	DB	0ffH
	DB	08H
	DB	0cH
	DB	08H
	DB	0ffH
	DB	028H
	DB	024H
	DB	028H
	DB	0ffH
	DB	038H
	DB	034H
	DB	028H
	DB	0ffH
	DB	050H
	DB	040H
	DB	018H
	DB	0ffH
	DB	060H
	DB	048H
	DB	010H
	DB	0ffH
	DB	070H
	DB	054H
	DB	08H
	DB	0ffH
	DB	078H
	DB	058H
	DB	00H
	DB	0ffH
	DB	078H
	DB	058H
	DB	00H
	DB	0ffH
	DB	078H
	DB	058H
	DB	00H
	DB	0ffH
	DB	078H
	DB	058H
	DB	00H
	DB	0ffH
	DB	078H
	DB	058H
	DB	00H
	DB	0ffH
	DB	078H
	DB	058H
	DB	00H
	DB	0ffH
	DB	078H
	DB	058H
	DB	00H
	DB	0ffH
	DB	078H
	DB	058H
	DB	00H
	DB	0ffH
	DB	078H
	DB	058H
	DB	00H
	DB	0ffH
	DB	078H
	DB	058H
	DB	00H
	DB	0ffH
	DB	078H
	DB	058H
	DB	00H
	DB	0ffH
	DB	078H
	DB	058H
	DB	00H
	DB	0ffH
	DB	078H
	DB	058H
	DB	00H
	DB	0ffH
	DB	078H
	DB	058H
	DB	00H
	DB	0ffH
	DB	078H
	DB	058H
	DB	00H
	DB	0ffH
	DB	078H
	DB	058H
	DB	00H
	DB	0ffH
	DB	078H
	DB	058H
	DB	00H
	DB	0ffH
	DB	078H
	DB	058H
	DB	00H
	DB	0ffH
	DB	078H
	DB	058H
	DB	00H
	DB	0ffH
	DB	078H
	DB	058H
	DB	00H
	DB	0ffH
	DB	078H
	DB	058H
	DB	00H
	DB	0ffH
	DB	078H
	DB	058H
	DB	00H
	DB	0ffH
	DB	078H
	DB	058H
	DB	00H
	DB	0ffH
	DB	078H
	DB	058H
	DB	00H
	DB	0ffH
	DB	078H
	DB	058H
	DB	00H
	DB	0ffH
	DB	078H
	DB	058H
	DB	00H
	DB	0ffH
	DB	078H
	DB	058H
	DB	00H
	DB	0ffH
	DB	078H
	DB	058H
	DB	00H
	DB	0ffH
	DB	078H
	DB	058H
	DB	00H
	DB	0ffH
	DB	078H
	DB	058H
	DB	00H
	DB	0ffH
	DB	078H
	DB	058H
	DB	00H
	DB	0ffH
	DB	078H
	DB	058H
	DB	00H
	DB	0ffH
	DB	078H
	DB	058H
	DB	00H
	DB	0ffH
	DB	078H
	DB	058H
	DB	00H
	DB	0ffH
	DB	078H
	DB	058H
	DB	00H
	DB	0ffH
	DB	078H
	DB	058H
	DB	00H
	DB	0ffH
	DB	078H
	DB	058H
	DB	00H
	DB	0ffH
	DB	078H
	DB	058H
	DB	00H
	DB	0ffH
	DB	078H
	DB	058H
	DB	00H
	DB	0ffH
	DB	078H
	DB	058H
	DB	00H
	DB	0ffH
	DB	078H
	DB	058H
	DB	00H
	DB	0ffH
	DB	078H
	DB	05cH
	DB	00H
	DB	0ffH
	DB	078H
	DB	058H
	DB	00H
	DB	0ffH
	DB	070H
	DB	054H
	DB	00H
	DB	0ffH
	DB	060H
	DB	04cH
	DB	00H
	DB	0ffH
	DB	00H
	DB	00H
	DB	00H
	DB	0ffH
	DB	00H
	DB	00H
	DB	00H
	DB	0ffH
	DB	0d8H
	DB	0d8H
	DB	0d8H
	DB	0ffH
	DB	0d8H
	DB	0d4H
	DB	0d8H
	DB	0ffH
	DB	0d8H
	DB	0d8H
	DB	0d0H
	DB	0ffH
	DB	0d8H
	DB	0d8H
	DB	0d8H
	DB	0ffH
	DB	0d8H
	DB	0d4H
	DB	0d8H
	DB	0ffH
	DB	0d8H
	DB	0d8H
	DB	0d8H
	DB	0ffH
	DB	0d8H
	DB	0d8H
	DB	0d8H
	DB	0ffH
	DB	0d8H
	DB	0d8H
	DB	0d8H
	DB	0ffH
	DB	0d8H
	DB	0d8H
	DB	0d8H
	DB	0ffH
	DB	0d8H
	DB	0d4H
	DB	0d8H
	DB	0ffH
	DB	0d8H
	DB	0d8H
	DB	0d8H
	DB	0ffH
	DB	0d8H
	DB	0d8H
	DB	0d8H
	DB	0ffH
	DB	0d8H
	DB	0d8H
	DB	0d8H
	DB	0ffH
	DB	0d8H
	DB	0d4H
	DB	0d8H
	DB	0ffH
	DB	0d8H
	DB	0d8H
	DB	0d8H
	DB	0ffH
	DB	0d8H
	DB	0d4H
	DB	0d8H
	DB	0ffH
	DB	0d8H
	DB	0d8H
	DB	0d0H
	DB	0ffH
	DB	0d8H
	DB	0d8H
	DB	0d8H
	DB	0ffH
	DB	0d8H
	DB	0d8H
	DB	0d8H
	DB	0ffH
	DB	0d8H
	DB	0d4H
	DB	0d0H
	DB	0ffH
	DB	0d0H
	DB	0d8H
	DB	0d8H
	DB	0ffH
	DB	0d8H
	DB	0d8H
	DB	0d8H
	DB	0ffH
	DB	0d8H
	DB	0d8H
	DB	0d8H
	DB	0ffH
	DB	0d8H
	DB	0d8H
	DB	0d8H
	DB	0ffH
	DB	0d8H
	DB	0d8H
	DB	0d8H
	DB	0ffH
	DB	0d8H
	DB	0d4H
	DB	0d8H
	DB	0ffH
	DB	0d8H
	DB	0d8H
	DB	0d8H
	DB	0ffH
	DB	0d8H
	DB	0d8H
	DB	0d8H
	DB	0ffH
	DB	0d8H
	DB	0d8H
	DB	0d8H
	DB	0ffH
	DB	0d8H
	DB	0d8H
	DB	0d0H
	DB	0ffH
	DB	0d8H
	DB	0d4H
	DB	0d8H
	DB	0ffH
	DB	0d8H
	DB	0d8H
	DB	0d8H
	DB	0ffH
	DB	0d8H
	DB	0d8H
	DB	0d0H
	DB	0ffH
	DB	0d8H
	DB	0d4H
	DB	0d8H
	DB	0ffH
	DB	0d0H
	DB	0d8H
	DB	0d8H
	DB	0ffH
	DB	0d8H
	DB	0d8H
	DB	0d8H
	DB	0ffH
	DB	0d8H
	DB	0d8H
	DB	0d0H
	DB	0ffH
	DB	0d0H
	DB	0d8H
	DB	0d8H
	DB	0ffH
	DB	0d8H
	DB	0d8H
	DB	0d8H
	DB	0ffH
	DB	0d8H
	DB	0d8H
	DB	0d8H
	DB	0ffH
	DB	0d8H
	DB	0d8H
	DB	0d8H
	DB	0ffH
	DB	0d8H
	DB	0d8H
	DB	0d8H
	DB	0ffH
	DB	0d8H
	DB	0d4H
	DB	0d8H
	DB	0ffH
	DB	0d8H
	DB	0d8H
	DB	0d8H
	DB	0ffH
	DB	0d0H
	DB	0d4H
	DB	0d0H
	DB	0ffH
	DB	0c0H
	DB	0c0H
	DB	0c0H
	DB	0ffH
	DB	0a0H
	DB	0a0H
	DB	0a0H
	DB	0ffH
	DB	060H
	DB	064H
	DB	060H
	DB	0ffH
	DB	020H
	DB	020H
	DB	020H
	DB	0ffH
	DB	00H
	DB	00H
	DB	00H
	DB	0ffH
	DB	00H
	DB	00H
	DB	00H
	DB	0ffH
	DB	00H
	DB	00H
	DB	00H
	DB	0ffH
	DB	00H
	DB	00H
	DB	00H
	DB	0ffH
	DB	030H
	DB	02cH
	DB	030H
	DB	0ffH
	DB	0d8H
	DB	0dcH
	DB	0d8H
	DB	0ffH
	DB	0f8H
	DB	0fcH
	DB	0f8H
	DB	0ffH
	DB	0f8H
	DB	0fcH
	DB	0f8H
	DB	0ffH
	DB	0f8H
	DB	0fcH
	DB	0f8H
	DB	0fbH
	DB	0f8H
	DB	0fcH
	DB	0f8H
	DB	04dH
	DB	00H
	DB	00H
	DB	00H
	DB	00H
	DB	00H
	DB	00H
	DB	00H
	DB	00H
	DB	00H
	DB	00H
	DB	00H
	DB	00H
	DB	00H
	DB	00H
	DB	00H
	DB	00H
	DB	00H
	DB	00H
	DB	00H
	DB	00H
	DB	00H
	DB	00H
	DB	00H
	DB	00H
	DB	00H
	DB	00H
	DB	00H
	DB	00H
	DB	00H
	DB	00H
	DB	00H
	DB	00H
	DB	00H
	DB	00H
	DB	00H
	DB	00H
	DB	0f8H
	DB	0fcH
	DB	0f8H
	DB	05dH
	DB	0f8H
	DB	0fcH
	DB	0f8H
	DB	0fbH
	DB	0f8H
	DB	0fcH
	DB	0f8H
	DB	0ffH
	DB	0f8H
	DB	0fcH
	DB	0f8H
	DB	0ffH
	DB	0f8H
	DB	0f8H
	DB	0f8H
	DB	0ffH
	DB	078H
	DB	074H
	DB	078H
	DB	0ffH
	DB	08H
	DB	04H
	DB	08H
	DB	0ffH
	DB	00H
	DB	00H
	DB	00H
	DB	0ffH
	DB	00H
	DB	00H
	DB	00H
	DB	0ffH
	DB	08H
	DB	08H
	DB	08H
	DB	0ffH
	DB	018H
	DB	014H
	DB	018H
	DB	0ffH
	DB	020H
	DB	020H
	DB	020H
	DB	0ffH
	DB	028H
	DB	02cH
	DB	028H
	DB	0ffH
	DB	030H
	DB	02cH
	DB	030H
	DB	0ffH
	DB	030H
	DB	02cH
	DB	030H
	DB	0ffH
	DB	030H
	DB	030H
	DB	030H
	DB	0ffH
	DB	030H
	DB	02cH
	DB	030H
	DB	0ffH
	DB	030H
	DB	030H
	DB	030H
	DB	0ffH
	DB	030H
	DB	030H
	DB	030H
	DB	0ffH
	DB	030H
	DB	02cH
	DB	030H
	DB	0ffH
	DB	030H
	DB	030H
	DB	030H
	DB	0ffH
	DB	030H
	DB	02cH
	DB	030H
	DB	0ffH
	DB	030H
	DB	030H
	DB	030H
	DB	0ffH
	DB	030H
	DB	02cH
	DB	030H
	DB	0ffH
	DB	030H
	DB	030H
	DB	030H
	DB	0ffH
	DB	030H
	DB	030H
	DB	030H
	DB	0ffH
	DB	030H
	DB	030H
	DB	030H
	DB	0ffH
	DB	030H
	DB	030H
	DB	030H
	DB	0ffH
	DB	030H
	DB	030H
	DB	030H
	DB	0ffH
	DB	030H
	DB	02cH
	DB	030H
	DB	0ffH
	DB	030H
	DB	030H
	DB	030H
	DB	0ffH
	DB	030H
	DB	030H
	DB	030H
	DB	0ffH
	DB	030H
	DB	030H
	DB	030H
	DB	0ffH
	DB	030H
	DB	030H
	DB	030H
	DB	0ffH
	DB	030H
	DB	030H
	DB	030H
	DB	0ffH
	DB	030H
	DB	030H
	DB	030H
	DB	0ffH
	DB	030H
	DB	030H
	DB	030H
	DB	0ffH
	DB	030H
	DB	030H
	DB	030H
	DB	0ffH
	DB	030H
	DB	02cH
	DB	030H
	DB	0ffH
	DB	030H
	DB	030H
	DB	030H
	DB	0ffH
	DB	030H
	DB	02cH
	DB	030H
	DB	0ffH
	DB	030H
	DB	030H
	DB	030H
	DB	0ffH
	DB	030H
	DB	030H
	DB	030H
	DB	0ffH
	DB	030H
	DB	030H
	DB	030H
	DB	0ffH
	DB	030H
	DB	030H
	DB	030H
	DB	0ffH
	DB	030H
	DB	02cH
	DB	030H
	DB	0ffH
	DB	030H
	DB	030H
	DB	030H
	DB	0ffH
	DB	030H
	DB	030H
	DB	030H
	DB	0ffH
	DB	030H
	DB	02cH
	DB	030H
	DB	0ffH
	DB	030H
	DB	030H
	DB	030H
	DB	0ffH
	DB	030H
	DB	030H
	DB	030H
	DB	0ffH
	DB	030H
	DB	030H
	DB	030H
	DB	0ffH
	DB	030H
	DB	02cH
	DB	030H
	DB	0ffH
	DB	030H
	DB	030H
	DB	030H
	DB	0ffH
	DB	030H
	DB	02cH
	DB	030H
	DB	0ffH
	DB	030H
	DB	02cH
	DB	030H
	DB	0ffH
	DB	030H
	DB	030H
	DB	030H
	DB	0ffH
	DB	030H
	DB	02cH
	DB	030H
	DB	0ffH
	DB	00H
	DB	00H
	DB	00H
	DB	0ffH
	DB	00H
	DB	00H
	DB	00H
	DB	0ffH
	DB	00H
	DB	00H
	DB	00H
	DB	0ffH
	DB	00H
	DB	00H
	DB	00H
	DB	0ffH
	DB	00H
	DB	00H
	DB	00H
	DB	0ffH
	DB	00H
	DB	00H
	DB	00H
	DB	0ffH
	DB	00H
	DB	00H
	DB	00H
	DB	0ffH
	DB	00H
	DB	00H
	DB	00H
	DB	0ffH
	DB	00H
	DB	00H
	DB	00H
	DB	0ffH
	DB	00H
	DB	00H
	DB	00H
	DB	0ffH
	DB	00H
	DB	00H
	DB	00H
	DB	0ffH
	DB	00H
	DB	00H
	DB	00H
	DB	0ffH
	DB	00H
	DB	00H
	DB	00H
	DB	0ffH
	DB	00H
	DB	00H
	DB	00H
	DB	0ffH
	DB	00H
	DB	00H
	DB	00H
	DB	0ffH
	DB	00H
	DB	00H
	DB	00H
	DB	0ffH
	DB	00H
	DB	00H
	DB	00H
	DB	0ffH
	DB	00H
	DB	00H
	DB	00H
	DB	0ffH
	DB	00H
	DB	00H
	DB	00H
	DB	0ffH
	DB	00H
	DB	00H
	DB	00H
	DB	0ffH
	DB	00H
	DB	00H
	DB	00H
	DB	0ffH
	DB	00H
	DB	00H
	DB	00H
	DB	0ffH
	DB	00H
	DB	00H
	DB	00H
	DB	0ffH
	DB	00H
	DB	00H
	DB	00H
	DB	0ffH
	DB	00H
	DB	00H
	DB	00H
	DB	0ffH
	DB	00H
	DB	00H
	DB	00H
	DB	0ffH
	DB	00H
	DB	00H
	DB	00H
	DB	0ffH
	DB	00H
	DB	00H
	DB	00H
	DB	0ffH
	DB	00H
	DB	00H
	DB	00H
	DB	0ffH
	DB	00H
	DB	00H
	DB	00H
	DB	0ffH
	DB	00H
	DB	00H
	DB	00H
	DB	0ffH
	DB	00H
	DB	00H
	DB	00H
	DB	0ffH
	DB	00H
	DB	00H
	DB	00H
	DB	0ffH
	DB	00H
	DB	00H
	DB	00H
	DB	0ffH
	DB	00H
	DB	00H
	DB	00H
	DB	0ffH
	DB	00H
	DB	00H
	DB	00H
	DB	0ffH
	DB	00H
	DB	00H
	DB	00H
	DB	0ffH
	DB	00H
	DB	00H
	DB	00H
	DB	0ffH
	DB	00H
	DB	00H
	DB	00H
	DB	0ffH
	DB	00H
	DB	00H
	DB	00H
	DB	0ffH
	DB	00H
	DB	00H
	DB	00H
	DB	0ffH
	DB	00H
	DB	00H
	DB	00H
	DB	0ffH
	DB	00H
	DB	00H
	DB	00H
	DB	0ffH
	DB	00H
	DB	00H
	DB	00H
	DB	0ffH
	DB	00H
	DB	00H
	DB	00H
	DB	0ffH
	DB	00H
	DB	00H
	DB	00H
	DB	0ffH
	DB	00H
	DB	00H
	DB	00H
	DB	0ffH
	DB	00H
	DB	00H
	DB	00H
	DB	0ffH
	DB	00H
	DB	00H
	DB	00H
	DB	0ffH
	DB	00H
	DB	00H
	DB	00H
	DB	0ffH
	DB	00H
	DB	00H
	DB	00H
	DB	0ffH
	DB	00H
	DB	00H
	DB	00H
	DB	0ffH
	DB	00H
	DB	00H
	DB	00H
	DB	0ffH
	DB	00H
	DB	04H
	DB	00H
	DB	0ffH
	DB	078H
	DB	078H
	DB	078H
	DB	0ffH
	DB	0f8H
	DB	0f8H
	DB	0f8H
	DB	0ffH
	DB	0f8H
	DB	0fcH
	DB	0f8H
	DB	0ffH
	DB	0f8H
	DB	0fcH
	DB	0f8H
	DB	0ffH
	DB	0f8H
	DB	0fcH
	DB	0f8H
	DB	0fbH
	DB	0f8H
	DB	0fcH
	DB	0f8H
	DB	05dH
	DB	00H
	DB	00H
	DB	00H
	DB	00H
	DB	00H
	DB	00H
	DB	00H
	DB	00H
	DB	00H
	DB	00H
	DB	00H
	DB	00H
	DB	00H
	DB	00H
	DB	00H
	DB	00H
	DB	00H
	DB	00H
	DB	00H
	DB	00H
	DB	00H
	DB	00H
	DB	00H
	DB	00H
	DB	00H
	DB	00H
	DB	00H
	DB	00H
	DB	00H
	DB	00H
	DB	00H
	DB	00H
	DB	00H
	DB	00H
	DB	00H
	DB	00H
	DB	00H
	DB	00H
	DB	00H
	DB	00H
	DB	00H
	DB	00H
	DB	00H
	DB	00H
	DB	0f8H
	DB	0fcH
	DB	0f8H
	DB	051H
	DB	0f8H
	DB	0fcH
	DB	0f8H
	DB	0f3H
	DB	0f8H
	DB	0fcH
	DB	0f8H
	DB	0ffH
	DB	0f8H
	DB	0fcH
	DB	0f8H
	DB	0ffH
	DB	0f8H
	DB	0fcH
	DB	0f8H
	DB	0ffH
	DB	0d8H
	DB	0dcH
	DB	0d8H
	DB	0ffH
	DB	068H
	DB	064H
	DB	060H
	DB	0ffH
	DB	08H
	DB	08H
	DB	08H
	DB	0ffH
	DB	00H
	DB	00H
	DB	00H
	DB	0ffH
	DB	00H
	DB	00H
	DB	00H
	DB	0ffH
	DB	00H
	DB	00H
	DB	00H
	DB	0ffH
	DB	00H
	DB	00H
	DB	00H
	DB	0ffH
	DB	00H
	DB	00H
	DB	00H
	DB	0ffH
	DB	00H
	DB	00H
	DB	00H
	DB	0ffH
	DB	00H
	DB	00H
	DB	00H
	DB	0ffH
	DB	00H
	DB	00H
	DB	00H
	DB	0ffH
	DB	00H
	DB	00H
	DB	00H
	DB	0ffH
	DB	00H
	DB	00H
	DB	00H
	DB	0ffH
	DB	00H
	DB	00H
	DB	00H
	DB	0ffH
	DB	00H
	DB	00H
	DB	00H
	DB	0ffH
	DB	00H
	DB	00H
	DB	00H
	DB	0ffH
	DB	00H
	DB	00H
	DB	00H
	DB	0ffH
	DB	00H
	DB	00H
	DB	00H
	DB	0ffH
	DB	00H
	DB	00H
	DB	00H
	DB	0ffH
	DB	00H
	DB	00H
	DB	00H
	DB	0ffH
	DB	00H
	DB	00H
	DB	00H
	DB	0ffH
	DB	00H
	DB	00H
	DB	00H
	DB	0ffH
	DB	00H
	DB	00H
	DB	00H
	DB	0ffH
	DB	00H
	DB	00H
	DB	00H
	DB	0ffH
	DB	00H
	DB	00H
	DB	00H
	DB	0ffH
	DB	00H
	DB	00H
	DB	00H
	DB	0ffH
	DB	00H
	DB	00H
	DB	00H
	DB	0ffH
	DB	00H
	DB	00H
	DB	00H
	DB	0ffH
	DB	00H
	DB	00H
	DB	00H
	DB	0ffH
	DB	00H
	DB	00H
	DB	00H
	DB	0ffH
	DB	00H
	DB	00H
	DB	00H
	DB	0ffH
	DB	00H
	DB	00H
	DB	00H
	DB	0ffH
	DB	00H
	DB	00H
	DB	00H
	DB	0ffH
	DB	00H
	DB	00H
	DB	00H
	DB	0ffH
	DB	00H
	DB	00H
	DB	00H
	DB	0ffH
	DB	00H
	DB	00H
	DB	00H
	DB	0ffH
	DB	00H
	DB	00H
	DB	00H
	DB	0ffH
	DB	00H
	DB	00H
	DB	00H
	DB	0ffH
	DB	00H
	DB	00H
	DB	00H
	DB	0ffH
	DB	00H
	DB	00H
	DB	00H
	DB	0ffH
	DB	00H
	DB	00H
	DB	00H
	DB	0ffH
	DB	00H
	DB	00H
	DB	00H
	DB	0ffH
	DB	00H
	DB	00H
	DB	00H
	DB	0ffH
	DB	00H
	DB	00H
	DB	00H
	DB	0ffH
	DB	00H
	DB	00H
	DB	00H
	DB	0ffH
	DB	00H
	DB	00H
	DB	00H
	DB	0ffH
	DB	00H
	DB	00H
	DB	00H
	DB	0ffH
	DB	00H
	DB	00H
	DB	00H
	DB	0ffH
	DB	00H
	DB	00H
	DB	00H
	DB	0ffH
	DB	00H
	DB	00H
	DB	00H
	DB	0ffH
	DB	00H
	DB	00H
	DB	00H
	DB	0ffH
	DB	00H
	DB	00H
	DB	00H
	DB	0ffH
	DB	00H
	DB	00H
	DB	00H
	DB	0ffH
	DB	00H
	DB	00H
	DB	00H
	DB	0ffH
	DB	00H
	DB	00H
	DB	00H
	DB	0ffH
	DB	00H
	DB	00H
	DB	00H
	DB	0ffH
	DB	00H
	DB	00H
	DB	00H
	DB	0ffH
	DB	00H
	DB	00H
	DB	00H
	DB	0ffH
	DB	00H
	DB	00H
	DB	00H
	DB	0ffH
	DB	00H
	DB	00H
	DB	00H
	DB	0ffH
	DB	00H
	DB	00H
	DB	00H
	DB	0ffH
	DB	00H
	DB	00H
	DB	00H
	DB	0ffH
	DB	00H
	DB	00H
	DB	00H
	DB	0ffH
	DB	00H
	DB	00H
	DB	00H
	DB	0ffH
	DB	00H
	DB	00H
	DB	00H
	DB	0ffH
	DB	00H
	DB	00H
	DB	00H
	DB	0ffH
	DB	00H
	DB	00H
	DB	00H
	DB	0ffH
	DB	00H
	DB	00H
	DB	00H
	DB	0ffH
	DB	00H
	DB	00H
	DB	00H
	DB	0ffH
	DB	00H
	DB	00H
	DB	00H
	DB	0ffH
	DB	00H
	DB	00H
	DB	00H
	DB	0ffH
	DB	00H
	DB	00H
	DB	00H
	DB	0ffH
	DB	00H
	DB	00H
	DB	00H
	DB	0ffH
	DB	00H
	DB	00H
	DB	00H
	DB	0ffH
	DB	00H
	DB	00H
	DB	00H
	DB	0ffH
	DB	00H
	DB	00H
	DB	00H
	DB	0ffH
	DB	00H
	DB	00H
	DB	00H
	DB	0ffH
	DB	00H
	DB	00H
	DB	00H
	DB	0ffH
	DB	00H
	DB	00H
	DB	00H
	DB	0ffH
	DB	00H
	DB	00H
	DB	00H
	DB	0ffH
	DB	00H
	DB	00H
	DB	00H
	DB	0ffH
	DB	00H
	DB	00H
	DB	00H
	DB	0ffH
	DB	00H
	DB	00H
	DB	00H
	DB	0ffH
	DB	00H
	DB	00H
	DB	00H
	DB	0ffH
	DB	00H
	DB	00H
	DB	00H
	DB	0ffH
	DB	00H
	DB	00H
	DB	00H
	DB	0ffH
	DB	00H
	DB	00H
	DB	00H
	DB	0ffH
	DB	00H
	DB	00H
	DB	00H
	DB	0ffH
	DB	00H
	DB	00H
	DB	00H
	DB	0ffH
	DB	00H
	DB	00H
	DB	00H
	DB	0ffH
	DB	00H
	DB	00H
	DB	00H
	DB	0ffH
	DB	00H
	DB	00H
	DB	00H
	DB	0ffH
	DB	00H
	DB	00H
	DB	00H
	DB	0ffH
	DB	00H
	DB	00H
	DB	00H
	DB	0ffH
	DB	00H
	DB	00H
	DB	00H
	DB	0ffH
	DB	00H
	DB	00H
	DB	00H
	DB	0ffH
	DB	00H
	DB	00H
	DB	00H
	DB	0ffH
	DB	00H
	DB	00H
	DB	00H
	DB	0ffH
	DB	00H
	DB	00H
	DB	00H
	DB	0ffH
	DB	00H
	DB	00H
	DB	00H
	DB	0ffH
	DB	00H
	DB	00H
	DB	00H
	DB	0ffH
	DB	00H
	DB	00H
	DB	00H
	DB	0ffH
	DB	00H
	DB	00H
	DB	00H
	DB	0ffH
	DB	08H
	DB	08H
	DB	08H
	DB	0ffH
	DB	060H
	DB	064H
	DB	060H
	DB	0ffH
	DB	0d8H
	DB	0dcH
	DB	0d8H
	DB	0ffH
	DB	0f8H
	DB	0fcH
	DB	0f8H
	DB	0ffH
	DB	0f8H
	DB	0fcH
	DB	0f8H
	DB	0ffH
	DB	0f8H
	DB	0fcH
	DB	0f8H
	DB	0ffH
	DB	0f8H
	DB	0fcH
	DB	0f8H
	DB	0f3H
	DB	0f8H
	DB	0fcH
	DB	0f8H
	DB	051H
	DB	00H
	DB	00H
	DB	00H
	DB	00H
	DB	00H
	DB	00H
	DB	00H
	DB	00H
	DB	00H
	DB	00H
	DB	00H
	DB	00H
	DB	00H
	DB	00H
	DB	00H
	DB	00H
	DB	00H
	DB	00H
	DB	00H
	DB	00H
	DB	00H
	DB	00H
	DB	00H
	DB	00H
	DB	00H
	DB	00H
	DB	00H
	DB	00H
	DB	00H
	DB	00H
	DB	00H
	DB	00H
	DB	00H
	DB	00H
	DB	00H
	DB	00H
	DB	00H
	DB	00H
	DB	00H
	DB	00H
	DB	00H
	DB	00H
	DB	00H
	DB	00H
	DB	00H
	DB	00H
	DB	00H
	DB	00H
	DB	00H
	DB	00H
	DB	00H
	DB	00H
	DB	0f8H
	DB	0fcH
	DB	0f8H
	DB	028H
	DB	0f8H
	DB	0fcH
	DB	0f8H
	DB	0cbH
	DB	0f8H
	DB	0fcH
	DB	0f8H
	DB	0ffH
	DB	0f8H
	DB	0fcH
	DB	0f8H
	DB	0ffH
	DB	0f8H
	DB	0fcH
	DB	0f8H
	DB	0ffH
	DB	0f8H
	DB	0fcH
	DB	0f8H
	DB	0ffH
	DB	0f0H
	DB	0f4H
	DB	0f0H
	DB	0ffH
	DB	0a8H
	DB	0a8H
	DB	0a8H
	DB	0ffH
	DB	068H
	DB	064H
	DB	068H
	DB	0ffH
	DB	038H
	DB	038H
	DB	038H
	DB	0ffH
	DB	018H
	DB	014H
	DB	018H
	DB	0ffH
	DB	00H
	DB	04H
	DB	08H
	DB	0ffH
	DB	00H
	DB	00H
	DB	00H
	DB	0ffH
	DB	00H
	DB	00H
	DB	00H
	DB	0ffH
	DB	00H
	DB	00H
	DB	00H
	DB	0ffH
	DB	00H
	DB	00H
	DB	00H
	DB	0ffH
	DB	00H
	DB	00H
	DB	00H
	DB	0ffH
	DB	00H
	DB	00H
	DB	00H
	DB	0ffH
	DB	00H
	DB	00H
	DB	00H
	DB	0ffH
	DB	00H
	DB	00H
	DB	00H
	DB	0ffH
	DB	00H
	DB	00H
	DB	00H
	DB	0ffH
	DB	00H
	DB	00H
	DB	00H
	DB	0ffH
	DB	00H
	DB	00H
	DB	00H
	DB	0ffH
	DB	00H
	DB	00H
	DB	00H
	DB	0ffH
	DB	00H
	DB	00H
	DB	00H
	DB	0ffH
	DB	00H
	DB	00H
	DB	00H
	DB	0ffH
	DB	00H
	DB	00H
	DB	00H
	DB	0ffH
	DB	00H
	DB	00H
	DB	00H
	DB	0ffH
	DB	00H
	DB	00H
	DB	00H
	DB	0ffH
	DB	00H
	DB	00H
	DB	00H
	DB	0ffH
	DB	00H
	DB	00H
	DB	00H
	DB	0ffH
	DB	00H
	DB	00H
	DB	00H
	DB	0ffH
	DB	00H
	DB	00H
	DB	00H
	DB	0ffH
	DB	00H
	DB	00H
	DB	00H
	DB	0ffH
	DB	00H
	DB	00H
	DB	00H
	DB	0ffH
	DB	00H
	DB	00H
	DB	00H
	DB	0ffH
	DB	00H
	DB	00H
	DB	00H
	DB	0ffH
	DB	00H
	DB	00H
	DB	00H
	DB	0ffH
	DB	00H
	DB	00H
	DB	00H
	DB	0ffH
	DB	00H
	DB	00H
	DB	00H
	DB	0ffH
	DB	00H
	DB	00H
	DB	00H
	DB	0ffH
	DB	00H
	DB	00H
	DB	00H
	DB	0ffH
	DB	00H
	DB	00H
	DB	00H
	DB	0ffH
	DB	00H
	DB	00H
	DB	00H
	DB	0ffH
	DB	00H
	DB	00H
	DB	00H
	DB	0ffH
	DB	00H
	DB	00H
	DB	00H
	DB	0ffH
	DB	00H
	DB	00H
	DB	00H
	DB	0ffH
	DB	00H
	DB	00H
	DB	00H
	DB	0ffH
	DB	00H
	DB	00H
	DB	00H
	DB	0ffH
	DB	00H
	DB	00H
	DB	00H
	DB	0ffH
	DB	00H
	DB	00H
	DB	00H
	DB	0ffH
	DB	00H
	DB	00H
	DB	00H
	DB	0ffH
	DB	00H
	DB	00H
	DB	00H
	DB	0ffH
	DB	00H
	DB	00H
	DB	00H
	DB	0ffH
	DB	00H
	DB	00H
	DB	00H
	DB	0ffH
	DB	00H
	DB	00H
	DB	00H
	DB	0ffH
	DB	00H
	DB	00H
	DB	00H
	DB	0ffH
	DB	00H
	DB	00H
	DB	00H
	DB	0ffH
	DB	00H
	DB	00H
	DB	00H
	DB	0ffH
	DB	00H
	DB	00H
	DB	00H
	DB	0ffH
	DB	00H
	DB	00H
	DB	00H
	DB	0ffH
	DB	00H
	DB	00H
	DB	00H
	DB	0ffH
	DB	00H
	DB	00H
	DB	00H
	DB	0ffH
	DB	00H
	DB	00H
	DB	00H
	DB	0ffH
	DB	00H
	DB	00H
	DB	00H
	DB	0ffH
	DB	00H
	DB	00H
	DB	00H
	DB	0ffH
	DB	00H
	DB	00H
	DB	00H
	DB	0ffH
	DB	00H
	DB	00H
	DB	00H
	DB	0ffH
	DB	00H
	DB	00H
	DB	00H
	DB	0ffH
	DB	00H
	DB	00H
	DB	00H
	DB	0ffH
	DB	00H
	DB	00H
	DB	00H
	DB	0ffH
	DB	00H
	DB	00H
	DB	00H
	DB	0ffH
	DB	00H
	DB	00H
	DB	00H
	DB	0ffH
	DB	00H
	DB	00H
	DB	00H
	DB	0ffH
	DB	00H
	DB	00H
	DB	00H
	DB	0ffH
	DB	00H
	DB	00H
	DB	00H
	DB	0ffH
	DB	00H
	DB	00H
	DB	00H
	DB	0ffH
	DB	00H
	DB	00H
	DB	00H
	DB	0ffH
	DB	00H
	DB	00H
	DB	00H
	DB	0ffH
	DB	00H
	DB	00H
	DB	00H
	DB	0ffH
	DB	00H
	DB	00H
	DB	00H
	DB	0ffH
	DB	00H
	DB	00H
	DB	00H
	DB	0ffH
	DB	00H
	DB	00H
	DB	00H
	DB	0ffH
	DB	00H
	DB	00H
	DB	00H
	DB	0ffH
	DB	00H
	DB	00H
	DB	00H
	DB	0ffH
	DB	00H
	DB	00H
	DB	00H
	DB	0ffH
	DB	00H
	DB	00H
	DB	00H
	DB	0ffH
	DB	00H
	DB	00H
	DB	00H
	DB	0ffH
	DB	00H
	DB	00H
	DB	00H
	DB	0ffH
	DB	00H
	DB	00H
	DB	00H
	DB	0ffH
	DB	00H
	DB	00H
	DB	00H
	DB	0ffH
	DB	00H
	DB	00H
	DB	00H
	DB	0ffH
	DB	00H
	DB	00H
	DB	00H
	DB	0ffH
	DB	00H
	DB	00H
	DB	00H
	DB	0ffH
	DB	00H
	DB	00H
	DB	00H
	DB	0ffH
	DB	00H
	DB	00H
	DB	00H
	DB	0ffH
	DB	00H
	DB	00H
	DB	00H
	DB	0ffH
	DB	00H
	DB	00H
	DB	00H
	DB	0ffH
	DB	00H
	DB	00H
	DB	00H
	DB	0ffH
	DB	00H
	DB	00H
	DB	00H
	DB	0ffH
	DB	00H
	DB	00H
	DB	00H
	DB	0ffH
	DB	00H
	DB	00H
	DB	00H
	DB	0ffH
	DB	00H
	DB	04H
	DB	00H
	DB	0ffH
	DB	018H
	DB	014H
	DB	010H
	DB	0ffH
	DB	038H
	DB	034H
	DB	038H
	DB	0ffH
	DB	068H
	DB	068H
	DB	068H
	DB	0ffH
	DB	0a8H
	DB	0a8H
	DB	0a8H
	DB	0ffH
	DB	0f0H
	DB	0f4H
	DB	0f0H
	DB	0ffH
	DB	0f8H
	DB	0fcH
	DB	0f8H
	DB	0ffH
	DB	0f8H
	DB	0fcH
	DB	0f8H
	DB	0ffH
	DB	0f8H
	DB	0fcH
	DB	0f8H
	DB	0ffH
	DB	0f8H
	DB	0fcH
	DB	0f8H
	DB	0ffH
	DB	0f8H
	DB	0fcH
	DB	0f8H
	DB	0cbH
	DB	0f8H
	DB	0fcH
	DB	0f8H
	DB	028H
	DB	00H
	DB	00H
	DB	00H
	DB	00H
	DB	00H
	DB	00H
	DB	00H
	DB	00H
	DB	00H
	DB	00H
	DB	00H
	DB	00H
	DB	00H
	DB	00H
	DB	00H
	DB	00H
	DB	00H
	DB	00H
	DB	00H
	DB	00H
	DB	00H
	DB	00H
	DB	00H
	DB	00H
	DB	00H
	DB	00H
	DB	00H
	DB	00H
	DB	00H
	DB	00H
	DB	00H
	DB	00H
	DB	00H
	DB	00H
	DB	00H
	DB	00H
	DB	00H
	DB	00H
	DB	00H
	DB	00H
	DB	00H
	DB	00H
	DB	00H
	DB	00H
	DB	00H
	DB	00H
	DB	00H
	DB	00H
	DB	00H
	DB	00H
	DB	00H
	DB	00H
	DB	00H
	DB	00H
	DB	00H
	DB	00H
	DB	00H
	DB	00H
	DB	00H
	DB	00H
	DB	0f8H
	DB	0fcH
	DB	0f8H
	DB	04H
	DB	0f8H
	DB	0fcH
	DB	0f8H
	DB	071H
	DB	0f8H
	DB	0fcH
	DB	0f8H
	DB	0efH
	DB	0f8H
	DB	0fcH
	DB	0f8H
	DB	0ffH
	DB	0f8H
	DB	0fcH
	DB	0f8H
	DB	0ffH
	DB	0f8H
	DB	0fcH
	DB	0f8H
	DB	0ffH
	DB	0f8H
	DB	0fcH
	DB	0f8H
	DB	0ffH
	DB	0f8H
	DB	0fcH
	DB	0f8H
	DB	0ffH
	DB	0f8H
	DB	0fcH
	DB	0f8H
	DB	0ffH
	DB	0f8H
	DB	0fcH
	DB	0f8H
	DB	0ffH
	DB	0f8H
	DB	0fcH
	DB	0f8H
	DB	0ffH
	DB	0f8H
	DB	0fcH
	DB	0f8H
	DB	0ffH
	DB	0f8H
	DB	0fcH
	DB	0f8H
	DB	0ffH
	DB	0f8H
	DB	0fcH
	DB	0f8H
	DB	0ffH
	DB	0f8H
	DB	0fcH
	DB	0f8H
	DB	0ffH
	DB	0f8H
	DB	0fcH
	DB	0f8H
	DB	0ffH
	DB	0f8H
	DB	0fcH
	DB	0f8H
	DB	0ffH
	DB	0f8H
	DB	0fcH
	DB	0f8H
	DB	0ffH
	DB	0f8H
	DB	0fcH
	DB	0f8H
	DB	0ffH
	DB	0f8H
	DB	0fcH
	DB	0f8H
	DB	0ffH
	DB	0f8H
	DB	0fcH
	DB	0f8H
	DB	0ffH
	DB	0f8H
	DB	0fcH
	DB	0f8H
	DB	0ffH
	DB	0f8H
	DB	0fcH
	DB	0f8H
	DB	0ffH
	DB	0f8H
	DB	0fcH
	DB	0f8H
	DB	0ffH
	DB	0f8H
	DB	0fcH
	DB	0f8H
	DB	0ffH
	DB	0f8H
	DB	0fcH
	DB	0f8H
	DB	0ffH
	DB	0f8H
	DB	0fcH
	DB	0f8H
	DB	0ffH
	DB	0f8H
	DB	0fcH
	DB	0f8H
	DB	0ffH
	DB	0f8H
	DB	0fcH
	DB	0f8H
	DB	0ffH
	DB	0f8H
	DB	0fcH
	DB	0f8H
	DB	0ffH
	DB	0f8H
	DB	0fcH
	DB	0f8H
	DB	0ffH
	DB	0f8H
	DB	0fcH
	DB	0f8H
	DB	0ffH
	DB	0f8H
	DB	0fcH
	DB	0f8H
	DB	0ffH
	DB	0f8H
	DB	0fcH
	DB	0f8H
	DB	0ffH
	DB	0f8H
	DB	0fcH
	DB	0f8H
	DB	0ffH
	DB	0f8H
	DB	0fcH
	DB	0f8H
	DB	0ffH
	DB	0f8H
	DB	0fcH
	DB	0f8H
	DB	0ffH
	DB	0f8H
	DB	0fcH
	DB	0f8H
	DB	0ffH
	DB	0f8H
	DB	0fcH
	DB	0f8H
	DB	0ffH
	DB	0f8H
	DB	0fcH
	DB	0f8H
	DB	0ffH
	DB	0f8H
	DB	0fcH
	DB	0f8H
	DB	0ffH
	DB	0f8H
	DB	0fcH
	DB	0f8H
	DB	0ffH
	DB	0f8H
	DB	0fcH
	DB	0f8H
	DB	0ffH
	DB	0f8H
	DB	0fcH
	DB	0f8H
	DB	0ffH
	DB	0f8H
	DB	0fcH
	DB	0f8H
	DB	0ffH
	DB	0f8H
	DB	0fcH
	DB	0f8H
	DB	0ffH
	DB	0f8H
	DB	0fcH
	DB	0f8H
	DB	0ffH
	DB	0f8H
	DB	0fcH
	DB	0f8H
	DB	0ffH
	DB	0f8H
	DB	0fcH
	DB	0f8H
	DB	0ffH
	DB	0f8H
	DB	0fcH
	DB	0f8H
	DB	0ffH
	DB	0f8H
	DB	0fcH
	DB	0f8H
	DB	0ffH
	DB	0f8H
	DB	0fcH
	DB	0f8H
	DB	0ffH
	DB	0f8H
	DB	0fcH
	DB	0f8H
	DB	0ffH
	DB	0f8H
	DB	0fcH
	DB	0f8H
	DB	0ffH
	DB	0f8H
	DB	0fcH
	DB	0f8H
	DB	0ffH
	DB	0f8H
	DB	0fcH
	DB	0f8H
	DB	0ffH
	DB	0f8H
	DB	0fcH
	DB	0f8H
	DB	0ffH
	DB	0f8H
	DB	0fcH
	DB	0f8H
	DB	0ffH
	DB	0f8H
	DB	0fcH
	DB	0f8H
	DB	0ffH
	DB	0f8H
	DB	0fcH
	DB	0f8H
	DB	0ffH
	DB	0f8H
	DB	0fcH
	DB	0f8H
	DB	0ffH
	DB	0f8H
	DB	0fcH
	DB	0f8H
	DB	0ffH
	DB	0f8H
	DB	0fcH
	DB	0f8H
	DB	0ffH
	DB	0f8H
	DB	0fcH
	DB	0f8H
	DB	0ffH
	DB	0f8H
	DB	0fcH
	DB	0f8H
	DB	0ffH
	DB	0f8H
	DB	0fcH
	DB	0f8H
	DB	0ffH
	DB	0f8H
	DB	0fcH
	DB	0f8H
	DB	0ffH
	DB	0f8H
	DB	0fcH
	DB	0f8H
	DB	0ffH
	DB	0f8H
	DB	0fcH
	DB	0f8H
	DB	0ffH
	DB	0f8H
	DB	0fcH
	DB	0f8H
	DB	0ffH
	DB	0f8H
	DB	0fcH
	DB	0f8H
	DB	0ffH
	DB	0f8H
	DB	0fcH
	DB	0f8H
	DB	0ffH
	DB	0f8H
	DB	0fcH
	DB	0f8H
	DB	0ffH
	DB	0f8H
	DB	0fcH
	DB	0f8H
	DB	0ffH
	DB	0f8H
	DB	0fcH
	DB	0f8H
	DB	0ffH
	DB	0f8H
	DB	0fcH
	DB	0f8H
	DB	0ffH
	DB	0f8H
	DB	0fcH
	DB	0f8H
	DB	0ffH
	DB	0f8H
	DB	0fcH
	DB	0f8H
	DB	0ffH
	DB	0f8H
	DB	0fcH
	DB	0f8H
	DB	0ffH
	DB	0f8H
	DB	0fcH
	DB	0f8H
	DB	0ffH
	DB	0f8H
	DB	0fcH
	DB	0f8H
	DB	0ffH
	DB	0f8H
	DB	0fcH
	DB	0f8H
	DB	0ffH
	DB	0f8H
	DB	0fcH
	DB	0f8H
	DB	0ffH
	DB	0f8H
	DB	0fcH
	DB	0f8H
	DB	0ffH
	DB	0f8H
	DB	0fcH
	DB	0f8H
	DB	0ffH
	DB	0f8H
	DB	0fcH
	DB	0f8H
	DB	0ffH
	DB	0f8H
	DB	0fcH
	DB	0f8H
	DB	0ffH
	DB	0f8H
	DB	0fcH
	DB	0f8H
	DB	0ffH
	DB	0f8H
	DB	0fcH
	DB	0f8H
	DB	0ffH
	DB	0f8H
	DB	0fcH
	DB	0f8H
	DB	0ffH
	DB	0f8H
	DB	0fcH
	DB	0f8H
	DB	0ffH
	DB	0f8H
	DB	0fcH
	DB	0f8H
	DB	0ffH
	DB	0f8H
	DB	0fcH
	DB	0f8H
	DB	0ffH
	DB	0f8H
	DB	0fcH
	DB	0f8H
	DB	0ffH
	DB	0f8H
	DB	0fcH
	DB	0f8H
	DB	0ffH
	DB	0f8H
	DB	0fcH
	DB	0f8H
	DB	0ffH
	DB	0f8H
	DB	0fcH
	DB	0f8H
	DB	0ffH
	DB	0f8H
	DB	0fcH
	DB	0f8H
	DB	0ffH
	DB	0f8H
	DB	0fcH
	DB	0f8H
	DB	0ffH
	DB	0f8H
	DB	0fcH
	DB	0f8H
	DB	0ffH
	DB	0f8H
	DB	0fcH
	DB	0f8H
	DB	0ffH
	DB	0f8H
	DB	0fcH
	DB	0f8H
	DB	0ffH
	DB	0f8H
	DB	0fcH
	DB	0f8H
	DB	0ffH
	DB	0f8H
	DB	0fcH
	DB	0f8H
	DB	0ffH
	DB	0f8H
	DB	0fcH
	DB	0f8H
	DB	0ffH
	DB	0f8H
	DB	0fcH
	DB	0f8H
	DB	0ffH
	DB	0f8H
	DB	0fcH
	DB	0f8H
	DB	0ffH
	DB	0f8H
	DB	0fcH
	DB	0f8H
	DB	0ffH
	DB	0f8H
	DB	0fcH
	DB	0f8H
	DB	0ffH
	DB	0f8H
	DB	0fcH
	DB	0f8H
	DB	0efH
	DB	0f8H
	DB	0fcH
	DB	0f8H
	DB	06dH
	DB	0f8H
	DB	0fcH
	DB	0f8H
	DB	04H
	DB	00H
	DB	00H
	DB	00H
	DB	00H
	DB	00H
	DB	00H
	DB	00H
	DB	00H
	DB	00H
	DB	00H
	DB	00H
	DB	00H
	DB	00H
	DB	00H
	DB	00H
	DB	00H
	DB	00H
	DB	00H
	DB	00H
	DB	00H
	DB	00H
	DB	00H
	DB	00H
	DB	00H
	DB	00H
	DB	00H
	DB	00H
	DB	00H
	DB	00H
	DB	00H
	DB	00H
	DB	00H
	DB	00H
	DB	00H
	DB	00H
	DB	00H
	DB	00H
	DB	00H
	DB	00H
	DB	00H
	DB	00H
	DB	00H
	DB	00H
	DB	00H
	DB	00H
	DB	00H
	DB	00H
	DB	00H
	DB	00H
	DB	00H
	DB	00H
	DB	00H
	DB	00H
	DB	00H
	DB	00H
	DB	00H
	DB	00H
	DB	00H
	DB	00H
	DB	00H
	DB	00H
	DB	00H
	DB	00H
	DB	00H
	DB	00H
	DB	00H
	DB	00H
	DB	00H
	DB	00H
	DB	00H
	DB	00H
	DB	00H
	DB	0f8H
	DB	0fcH
	DB	0f8H
	DB	010H
	DB	0f8H
	DB	0fcH
	DB	0f8H
	DB	071H
	DB	0f8H
	DB	0fcH
	DB	0f8H
	DB	0d7H
	DB	0f8H
	DB	0fcH
	DB	0f8H
	DB	0ffH
	DB	0f8H
	DB	0fcH
	DB	0f8H
	DB	0ffH
	DB	0f8H
	DB	0fcH
	DB	0f8H
	DB	0ffH
	DB	0f8H
	DB	0fcH
	DB	0f8H
	DB	0ffH
	DB	0f8H
	DB	0fcH
	DB	0f8H
	DB	0ffH
	DB	0f8H
	DB	0fcH
	DB	0f8H
	DB	0ffH
	DB	0f8H
	DB	0fcH
	DB	0f8H
	DB	0ffH
	DB	0f8H
	DB	0fcH
	DB	0f8H
	DB	0ffH
	DB	0f8H
	DB	0fcH
	DB	0f8H
	DB	0ffH
	DB	0f8H
	DB	0fcH
	DB	0f8H
	DB	0ffH
	DB	0f8H
	DB	0fcH
	DB	0f8H
	DB	0ffH
	DB	0f8H
	DB	0fcH
	DB	0f8H
	DB	0ffH
	DB	0f8H
	DB	0fcH
	DB	0f8H
	DB	0ffH
	DB	0f8H
	DB	0fcH
	DB	0f8H
	DB	0ffH
	DB	0f8H
	DB	0fcH
	DB	0f8H
	DB	0ffH
	DB	0f8H
	DB	0fcH
	DB	0f8H
	DB	0ffH
	DB	0f8H
	DB	0fcH
	DB	0f8H
	DB	0ffH
	DB	0f8H
	DB	0fcH
	DB	0f8H
	DB	0ffH
	DB	0f8H
	DB	0fcH
	DB	0f8H
	DB	0ffH
	DB	0f8H
	DB	0fcH
	DB	0f8H
	DB	0ffH
	DB	0f8H
	DB	0fcH
	DB	0f8H
	DB	0ffH
	DB	0f8H
	DB	0fcH
	DB	0f8H
	DB	0ffH
	DB	0f8H
	DB	0fcH
	DB	0f8H
	DB	0ffH
	DB	0f8H
	DB	0fcH
	DB	0f8H
	DB	0ffH
	DB	0f8H
	DB	0fcH
	DB	0f8H
	DB	0ffH
	DB	0f8H
	DB	0fcH
	DB	0f8H
	DB	0ffH
	DB	0f8H
	DB	0fcH
	DB	0f8H
	DB	0ffH
	DB	0f8H
	DB	0fcH
	DB	0f8H
	DB	0ffH
	DB	0f8H
	DB	0fcH
	DB	0f8H
	DB	0ffH
	DB	0f8H
	DB	0fcH
	DB	0f8H
	DB	0ffH
	DB	0f8H
	DB	0fcH
	DB	0f8H
	DB	0ffH
	DB	0f8H
	DB	0fcH
	DB	0f8H
	DB	0ffH
	DB	0f8H
	DB	0fcH
	DB	0f8H
	DB	0ffH
	DB	0f8H
	DB	0fcH
	DB	0f8H
	DB	0ffH
	DB	0f8H
	DB	0fcH
	DB	0f8H
	DB	0ffH
	DB	0f8H
	DB	0fcH
	DB	0f8H
	DB	0ffH
	DB	0f8H
	DB	0fcH
	DB	0f8H
	DB	0ffH
	DB	0f8H
	DB	0fcH
	DB	0f8H
	DB	0ffH
	DB	0f8H
	DB	0fcH
	DB	0f8H
	DB	0ffH
	DB	0f8H
	DB	0fcH
	DB	0f8H
	DB	0ffH
	DB	0f8H
	DB	0fcH
	DB	0f8H
	DB	0ffH
	DB	0f8H
	DB	0fcH
	DB	0f8H
	DB	0ffH
	DB	0f8H
	DB	0fcH
	DB	0f8H
	DB	0ffH
	DB	0f8H
	DB	0fcH
	DB	0f8H
	DB	0ffH
	DB	0f8H
	DB	0fcH
	DB	0f8H
	DB	0ffH
	DB	0f8H
	DB	0fcH
	DB	0f8H
	DB	0ffH
	DB	0f8H
	DB	0fcH
	DB	0f8H
	DB	0ffH
	DB	0f8H
	DB	0fcH
	DB	0f8H
	DB	0ffH
	DB	0f8H
	DB	0fcH
	DB	0f8H
	DB	0ffH
	DB	0f8H
	DB	0fcH
	DB	0f8H
	DB	0ffH
	DB	0f8H
	DB	0fcH
	DB	0f8H
	DB	0ffH
	DB	0f8H
	DB	0fcH
	DB	0f8H
	DB	0ffH
	DB	0f8H
	DB	0fcH
	DB	0f8H
	DB	0ffH
	DB	0f8H
	DB	0fcH
	DB	0f8H
	DB	0ffH
	DB	0f8H
	DB	0fcH
	DB	0f8H
	DB	0ffH
	DB	0f8H
	DB	0fcH
	DB	0f8H
	DB	0ffH
	DB	0f8H
	DB	0fcH
	DB	0f8H
	DB	0ffH
	DB	0f8H
	DB	0fcH
	DB	0f8H
	DB	0ffH
	DB	0f8H
	DB	0fcH
	DB	0f8H
	DB	0ffH
	DB	0f8H
	DB	0fcH
	DB	0f8H
	DB	0ffH
	DB	0f8H
	DB	0fcH
	DB	0f8H
	DB	0ffH
	DB	0f8H
	DB	0fcH
	DB	0f8H
	DB	0ffH
	DB	0f8H
	DB	0fcH
	DB	0f8H
	DB	0ffH
	DB	0f8H
	DB	0fcH
	DB	0f8H
	DB	0ffH
	DB	0f8H
	DB	0fcH
	DB	0f8H
	DB	0ffH
	DB	0f8H
	DB	0fcH
	DB	0f8H
	DB	0ffH
	DB	0f8H
	DB	0fcH
	DB	0f8H
	DB	0ffH
	DB	0f8H
	DB	0fcH
	DB	0f8H
	DB	0ffH
	DB	0f8H
	DB	0fcH
	DB	0f8H
	DB	0ffH
	DB	0f8H
	DB	0fcH
	DB	0f8H
	DB	0ffH
	DB	0f8H
	DB	0fcH
	DB	0f8H
	DB	0ffH
	DB	0f8H
	DB	0fcH
	DB	0f8H
	DB	0ffH
	DB	0f8H
	DB	0fcH
	DB	0f8H
	DB	0ffH
	DB	0f8H
	DB	0fcH
	DB	0f8H
	DB	0ffH
	DB	0f8H
	DB	0fcH
	DB	0f8H
	DB	0ffH
	DB	0f8H
	DB	0fcH
	DB	0f8H
	DB	0ffH
	DB	0f8H
	DB	0fcH
	DB	0f8H
	DB	0ffH
	DB	0f8H
	DB	0fcH
	DB	0f8H
	DB	0ffH
	DB	0f8H
	DB	0fcH
	DB	0f8H
	DB	0ffH
	DB	0f8H
	DB	0fcH
	DB	0f8H
	DB	0ffH
	DB	0f8H
	DB	0fcH
	DB	0f8H
	DB	0ffH
	DB	0f8H
	DB	0fcH
	DB	0f8H
	DB	0ffH
	DB	0f8H
	DB	0fcH
	DB	0f8H
	DB	0ffH
	DB	0f8H
	DB	0fcH
	DB	0f8H
	DB	0ffH
	DB	0f8H
	DB	0fcH
	DB	0f8H
	DB	0ffH
	DB	0f8H
	DB	0fcH
	DB	0f8H
	DB	0ffH
	DB	0f8H
	DB	0fcH
	DB	0f8H
	DB	0ffH
	DB	0f8H
	DB	0fcH
	DB	0f8H
	DB	0ffH
	DB	0f8H
	DB	0fcH
	DB	0f8H
	DB	0ffH
	DB	0f8H
	DB	0fcH
	DB	0f8H
	DB	0ffH
	DB	0f8H
	DB	0fcH
	DB	0f8H
	DB	0ffH
	DB	0f8H
	DB	0fcH
	DB	0f8H
	DB	0ffH
	DB	0f8H
	DB	0fcH
	DB	0f8H
	DB	0ffH
	DB	0f8H
	DB	0fcH
	DB	0f8H
	DB	0ffH
	DB	0f8H
	DB	0fcH
	DB	0f8H
	DB	0ffH
	DB	0f8H
	DB	0fcH
	DB	0f8H
	DB	0ffH
	DB	0f8H
	DB	0fcH
	DB	0f8H
	DB	0ffH
	DB	0f8H
	DB	0fcH
	DB	0f8H
	DB	0ffH
	DB	0f8H
	DB	0fcH
	DB	0f8H
	DB	0ffH
	DB	0f8H
	DB	0fcH
	DB	0f8H
	DB	0ffH
	DB	0f8H
	DB	0fcH
	DB	0f8H
	DB	0ffH
	DB	0f8H
	DB	0fcH
	DB	0f8H
	DB	0ffH
	DB	0f8H
	DB	0fcH
	DB	0f8H
	DB	0d7H
	DB	0f8H
	DB	0fcH
	DB	0f8H
	DB	071H
	DB	0f8H
	DB	0fcH
	DB	0f8H
	DB	010H
	DB	00H
	DB	00H
	DB	00H
	DB	00H
	DB	00H
	DB	00H
	DB	00H
	DB	00H
	DB	00H
	DB	00H
	DB	00H
	DB	00H
	DB	00H
	DB	00H
	DB	00H
	DB	00H
	DB	00H
	DB	00H
	DB	00H
	DB	00H
	DB	00H
	DB	00H
	DB	00H
	DB	00H
	DB	00H
	DB	00H
	DB	00H
	DB	00H
	DB	00H
	DB	00H
	DB	00H
	DB	00H
	DB	00H
	DB	00H
	DB	00H
	DB	00H
	DB	00H
	DB	00H
	DB	00H
	DB	00H
	DB	00H
	DB	00H
	DB	00H
	DB	00H
	DB	00H
	DB	00H
	DB	00H
	DB	00H
	DB	00H
	DB	00H
	DB	00H
	DB	00H
	DB	00H
	DB	00H
	DB	00H
	DB	00H
	DB	00H
	DB	00H
	DB	00H
	DB	00H
	DB	00H
	DB	00H
	DB	00H
	DB	00H
	DB	00H
	DB	00H
	DB	00H
	DB	00H
	DB	00H
	DB	00H
	DB	00H
	DB	00H
	DB	00H
	DB	00H
	DB	00H
	DB	00H
	DB	00H
	DB	00H
	DB	00H
	DB	00H
	DB	00H
	DB	00H
	DB	00H
	DB	00H
	DB	00H
	DB	00H
	DB	00H
	DB	00H
	DB	00H
	DB	00H
	DB	00H
	DB	00H
	DB	0f8H
	DB	0fcH
	DB	0f8H
	DB	02cH
	DB	0f8H
	DB	0fcH
	DB	0f8H
	DB	071H
	DB	0f8H
	DB	0fcH
	DB	0f8H
	DB	0aaH
	DB	0f8H
	DB	0fcH
	DB	0f8H
	DB	0cfH
	DB	0f8H
	DB	0fcH
	DB	0f8H
	DB	0efH
	DB	0f8H
	DB	0fcH
	DB	0f8H
	DB	0fbH
	DB	0f8H
	DB	0fcH
	DB	0f8H
	DB	0ffH
	DB	0f8H
	DB	0fcH
	DB	0f8H
	DB	0ffH
	DB	0f8H
	DB	0fcH
	DB	0f8H
	DB	0ffH
	DB	0f8H
	DB	0fcH
	DB	0f8H
	DB	0ffH
	DB	0f8H
	DB	0fcH
	DB	0f8H
	DB	0ffH
	DB	0f8H
	DB	0fcH
	DB	0f8H
	DB	0ffH
	DB	0f8H
	DB	0fcH
	DB	0f8H
	DB	0ffH
	DB	0f8H
	DB	0fcH
	DB	0f8H
	DB	0ffH
	DB	0f8H
	DB	0fcH
	DB	0f8H
	DB	0ffH
	DB	0f8H
	DB	0fcH
	DB	0f8H
	DB	0ffH
	DB	0f8H
	DB	0fcH
	DB	0f8H
	DB	0ffH
	DB	0f8H
	DB	0fcH
	DB	0f8H
	DB	0ffH
	DB	0f8H
	DB	0fcH
	DB	0f8H
	DB	0ffH
	DB	0f8H
	DB	0fcH
	DB	0f8H
	DB	0ffH
	DB	0f8H
	DB	0fcH
	DB	0f8H
	DB	0ffH
	DB	0f8H
	DB	0fcH
	DB	0f8H
	DB	0ffH
	DB	0f8H
	DB	0fcH
	DB	0f8H
	DB	0ffH
	DB	0f8H
	DB	0fcH
	DB	0f8H
	DB	0ffH
	DB	0f8H
	DB	0fcH
	DB	0f8H
	DB	0ffH
	DB	0f8H
	DB	0fcH
	DB	0f8H
	DB	0ffH
	DB	0f8H
	DB	0fcH
	DB	0f8H
	DB	0ffH
	DB	0f8H
	DB	0fcH
	DB	0f8H
	DB	0ffH
	DB	0f8H
	DB	0fcH
	DB	0f8H
	DB	0ffH
	DB	0f8H
	DB	0fcH
	DB	0f8H
	DB	0ffH
	DB	0f8H
	DB	0fcH
	DB	0f8H
	DB	0ffH
	DB	0f8H
	DB	0fcH
	DB	0f8H
	DB	0ffH
	DB	0f8H
	DB	0fcH
	DB	0f8H
	DB	0ffH
	DB	0f8H
	DB	0fcH
	DB	0f8H
	DB	0ffH
	DB	0f8H
	DB	0fcH
	DB	0f8H
	DB	0ffH
	DB	0f8H
	DB	0fcH
	DB	0f8H
	DB	0ffH
	DB	0f8H
	DB	0fcH
	DB	0f8H
	DB	0ffH
	DB	0f8H
	DB	0fcH
	DB	0f8H
	DB	0ffH
	DB	0f8H
	DB	0fcH
	DB	0f8H
	DB	0ffH
	DB	0f8H
	DB	0fcH
	DB	0f8H
	DB	0ffH
	DB	0f8H
	DB	0fcH
	DB	0f8H
	DB	0ffH
	DB	0f8H
	DB	0fcH
	DB	0f8H
	DB	0ffH
	DB	0f8H
	DB	0fcH
	DB	0f8H
	DB	0ffH
	DB	0f8H
	DB	0fcH
	DB	0f8H
	DB	0ffH
	DB	0f8H
	DB	0fcH
	DB	0f8H
	DB	0ffH
	DB	0f8H
	DB	0fcH
	DB	0f8H
	DB	0ffH
	DB	0f8H
	DB	0fcH
	DB	0f8H
	DB	0ffH
	DB	0f8H
	DB	0fcH
	DB	0f8H
	DB	0ffH
	DB	0f8H
	DB	0fcH
	DB	0f8H
	DB	0ffH
	DB	0f8H
	DB	0fcH
	DB	0f8H
	DB	0ffH
	DB	0f8H
	DB	0fcH
	DB	0f8H
	DB	0ffH
	DB	0f8H
	DB	0fcH
	DB	0f8H
	DB	0ffH
	DB	0f8H
	DB	0fcH
	DB	0f8H
	DB	0ffH
	DB	0f8H
	DB	0fcH
	DB	0f8H
	DB	0ffH
	DB	0f8H
	DB	0fcH
	DB	0f8H
	DB	0ffH
	DB	0f8H
	DB	0fcH
	DB	0f8H
	DB	0ffH
	DB	0f8H
	DB	0fcH
	DB	0f8H
	DB	0ffH
	DB	0f8H
	DB	0fcH
	DB	0f8H
	DB	0ffH
	DB	0f8H
	DB	0fcH
	DB	0f8H
	DB	0ffH
	DB	0f8H
	DB	0fcH
	DB	0f8H
	DB	0ffH
	DB	0f8H
	DB	0fcH
	DB	0f8H
	DB	0ffH
	DB	0f8H
	DB	0fcH
	DB	0f8H
	DB	0ffH
	DB	0f8H
	DB	0fcH
	DB	0f8H
	DB	0ffH
	DB	0f8H
	DB	0fcH
	DB	0f8H
	DB	0ffH
	DB	0f8H
	DB	0fcH
	DB	0f8H
	DB	0ffH
	DB	0f8H
	DB	0fcH
	DB	0f8H
	DB	0ffH
	DB	0f8H
	DB	0fcH
	DB	0f8H
	DB	0ffH
	DB	0f8H
	DB	0fcH
	DB	0f8H
	DB	0ffH
	DB	0f8H
	DB	0fcH
	DB	0f8H
	DB	0ffH
	DB	0f8H
	DB	0fcH
	DB	0f8H
	DB	0ffH
	DB	0f8H
	DB	0fcH
	DB	0f8H
	DB	0ffH
	DB	0f8H
	DB	0fcH
	DB	0f8H
	DB	0ffH
	DB	0f8H
	DB	0fcH
	DB	0f8H
	DB	0ffH
	DB	0f8H
	DB	0fcH
	DB	0f8H
	DB	0ffH
	DB	0f8H
	DB	0fcH
	DB	0f8H
	DB	0ffH
	DB	0f8H
	DB	0fcH
	DB	0f8H
	DB	0ffH
	DB	0f8H
	DB	0fcH
	DB	0f8H
	DB	0ffH
	DB	0f8H
	DB	0fcH
	DB	0f8H
	DB	0ffH
	DB	0f8H
	DB	0fcH
	DB	0f8H
	DB	0ffH
	DB	0f8H
	DB	0fcH
	DB	0f8H
	DB	0ffH
	DB	0f8H
	DB	0fcH
	DB	0f8H
	DB	0ffH
	DB	0f8H
	DB	0fcH
	DB	0f8H
	DB	0ffH
	DB	0f8H
	DB	0fcH
	DB	0f8H
	DB	0ffH
	DB	0f8H
	DB	0fcH
	DB	0f8H
	DB	0ffH
	DB	0f8H
	DB	0fcH
	DB	0f8H
	DB	0ffH
	DB	0f8H
	DB	0fcH
	DB	0f8H
	DB	0ffH
	DB	0f8H
	DB	0fcH
	DB	0f8H
	DB	0ffH
	DB	0f8H
	DB	0fcH
	DB	0f8H
	DB	0ffH
	DB	0f8H
	DB	0fcH
	DB	0f8H
	DB	0ffH
	DB	0f8H
	DB	0fcH
	DB	0f8H
	DB	0ffH
	DB	0f8H
	DB	0fcH
	DB	0f8H
	DB	0ffH
	DB	0f8H
	DB	0fcH
	DB	0f8H
	DB	0ffH
	DB	0f8H
	DB	0fcH
	DB	0f8H
	DB	0ffH
	DB	0f8H
	DB	0fcH
	DB	0f8H
	DB	0ffH
	DB	0f8H
	DB	0fcH
	DB	0f8H
	DB	0ffH
	DB	0f8H
	DB	0fcH
	DB	0f8H
	DB	0ffH
	DB	0f8H
	DB	0fcH
	DB	0f8H
	DB	0fbH
	DB	0f8H
	DB	0fcH
	DB	0f8H
	DB	0ebH
	DB	0f8H
	DB	0fcH
	DB	0f8H
	DB	0cfH
	DB	0f8H
	DB	0fcH
	DB	0f8H
	DB	0aaH
	DB	0f8H
	DB	0fcH
	DB	0f8H
	DB	071H
	DB	0f8H
	DB	0fcH
	DB	0f8H
	DB	02cH
	DB	00H
	DB	00H
	DB	00H
	DB	00H
	DB	00H
	DB	00H
	DB	00H
	DB	00H
	DB	00H
	DB	00H
	DB	00H
	DB	00H
	DB	00H
	DB	00H
	DB	00H
	DB	00H
	DB	00H
	DB	00H
	DB	00H
	DB	00H
	DB	00H
	DB	00H
	DB	00H
	DB	00H
	DB	00H
	DB	00H
	DB	00H
	DB	00H
	DB	00H
	DB	00H
	DB	00H
	DB	00H
	DB	00H
	DB	00H
	DB	00H
	DB	00H
	DB	00H
	DB	00H
	DB	00H
	DB	00H
	DB	00H
	DB	00H
	DB	00H
	DB	00H
	DB	00H
	DB	00H
	DB	00H
	DB	00H
	DB	00H
	DB	00H
	DB	00H
	DB	00H
CONST	ENDS
END
