; Listing generated by Microsoft (R) Optimizing Compiler Version 19.29.30038.1 

	TITLE	C:\TouchGFXProjects\MyApplication_9\TouchGFX\build\Debug\obj\image_background.obj
	.686P
	.XMM
	include listing.inc
	.model	flat

INCLUDELIB MSVCRTD
INCLUDELIB OLDNAMES

PUBLIC	?image_background@@3QBEB			; image_background
CONST	SEGMENT
?image_background@@3QBEB DB 00H				; image_background
	DB	00H
	DB	00H
	DB	00H
	DB	00H
	DB	00H
	DB	00H
	DB	00H
	DB	00H
	DB	00H
	DB	00H
	DB	00H
	DB	00H
	DB	00H
	DB	00H
	DB	00H
	DB	00H
	DB	00H
	DB	00H
	DB	00H
	DB	00H
	DB	00H
	DB	00H
	DB	00H
	DB	00H
	DB	00H
	DB	00H
	DB	00H
	DB	00H
	DB	00H
	DB	00H
	DB	00H
	DB	00H
	DB	00H
	DB	00H
	DB	00H
	DB	00H
	DB	00H
	DB	00H
	DB	00H
	DB	00H
	DB	00H
	DB	00H
	DB	00H
	DB	00H
	DB	00H
	DB	00H
	DB	00H
	DB	00H
	DB	00H
	DB	00H
	DB	00H
	DB	00H
	DB	00H
	DB	00H
	DB	00H
	DB	00H
	DB	00H
	DB	00H
	DB	00H
	DB	00H
	DB	00H
	DB	00H
	DB	00H
	DB	00H
	DB	00H
	DB	00H
	DB	00H
	DB	00H
	DB	00H
	DB	00H
	DB	00H
	DB	00H
	DB	00H
	DB	00H
	DB	00H
	DB	00H
	DB	00H
	DB	00H
	DB	00H
	DB	00H
	DB	00H
	DB	00H
	DB	00H
	DB	00H
	DB	00H
	DB	00H
	DB	00H
	DB	00H
	DB	00H
	DB	00H
	DB	00H
	DB	021H
	DB	00H
	DB	020H
	DB	00H
	DB	021H
	DB	00H
	DB	021H
	DB	00H
	DB	021H
	DB	08H
	DB	021H
	DB	00H
	DB	021H
	DB	08H
	DB	021H
	DB	00H
	DB	041H
	DB	08H
	DB	041H
	DB	08H
	DB	041H
	DB	00H
	DB	041H
	DB	08H
	DB	041H
	DB	08H
	DB	042H
	DB	08H
	DB	042H
	DB	08H
	DB	041H
	DB	08H
	DB	042H
	DB	08H
	DB	042H
	DB	08H
	DB	042H
	DB	08H
	DB	062H
	DB	08H
	DB	062H
	DB	08H
	DB	062H
	DB	08H
	DB	062H
	DB	08H
	DB	062H
	DB	08H
	DB	062H
	DB	08H
	DB	062H
	DB	08H
	DB	062H
	DB	08H
	DB	062H
	DB	08H
	DB	083H
	DB	010H
	DB	083H
	DB	08H
	DB	082H
	DB	08H
	DB	083H
	DB	010H
	DB	083H
	DB	010H
	DB	083H
	DB	010H
	DB	083H
	DB	010H
	DB	083H
	DB	010H
	DB	083H
	DB	010H
	DB	083H
	DB	010H
	DB	083H
	DB	010H
	DB	0a3H
	DB	010H
	DB	083H
	DB	010H
	DB	0a3H
	DB	010H
	DB	0a4H
	DB	010H
	DB	0a3H
	DB	010H
	DB	0a4H
	DB	010H
	DB	0a4H
	DB	010H
	DB	0a3H
	DB	010H
	DB	0a4H
	DB	010H
	DB	0a4H
	DB	010H
	DB	0a4H
	DB	010H
	DB	0a4H
	DB	010H
	DB	0c4H
	DB	010H
	DB	0c4H
	DB	010H
	DB	0c4H
	DB	010H
	DB	0c4H
	DB	010H
	DB	0c4H
	DB	010H
	DB	0c4H
	DB	010H
	DB	0c4H
	DB	018H
	DB	0c4H
	DB	010H
	DB	0c4H
	DB	010H
	DB	0c5H
	DB	018H
	DB	0c4H
	DB	018H
	DB	0e4H
	DB	010H
	DB	0c5H
	DB	018H
	DB	0e5H
	DB	018H
	DB	0c5H
	DB	018H
	DB	0c5H
	DB	018H
	DB	0e5H
	DB	018H
	DB	0e5H
	DB	018H
	DB	0e5H
	DB	018H
	DB	0e5H
	DB	018H
	DB	0e5H
	DB	018H
	DB	0e5H
	DB	018H
	DB	0e5H
	DB	018H
	DB	0e5H
	DB	018H
	DB	0e5H
	DB	018H
	DB	05H
	DB	019H
	DB	0e5H
	DB	018H
	DB	0e5H
	DB	018H
	DB	06H
	DB	019H
	DB	05H
	DB	019H
	DB	05H
	DB	019H
	DB	06H
	DB	019H
	DB	06H
	DB	019H
	DB	05H
	DB	019H
	DB	06H
	DB	019H
	DB	06H
	DB	019H
	DB	06H
	DB	019H
	DB	06H
	DB	019H
	DB	06H
	DB	019H
	DB	06H
	DB	019H
	DB	06H
	DB	019H
	DB	06H
	DB	019H
	DB	06H
	DB	019H
	DB	06H
	DB	021H
	DB	06H
	DB	019H
	DB	026H
	DB	019H
	DB	06H
	DB	021H
	DB	06H
	DB	019H
	DB	026H
	DB	019H
	DB	06H
	DB	021H
	DB	026H
	DB	019H
	DB	026H
	DB	021H
	DB	026H
	DB	021H
	DB	026H
	DB	019H
	DB	026H
	DB	021H
	DB	026H
	DB	021H
	DB	026H
	DB	019H
	DB	026H
	DB	021H
	DB	027H
	DB	021H
	DB	026H
	DB	021H
	DB	026H
	DB	021H
	DB	027H
	DB	021H
	DB	026H
	DB	021H
	DB	027H
	DB	021H
	DB	026H
	DB	021H
	DB	027H
	DB	021H
	DB	027H
	DB	021H
	DB	026H
	DB	021H
	DB	027H
	DB	021H
	DB	027H
	DB	021H
	DB	026H
	DB	021H
	DB	027H
	DB	021H
	DB	047H
	DB	021H
	DB	026H
	DB	021H
	DB	027H
	DB	021H
	DB	047H
	DB	021H
	DB	047H
	DB	021H
	DB	027H
	DB	021H
	DB	047H
	DB	021H
	DB	027H
	DB	021H
	DB	047H
	DB	021H
	DB	047H
	DB	021H
	DB	047H
	DB	021H
	DB	047H
	DB	021H
	DB	047H
	DB	021H
	DB	047H
	DB	021H
	DB	047H
	DB	021H
	DB	047H
	DB	021H
	DB	047H
	DB	021H
	DB	027H
	DB	021H
	DB	047H
	DB	021H
	DB	047H
	DB	021H
	DB	047H
	DB	021H
	DB	047H
	DB	021H
	DB	047H
	DB	021H
	DB	047H
	DB	021H
	DB	047H
	DB	021H
	DB	047H
	DB	021H
	DB	047H
	DB	021H
	DB	047H
	DB	021H
	DB	047H
	DB	021H
	DB	047H
	DB	021H
	DB	047H
	DB	021H
	DB	047H
	DB	021H
	DB	047H
	DB	021H
	DB	047H
	DB	021H
	DB	047H
	DB	021H
	DB	027H
	DB	021H
	DB	047H
	DB	021H
	DB	047H
	DB	021H
	DB	047H
	DB	021H
	DB	047H
	DB	021H
	DB	027H
	DB	021H
	DB	047H
	DB	021H
	DB	047H
	DB	021H
	DB	047H
	DB	021H
	DB	027H
	DB	021H
	DB	027H
	DB	021H
	DB	027H
	DB	021H
	DB	047H
	DB	021H
	DB	047H
	DB	021H
	DB	027H
	DB	021H
	DB	027H
	DB	021H
	DB	027H
	DB	021H
	DB	046H
	DB	021H
	DB	027H
	DB	021H
	DB	027H
	DB	021H
	DB	027H
	DB	021H
	DB	027H
	DB	021H
	DB	046H
	DB	021H
	DB	027H
	DB	021H
	DB	027H
	DB	021H
	DB	026H
	DB	021H
	DB	026H
	DB	021H
	DB	027H
	DB	021H
	DB	027H
	DB	021H
	DB	026H
	DB	019H
	DB	026H
	DB	021H
	DB	027H
	DB	021H
	DB	026H
	DB	021H
	DB	026H
	DB	019H
	DB	026H
	DB	021H
	DB	026H
	DB	021H
	DB	026H
	DB	019H
	DB	026H
	DB	019H
	DB	026H
	DB	021H
	DB	026H
	DB	021H
	DB	026H
	DB	019H
	DB	06H
	DB	019H
	DB	026H
	DB	021H
	DB	06H
	DB	019H
	DB	06H
	DB	019H
	DB	06H
	DB	021H
	DB	06H
	DB	019H
	DB	026H
	DB	019H
	DB	06H
	DB	019H
	DB	06H
	DB	021H
	DB	06H
	DB	019H
	DB	06H
	DB	019H
	DB	06H
	DB	019H
	DB	06H
	DB	019H
	DB	06H
	DB	019H
	DB	05H
	DB	019H
	DB	06H
	DB	019H
	DB	06H
	DB	019H
	DB	05H
	DB	019H
	DB	05H
	DB	019H
	DB	06H
	DB	019H
	DB	0e5H
	DB	018H
	DB	0e5H
	DB	018H
	DB	0e5H
	DB	018H
	DB	05H
	DB	019H
	DB	0e5H
	DB	018H
	DB	0e5H
	DB	018H
	DB	0e5H
	DB	018H
	DB	0e5H
	DB	018H
	DB	0e5H
	DB	018H
	DB	0e5H
	DB	018H
	DB	0e5H
	DB	018H
	DB	0e5H
	DB	018H
	DB	0e5H
	DB	018H
	DB	0e5H
	DB	018H
	DB	0e5H
	DB	018H
	DB	0c5H
	DB	018H
	DB	0c5H
	DB	018H
	DB	0e4H
	DB	010H
	DB	0c4H
	DB	018H
	DB	0c5H
	DB	018H
	DB	0c4H
	DB	010H
	DB	0c4H
	DB	010H
	DB	0c4H
	DB	018H
	DB	0c4H
	DB	010H
	DB	0c4H
	DB	010H
	DB	0c4H
	DB	010H
	DB	0c4H
	DB	010H
	DB	0c4H
	DB	010H
	DB	0a4H
	DB	010H
	DB	0a4H
	DB	010H
	DB	0c4H
	DB	010H
	DB	0a4H
	DB	010H
	DB	0a4H
	DB	010H
	DB	0a4H
	DB	010H
	DB	0a4H
	DB	010H
	DB	0a3H
	DB	010H
	DB	0a3H
	DB	010H
	DB	0a4H
	DB	010H
	DB	0a3H
	DB	010H
	DB	0a3H
	DB	010H
	DB	0a3H
	DB	010H
	DB	083H
	DB	010H
	DB	083H
	DB	010H
	DB	083H
	DB	010H
	DB	083H
	DB	010H
	DB	083H
	DB	010H
	DB	083H
	DB	08H
	DB	083H
	DB	010H
	DB	083H
	DB	010H
	DB	083H
	DB	08H
	DB	082H
	DB	08H
	DB	063H
	DB	010H
	DB	062H
	DB	08H
	DB	082H
	DB	08H
	DB	062H
	DB	08H
	DB	062H
	DB	08H
	DB	062H
	DB	08H
	DB	062H
	DB	08H
	DB	062H
	DB	08H
	DB	062H
	DB	08H
	DB	062H
	DB	08H
	DB	062H
	DB	08H
	DB	042H
	DB	08H
	DB	042H
	DB	08H
	DB	042H
	DB	08H
	DB	041H
	DB	08H
	DB	041H
	DB	08H
	DB	042H
	DB	08H
	DB	041H
	DB	08H
	DB	041H
	DB	08H
	DB	041H
	DB	08H
	DB	021H
	DB	00H
	DB	021H
	DB	08H
	DB	041H
	DB	00H
	DB	021H
	DB	00H
	DB	021H
	DB	08H
	DB	021H
	DB	00H
	DB	021H
	DB	00H
	DB	021H
	DB	08H
	DB	020H
	DB	00H
	DB	00H
	DB	00H
	DB	01H
	DB	00H
	DB	00H
	DB	00H
	DB	00H
	DB	00H
	DB	00H
	DB	00H
	DB	00H
	DB	00H
	DB	00H
	DB	00H
	DB	00H
	DB	00H
	DB	00H
	DB	00H
	DB	00H
	DB	00H
	DB	00H
	DB	00H
	DB	00H
	DB	00H
	DB	00H
	DB	00H
	DB	00H
	DB	00H
	DB	00H
	DB	00H
	DB	00H
	DB	00H
	DB	00H
	DB	00H
	DB	00H
	DB	00H
	DB	00H
	DB	00H
	DB	00H
	DB	00H
	DB	00H
	DB	00H
	DB	00H
	DB	00H
	DB	00H
	DB	00H
	DB	00H
	DB	00H
	DB	00H
	DB	00H
	DB	00H
	DB	00H
	DB	00H
	DB	00H
	DB	00H
	DB	00H
	DB	00H
	DB	00H
	DB	00H
	DB	00H
	DB	00H
	DB	00H
	DB	00H
	DB	00H
	DB	00H
	DB	00H
	DB	00H
	DB	00H
	DB	00H
	DB	00H
	DB	00H
	DB	00H
	DB	00H
	DB	00H
	DB	00H
	DB	00H
	DB	00H
	DB	00H
	DB	00H
	DB	00H
	DB	00H
	DB	00H
	DB	00H
	DB	00H
	DB	00H
	DB	00H
	DB	00H
	DB	00H
	DB	00H
	DB	00H
	DB	00H
	DB	00H
	DB	00H
	DB	00H
	DB	00H
	DB	00H
	DB	00H
	DB	00H
	DB	00H
	DB	00H
	DB	00H
	DB	00H
	DB	00H
	DB	00H
	DB	00H
	DB	00H
	DB	00H
	DB	00H
	DB	00H
	DB	00H
	DB	00H
	DB	00H
	DB	00H
	DB	00H
	DB	00H
	DB	00H
	DB	00H
	DB	00H
	DB	00H
	DB	00H
	DB	00H
	DB	00H
	DB	00H
	DB	00H
	DB	00H
	DB	00H
	DB	00H
	DB	00H
	DB	00H
	DB	00H
	DB	00H
	DB	00H
	DB	00H
	DB	00H
	DB	00H
	DB	00H
	DB	00H
	DB	00H
	DB	00H
	DB	00H
	DB	00H
	DB	00H
	DB	00H
	DB	00H
	DB	00H
	DB	00H
	DB	00H
	DB	00H
	DB	00H
	DB	00H
	DB	00H
	DB	00H
	DB	00H
	DB	00H
	DB	00H
	DB	00H
	DB	00H
	DB	00H
	DB	00H
	DB	00H
	DB	00H
	DB	00H
	DB	00H
	DB	00H
	DB	00H
	DB	00H
	DB	00H
	DB	00H
	DB	00H
	DB	00H
	DB	00H
	DB	00H
	DB	00H
	DB	00H
	DB	020H
	DB	00H
	DB	01H
	DB	00H
	DB	021H
	DB	00H
	DB	021H
	DB	00H
	DB	021H
	DB	00H
	DB	020H
	DB	08H
	DB	021H
	DB	08H
	DB	021H
	DB	00H
	DB	021H
	DB	08H
	DB	041H
	DB	08H
	DB	041H
	DB	00H
	DB	021H
	DB	08H
	DB	041H
	DB	08H
	DB	041H
	DB	08H
	DB	042H
	DB	08H
	DB	041H
	DB	08H
	DB	042H
	DB	08H
	DB	042H
	DB	08H
	DB	041H
	DB	08H
	DB	062H
	DB	08H
	DB	062H
	DB	08H
	DB	062H
	DB	08H
	DB	042H
	DB	08H
	DB	062H
	DB	08H
	DB	062H
	DB	08H
	DB	062H
	DB	08H
	DB	062H
	DB	010H
	DB	062H
	DB	08H
	DB	062H
	DB	08H
	DB	083H
	DB	010H
	DB	083H
	DB	08H
	DB	083H
	DB	010H
	DB	083H
	DB	010H
	DB	063H
	DB	010H
	DB	083H
	DB	010H
	DB	083H
	DB	08H
	DB	083H
	DB	08H
	DB	083H
	DB	010H
	DB	083H
	DB	010H
	DB	0a3H
	DB	08H
	DB	0a3H
	DB	010H
	DB	083H
	DB	010H
	DB	0a3H
	DB	010H
	DB	0a3H
	DB	010H
	DB	0a4H
	DB	010H
	DB	0a4H
	DB	010H
	DB	0a3H
	DB	010H
	DB	0a4H
	DB	010H
	DB	0a4H
	DB	010H
	DB	0a4H
	DB	010H
	DB	0a4H
	DB	010H
	DB	0c4H
	DB	010H
	DB	0a4H
	DB	018H
	DB	0c4H
	DB	010H
	DB	0c4H
	DB	010H
	DB	0c4H
	DB	010H
	DB	0c4H
	DB	018H
	DB	0c4H
	DB	018H
	DB	0c4H
	DB	018H
	DB	0c4H
	DB	018H
	DB	0c5H
	DB	018H
	DB	0c4H
	DB	010H
	DB	0c5H
	DB	018H
	DB	0e5H
	DB	018H
	DB	0e5H
	DB	018H
	DB	0c5H
	DB	010H
	DB	0c4H
	DB	018H
	DB	0e5H
	DB	018H
	DB	0e5H
	DB	018H
	DB	0e5H
	DB	010H
	DB	0e5H
	DB	018H
	DB	0e5H
	DB	018H
	DB	0e5H
	DB	018H
	DB	0e5H
	DB	018H
	DB	0e5H
	DB	018H
	DB	0e5H
	DB	018H
	DB	05H
	DB	019H
	DB	0e5H
	DB	018H
	DB	05H
	DB	019H
	DB	05H
	DB	019H
	DB	0e6H
	DB	018H
	DB	05H
	DB	019H
	DB	06H
	DB	019H
	DB	06H
	DB	019H
	DB	05H
	DB	019H
	DB	06H
	DB	019H
	DB	06H
	DB	019H
	DB	06H
	DB	019H
	DB	06H
	DB	021H
	DB	06H
	DB	019H
	DB	05H
	DB	021H
	DB	06H
	DB	021H
	DB	06H
	DB	019H
	DB	06H
	DB	021H
	DB	026H
	DB	021H
	DB	026H
	DB	021H
	DB	06H
	DB	021H
	DB	026H
	DB	019H
	DB	026H
	DB	019H
	DB	026H
	DB	021H
	DB	026H
	DB	021H
	DB	06H
	DB	021H
	DB	026H
	DB	021H
	DB	026H
	DB	021H
	DB	027H
	DB	021H
	DB	026H
	DB	021H
	DB	026H
	DB	021H
	DB	027H
	DB	021H
	DB	027H
	DB	021H
	DB	027H
	DB	021H
	DB	027H
	DB	021H
	DB	026H
	DB	021H
	DB	027H
	DB	019H
	DB	027H
	DB	021H
	DB	027H
	DB	021H
	DB	027H
	DB	021H
	DB	046H
	DB	019H
	DB	027H
	DB	021H
	DB	047H
	DB	021H
	DB	047H
	DB	021H
	DB	027H
	DB	021H
	DB	047H
	DB	021H
	DB	047H
	DB	021H
	DB	027H
	DB	021H
	DB	047H
	DB	021H
	DB	047H
	DB	021H
	DB	047H
	DB	021H
	DB	027H
	DB	021H
	DB	047H
	DB	021H
	DB	047H
	DB	021H
	DB	047H
	DB	021H
	DB	047H
	DB	021H
	DB	047H
	DB	021H
	DB	047H
	DB	021H
	DB	047H
	DB	021H
	DB	047H
	DB	021H
	DB	027H
	DB	021H
	DB	047H
	DB	021H
	DB	047H
	DB	021H
	DB	047H
	DB	021H
	DB	027H
	DB	021H
	DB	047H
	DB	021H
	DB	047H
	DB	021H
	DB	047H
	DB	021H
	DB	047H
	DB	021H
	DB	047H
	DB	021H
	DB	047H
	DB	021H
	DB	047H
	DB	021H
	DB	047H
	DB	021H
	DB	047H
	DB	021H
	DB	047H
	DB	021H
	DB	027H
	DB	021H
	DB	047H
	DB	021H
	DB	047H
	DB	021H
	DB	047H
	DB	021H
	DB	047H
	DB	021H
	DB	047H
	DB	021H
	DB	047H
	DB	021H
	DB	047H
	DB	021H
	DB	047H
	DB	021H
	DB	047H
	DB	021H
	DB	047H
	DB	021H
	DB	047H
	DB	021H
	DB	047H
	DB	021H
	DB	047H
	DB	021H
	DB	047H
	DB	021H
	DB	047H
	DB	021H
	DB	047H
	DB	021H
	DB	047H
	DB	021H
	DB	047H
	DB	021H
	DB	047H
	DB	021H
	DB	047H
	DB	021H
	DB	047H
	DB	021H
	DB	047H
	DB	021H
	DB	047H
	DB	021H
	DB	027H
	DB	021H
	DB	047H
	DB	021H
	DB	047H
	DB	021H
	DB	047H
	DB	021H
	DB	047H
	DB	021H
	DB	047H
	DB	021H
	DB	047H
	DB	021H
	DB	047H
	DB	021H
	DB	027H
	DB	021H
	DB	047H
	DB	021H
	DB	046H
	DB	019H
	DB	027H
	DB	021H
	DB	047H
	DB	021H
	DB	047H
	DB	021H
	DB	027H
	DB	021H
	DB	027H
	DB	021H
	DB	026H
	DB	021H
	DB	027H
	DB	021H
	DB	027H
	DB	021H
	DB	027H
	DB	021H
	DB	027H
	DB	021H
	DB	027H
	DB	021H
	DB	026H
	DB	021H
	DB	027H
	DB	021H
	DB	026H
	DB	021H
	DB	027H
	DB	021H
	DB	06H
	DB	021H
	DB	026H
	DB	021H
	DB	026H
	DB	021H
	DB	026H
	DB	021H
	DB	026H
	DB	019H
	DB	026H
	DB	021H
	DB	026H
	DB	021H
	DB	06H
	DB	021H
	DB	026H
	DB	019H
	DB	06H
	DB	021H
	DB	026H
	DB	021H
	DB	06H
	DB	019H
	DB	026H
	DB	019H
	DB	06H
	DB	021H
	DB	06H
	DB	021H
	DB	06H
	DB	019H
	DB	06H
	DB	021H
	DB	05H
	DB	019H
	DB	06H
	DB	019H
	DB	06H
	DB	019H
	DB	06H
	DB	019H
	DB	05H
	DB	019H
	DB	06H
	DB	019H
	DB	06H
	DB	019H
	DB	06H
	DB	019H
	DB	06H
	DB	019H
	DB	05H
	DB	019H
	DB	0e5H
	DB	018H
	DB	05H
	DB	019H
	DB	0e5H
	DB	018H
	DB	0e5H
	DB	018H
	DB	0e5H
	DB	018H
	DB	0e5H
	DB	018H
	DB	0e5H
	DB	018H
	DB	0e5H
	DB	018H
	DB	0e5H
	DB	018H
	DB	0e5H
	DB	018H
	DB	0e5H
	DB	010H
	DB	0e5H
	DB	018H
	DB	0e5H
	DB	018H
	DB	0e5H
	DB	010H
	DB	0c5H
	DB	018H
	DB	0e5H
	DB	018H
	DB	0e4H
	DB	010H
	DB	0c5H
	DB	018H
	DB	0c4H
	DB	018H
	DB	0c5H
	DB	018H
	DB	0c4H
	DB	010H
	DB	0c4H
	DB	018H
	DB	0c4H
	DB	018H
	DB	0c4H
	DB	010H
	DB	0c4H
	DB	010H
	DB	0c4H
	DB	010H
	DB	0a4H
	DB	010H
	DB	0a4H
	DB	010H
	DB	0a4H
	DB	010H
	DB	0a4H
	DB	010H
	DB	0c4H
	DB	010H
	DB	0a4H
	DB	010H
	DB	0a4H
	DB	010H
	DB	0a4H
	DB	010H
	DB	0a4H
	DB	010H
	DB	0a4H
	DB	010H
	DB	0a3H
	DB	010H
	DB	083H
	DB	010H
	DB	0a3H
	DB	010H
	DB	0a3H
	DB	010H
	DB	083H
	DB	010H
	DB	083H
	DB	08H
	DB	083H
	DB	010H
	DB	083H
	DB	010H
	DB	083H
	DB	08H
	DB	083H
	DB	010H
	DB	083H
	DB	010H
	DB	083H
	DB	08H
	DB	083H
	DB	08H
	DB	063H
	DB	010H
	DB	082H
	DB	010H
	DB	082H
	DB	08H
	DB	062H
	DB	08H
	DB	062H
	DB	08H
	DB	062H
	DB	08H
	DB	062H
	DB	08H
	DB	062H
	DB	08H
	DB	062H
	DB	08H
	DB	042H
	DB	08H
	DB	062H
	DB	08H
	DB	062H
	DB	08H
	DB	042H
	DB	08H
	DB	042H
	DB	08H
	DB	041H
	DB	08H
	DB	042H
	DB	08H
	DB	041H
	DB	08H
	DB	041H
	DB	08H
	DB	041H
	DB	08H
	DB	021H
	DB	08H
	DB	021H
	DB	08H
	DB	021H
	DB	08H
	DB	021H
	DB	00H
	DB	021H
	DB	08H
	DB	021H
	DB	00H
	DB	021H
	DB	00H
	DB	01H
	DB	08H
	DB	021H
	DB	00H
	DB	020H
	DB	00H
	DB	020H
	DB	00H
	DB	01H
	DB	00H
	DB	00H
	DB	00H
	DB	00H
	DB	00H
	DB	00H
	DB	00H
	DB	00H
	DB	00H
	DB	00H
	DB	00H
	DB	00H
	DB	00H
	DB	00H
	DB	00H
	DB	00H
	DB	00H
	DB	00H
	DB	00H
	DB	00H
	DB	00H
	DB	00H
	DB	00H
	DB	00H
	DB	00H
	DB	00H
	DB	00H
	DB	00H
	DB	00H
	DB	00H
	DB	00H
	DB	00H
	DB	00H
	DB	00H
	DB	00H
	DB	00H
	DB	00H
	DB	00H
	DB	00H
	DB	00H
	DB	00H
	DB	00H
	DB	00H
	DB	00H
	DB	00H
	DB	00H
	DB	00H
	DB	00H
	DB	00H
	DB	00H
	DB	00H
	DB	00H
	DB	00H
	DB	00H
	DB	00H
	DB	00H
	DB	00H
	DB	00H
	DB	00H
	DB	00H
	DB	00H
	DB	00H
	DB	00H
	DB	00H
	DB	00H
	DB	00H
	DB	00H
	DB	00H
	DB	00H
	DB	00H
	DB	00H
	DB	00H
	DB	00H
	DB	00H
	DB	00H
	DB	00H
	DB	00H
	DB	00H
	DB	00H
	DB	00H
	DB	00H
	DB	00H
	DB	00H
	DB	00H
	DB	00H
	DB	00H
	DB	00H
	DB	00H
	DB	00H
	DB	00H
	DB	00H
	DB	00H
	DB	00H
	DB	00H
	DB	00H
	DB	00H
	DB	00H
	DB	00H
	DB	00H
	DB	00H
	DB	00H
	DB	00H
	DB	00H
	DB	00H
	DB	00H
	DB	00H
	DB	00H
	DB	00H
	DB	00H
	DB	00H
	DB	00H
	DB	00H
	DB	00H
	DB	00H
	DB	00H
	DB	00H
	DB	00H
	DB	00H
	DB	00H
	DB	00H
	DB	00H
	DB	00H
	DB	00H
	DB	00H
	DB	00H
	DB	00H
	DB	00H
	DB	00H
	DB	00H
	DB	00H
	DB	00H
	DB	00H
	DB	00H
	DB	00H
	DB	00H
	DB	00H
	DB	00H
	DB	00H
	DB	00H
	DB	00H
	DB	00H
	DB	00H
	DB	00H
	DB	00H
	DB	00H
	DB	00H
	DB	00H
	DB	00H
	DB	00H
	DB	00H
	DB	00H
	DB	00H
	DB	00H
	DB	00H
	DB	00H
	DB	00H
	DB	00H
	DB	00H
	DB	00H
	DB	00H
	DB	00H
	DB	00H
	DB	00H
	DB	020H
	DB	00H
	DB	01H
	DB	00H
	DB	020H
	DB	08H
	DB	021H
	DB	00H
	DB	021H
	DB	08H
	DB	020H
	DB	08H
	DB	021H
	DB	08H
	DB	021H
	DB	00H
	DB	021H
	DB	08H
	DB	041H
	DB	08H
	DB	041H
	DB	00H
	DB	041H
	DB	08H
	DB	041H
	DB	08H
	DB	041H
	DB	00H
	DB	041H
	DB	08H
	DB	042H
	DB	08H
	DB	042H
	DB	08H
	DB	042H
	DB	08H
	DB	042H
	DB	08H
	DB	042H
	DB	08H
	DB	062H
	DB	08H
	DB	062H
	DB	08H
	DB	062H
	DB	08H
	DB	062H
	DB	08H
	DB	062H
	DB	08H
	DB	062H
	DB	08H
	DB	062H
	DB	010H
	DB	062H
	DB	08H
	DB	083H
	DB	010H
	DB	063H
	DB	010H
	DB	083H
	DB	010H
	DB	082H
	DB	010H
	DB	083H
	DB	08H
	DB	083H
	DB	010H
	DB	082H
	DB	010H
	DB	083H
	DB	08H
	DB	083H
	DB	010H
	DB	083H
	DB	010H
	DB	083H
	DB	010H
	DB	0a3H
	DB	010H
	DB	083H
	DB	010H
	DB	0a3H
	DB	010H
	DB	0a4H
	DB	010H
	DB	0a3H
	DB	010H
	DB	0a4H
	DB	010H
	DB	0a4H
	DB	010H
	DB	0a3H
	DB	010H
	DB	0a4H
	DB	010H
	DB	0a4H
	DB	010H
	DB	0c3H
	DB	010H
	DB	0a4H
	DB	010H
	DB	0a4H
	DB	018H
	DB	0c4H
	DB	010H
	DB	0c4H
	DB	010H
	DB	0a4H
	DB	018H
	DB	0c4H
	DB	018H
	DB	0c4H
	DB	010H
	DB	0c4H
	DB	018H
	DB	0c4H
	DB	010H
	DB	0c5H
	DB	010H
	DB	0c4H
	DB	018H
	DB	0c5H
	DB	018H
	DB	0c5H
	DB	010H
	DB	0e4H
	DB	018H
	DB	0e5H
	DB	018H
	DB	0e4H
	DB	018H
	DB	0c5H
	DB	018H
	DB	0e5H
	DB	018H
	DB	0e5H
	DB	018H
	DB	0e5H
	DB	018H
	DB	0e5H
	DB	018H
	DB	0e5H
	DB	018H
	DB	0e5H
	DB	018H
	DB	0e5H
	DB	018H
	DB	0e5H
	DB	018H
	DB	0e5H
	DB	018H
	DB	0e5H
	DB	018H
	DB	0e5H
	DB	018H
	DB	06H
	DB	019H
	DB	0e5H
	DB	018H
	DB	06H
	DB	019H
	DB	05H
	DB	019H
	DB	06H
	DB	019H
	DB	06H
	DB	019H
	DB	05H
	DB	019H
	DB	06H
	DB	021H
	DB	06H
	DB	019H
	DB	05H
	DB	019H
	DB	06H
	DB	021H
	DB	06H
	DB	019H
	DB	06H
	DB	019H
	DB	06H
	DB	021H
	DB	026H
	DB	019H
	DB	06H
	DB	021H
	DB	06H
	DB	019H
	DB	026H
	DB	019H
	DB	026H
	DB	021H
	DB	026H
	DB	019H
	DB	026H
	DB	021H
	DB	026H
	DB	021H
	DB	026H
	DB	021H
	DB	026H
	DB	019H
	DB	026H
	DB	021H
	DB	026H
	DB	021H
	DB	027H
	DB	019H
	DB	026H
	DB	019H
	DB	026H
	DB	021H
	DB	027H
	DB	019H
	DB	026H
	DB	021H
	DB	027H
	DB	021H
	DB	026H
	DB	019H
	DB	027H
	DB	021H
	DB	027H
	DB	021H
	DB	027H
	DB	021H
	DB	046H
	DB	021H
	DB	047H
	DB	021H
	DB	047H
	DB	021H
	DB	046H
	DB	021H
	DB	027H
	DB	021H
	DB	047H
	DB	021H
	DB	046H
	DB	021H
	DB	027H
	DB	021H
	DB	047H
	DB	021H
	DB	047H
	DB	021H
	DB	047H
	DB	021H
	DB	047H
	DB	021H
	DB	047H
	DB	021H
	DB	047H
	DB	021H
	DB	047H
	DB	021H
	DB	047H
	DB	021H
	DB	047H
	DB	021H
	DB	047H
	DB	021H
	DB	047H
	DB	021H
	DB	047H
	DB	021H
	DB	047H
	DB	021H
	DB	047H
	DB	021H
	DB	047H
	DB	021H
	DB	047H
	DB	021H
	DB	047H
	DB	021H
	DB	047H
	DB	021H
	DB	047H
	DB	021H
	DB	047H
	DB	021H
	DB	047H
	DB	021H
	DB	047H
	DB	021H
	DB	047H
	DB	021H
	DB	047H
	DB	021H
	DB	047H
	DB	021H
	DB	047H
	DB	021H
	DB	047H
	DB	021H
	DB	047H
	DB	021H
	DB	047H
	DB	021H
	DB	047H
	DB	021H
	DB	047H
	DB	021H
	DB	047H
	DB	021H
	DB	047H
	DB	021H
	DB	047H
	DB	021H
	DB	047H
	DB	021H
	DB	047H
	DB	021H
	DB	047H
	DB	021H
	DB	047H
	DB	021H
	DB	047H
	DB	021H
	DB	047H
	DB	021H
	DB	047H
	DB	021H
	DB	047H
	DB	021H
	DB	047H
	DB	021H
	DB	047H
	DB	021H
	DB	047H
	DB	021H
	DB	047H
	DB	021H
	DB	047H
	DB	021H
	DB	047H
	DB	021H
	DB	047H
	DB	021H
	DB	047H
	DB	021H
	DB	047H
	DB	021H
	DB	047H
	DB	021H
	DB	047H
	DB	021H
	DB	047H
	DB	021H
	DB	047H
	DB	021H
	DB	047H
	DB	021H
	DB	047H
	DB	021H
	DB	047H
	DB	021H
	DB	047H
	DB	021H
	DB	047H
	DB	021H
	DB	047H
	DB	021H
	DB	027H
	DB	021H
	DB	047H
	DB	021H
	DB	027H
	DB	021H
	DB	047H
	DB	021H
	DB	047H
	DB	021H
	DB	047H
	DB	021H
	DB	027H
	DB	021H
	DB	047H
	DB	021H
	DB	047H
	DB	021H
	DB	027H
	DB	021H
	DB	047H
	DB	019H
	DB	046H
	DB	021H
	DB	027H
	DB	021H
	DB	027H
	DB	019H
	DB	027H
	DB	021H
	DB	026H
	DB	021H
	DB	027H
	DB	021H
	DB	027H
	DB	019H
	DB	027H
	DB	021H
	DB	027H
	DB	021H
	DB	027H
	DB	019H
	DB	027H
	DB	021H
	DB	026H
	DB	021H
	DB	027H
	DB	019H
	DB	026H
	DB	021H
	DB	026H
	DB	021H
	DB	026H
	DB	019H
	DB	026H
	DB	021H
	DB	026H
	DB	021H
	DB	026H
	DB	019H
	DB	026H
	DB	021H
	DB	026H
	DB	019H
	DB	06H
	DB	021H
	DB	026H
	DB	019H
	DB	06H
	DB	021H
	DB	06H
	DB	019H
	DB	06H
	DB	021H
	DB	06H
	DB	021H
	DB	06H
	DB	019H
	DB	06H
	DB	021H
	DB	05H
	DB	021H
	DB	06H
	DB	019H
	DB	05H
	DB	019H
	DB	06H
	DB	021H
	DB	05H
	DB	019H
	DB	0e6H
	DB	018H
	DB	06H
	DB	019H
	DB	06H
	DB	019H
	DB	06H
	DB	019H
	DB	0e5H
	DB	018H
	DB	05H
	DB	019H
	DB	05H
	DB	019H
	DB	0e5H
	DB	018H
	DB	0e5H
	DB	018H
	DB	0e5H
	DB	018H
	DB	0e5H
	DB	018H
	DB	0e5H
	DB	018H
	DB	0e5H
	DB	018H
	DB	0e5H
	DB	018H
	DB	0e5H
	DB	018H
	DB	0e4H
	DB	018H
	DB	0e5H
	DB	018H
	DB	0e5H
	DB	018H
	DB	0c5H
	DB	010H
	DB	0c5H
	DB	018H
	DB	0c4H
	DB	018H
	DB	0c5H
	DB	010H
	DB	0c4H
	DB	018H
	DB	0c4H
	DB	018H
	DB	0c4H
	DB	018H
	DB	0c4H
	DB	018H
	DB	0c4H
	DB	018H
	DB	0c4H
	DB	010H
	DB	0c4H
	DB	018H
	DB	0c4H
	DB	010H
	DB	0c4H
	DB	010H
	DB	0a4H
	DB	010H
	DB	0a4H
	DB	010H
	DB	0a3H
	DB	010H
	DB	0a4H
	DB	010H
	DB	0a4H
	DB	010H
	DB	0a3H
	DB	010H
	DB	0a4H
	DB	010H
	DB	0a4H
	DB	010H
	DB	0a3H
	DB	010H
	DB	0a3H
	DB	010H
	DB	0a3H
	DB	010H
	DB	083H
	DB	010H
	DB	0a3H
	DB	010H
	DB	083H
	DB	010H
	DB	083H
	DB	010H
	DB	083H
	DB	010H
	DB	082H
	DB	010H
	DB	083H
	DB	010H
	DB	083H
	DB	08H
	DB	082H
	DB	010H
	DB	063H
	DB	010H
	DB	083H
	DB	08H
	DB	063H
	DB	010H
	DB	062H
	DB	08H
	DB	063H
	DB	010H
	DB	062H
	DB	08H
	DB	062H
	DB	08H
	DB	062H
	DB	08H
	DB	062H
	DB	08H
	DB	062H
	DB	08H
	DB	062H
	DB	08H
	DB	061H
	DB	08H
	DB	042H
	DB	08H
	DB	042H
	DB	08H
	DB	042H
	DB	08H
	DB	041H
	DB	08H
	DB	042H
	DB	00H
	DB	041H
	DB	08H
	DB	041H
	DB	00H
	DB	041H
	DB	08H
	DB	041H
	DB	08H
	DB	021H
	DB	08H
	DB	021H
	DB	00H
	DB	021H
	DB	08H
	DB	020H
	DB	08H
	DB	021H
	DB	00H
	DB	021H
	DB	08H
	DB	020H
	DB	00H
	DB	01H
	DB	00H
	DB	020H
	DB	00H
	DB	020H
	DB	00H
	DB	00H
	DB	00H
	DB	00H
	DB	00H
	DB	00H
	DB	00H
	DB	00H
	DB	00H
	DB	00H
	DB	00H
	DB	00H
	DB	00H
	DB	00H
	DB	00H
	DB	00H
	DB	00H
	DB	00H
	DB	00H
	DB	00H
	DB	00H
	DB	00H
	DB	00H
	DB	00H
	DB	00H
	DB	00H
	DB	00H
	DB	00H
	DB	00H
	DB	00H
	DB	00H
	DB	00H
	DB	00H
	DB	00H
	DB	00H
	DB	00H
	DB	00H
	DB	00H
	DB	00H
	DB	00H
	DB	00H
	DB	00H
	DB	00H
	DB	00H
	DB	00H
	DB	00H
	DB	00H
	DB	00H
	DB	00H
	DB	00H
	DB	00H
	DB	00H
	DB	00H
	DB	00H
	DB	00H
	DB	00H
	DB	00H
	DB	00H
	DB	00H
	DB	00H
	DB	00H
	DB	00H
	DB	00H
	DB	00H
	DB	00H
	DB	00H
	DB	00H
	DB	00H
	DB	00H
	DB	00H
	DB	00H
	DB	00H
	DB	00H
	DB	00H
	DB	00H
	DB	00H
	DB	00H
	DB	00H
	DB	00H
	DB	00H
	DB	00H
	DB	00H
	DB	00H
	DB	00H
	DB	00H
	DB	00H
	DB	00H
	DB	00H
	DB	00H
	DB	00H
	DB	00H
	DB	00H
	DB	00H
	DB	00H
	DB	00H
	DB	00H
	DB	00H
	DB	00H
	DB	00H
	DB	00H
	DB	00H
	DB	00H
	DB	00H
	DB	00H
	DB	00H
	DB	00H
	DB	00H
	DB	00H
	DB	00H
	DB	00H
	DB	00H
	DB	00H
	DB	00H
	DB	00H
	DB	00H
	DB	00H
	DB	00H
	DB	00H
	DB	00H
	DB	00H
	DB	00H
	DB	00H
	DB	00H
	DB	00H
	DB	00H
	DB	00H
	DB	00H
	DB	00H
	DB	00H
	DB	00H
	DB	00H
	DB	00H
	DB	00H
	DB	00H
	DB	00H
	DB	00H
	DB	00H
	DB	00H
	DB	00H
	DB	00H
	DB	00H
	DB	00H
	DB	00H
	DB	00H
	DB	00H
	DB	00H
	DB	00H
	DB	00H
	DB	00H
	DB	00H
	DB	00H
	DB	00H
	DB	00H
	DB	00H
	DB	00H
	DB	00H
	DB	00H
	DB	020H
	DB	00H
	DB	020H
	DB	00H
	DB	021H
	DB	00H
	DB	01H
	DB	08H
	DB	020H
	DB	00H
	DB	020H
	DB	00H
	DB	021H
	DB	00H
	DB	021H
	DB	08H
	DB	021H
	DB	00H
	DB	021H
	DB	00H
	DB	041H
	DB	08H
	DB	021H
	DB	00H
	DB	041H
	DB	08H
	DB	041H
	DB	08H
	DB	042H
	DB	08H
	DB	042H
	DB	08H
	DB	041H
	DB	00H
	DB	042H
	DB	08H
	DB	041H
	DB	08H
	DB	062H
	DB	08H
	DB	061H
	DB	08H
	DB	062H
	DB	08H
	DB	062H
	DB	08H
	DB	042H
	DB	08H
	DB	062H
	DB	08H
	DB	062H
	DB	08H
	DB	062H
	DB	08H
	DB	062H
	DB	010H
	DB	063H
	DB	08H
	DB	063H
	DB	08H
	DB	083H
	DB	08H
	DB	082H
	DB	08H
	DB	083H
	DB	08H
	DB	063H
	DB	010H
	DB	082H
	DB	08H
	DB	083H
	DB	08H
	DB	083H
	DB	010H
	DB	083H
	DB	010H
	DB	083H
	DB	010H
	DB	083H
	DB	010H
	DB	0a3H
	DB	010H
	DB	0a3H
	DB	010H
	DB	083H
	DB	010H
	DB	0a4H
	DB	010H
	DB	0a4H
	DB	010H
	DB	0a3H
	DB	010H
	DB	0a4H
	DB	010H
	DB	0a4H
	DB	010H
	DB	0a3H
	DB	010H
	DB	0a4H
	DB	010H
	DB	0c4H
	DB	010H
	DB	0a4H
	DB	010H
	DB	0c4H
	DB	010H
	DB	0c4H
	DB	018H
	DB	0c4H
	DB	010H
	DB	0c4H
	DB	010H
	DB	0c4H
	DB	018H
	DB	0c4H
	DB	010H
	DB	0c4H
	DB	010H
	DB	0c5H
	DB	018H
	DB	0c5H
	DB	018H
	DB	0c4H
	DB	010H
	DB	0e5H
	DB	010H
	DB	0c5H
	DB	018H
	DB	0c4H
	DB	018H
	DB	0e5H
	DB	018H
	DB	0e5H
	DB	010H
	DB	0e5H
	DB	018H
	DB	0e5H
	DB	018H
	DB	0e5H
	DB	010H
	DB	0e5H
	DB	018H
	DB	0e5H
	DB	018H
	DB	0e5H
	DB	018H
	DB	0e5H
	DB	018H
	DB	0e5H
	DB	018H
	DB	0e5H
	DB	018H
	DB	05H
	DB	019H
	DB	05H
	DB	019H
	DB	06H
	DB	019H
	DB	06H
	DB	019H
	DB	05H
	DB	019H
	DB	06H
	DB	019H
	DB	06H
	DB	019H
	DB	06H
	DB	019H
	DB	06H
	DB	019H
	DB	06H
	DB	019H
	DB	05H
	DB	021H
	DB	06H
	DB	019H
	DB	06H
	DB	021H
	DB	06H
	DB	021H
	DB	06H
	DB	021H
	DB	06H
	DB	019H
	DB	026H
	DB	019H
	DB	026H
	DB	021H
	DB	026H
	DB	019H
	DB	026H
	DB	021H
	DB	06H
	DB	021H
	DB	026H
	DB	019H
	DB	026H
	DB	021H
	DB	06H
	DB	021H
	DB	026H
	DB	019H
	DB	027H
	DB	021H
	DB	027H
	DB	019H
	DB	027H
	DB	021H
	DB	026H
	DB	019H
	DB	027H
	DB	021H
	DB	027H
	DB	021H
	DB	027H
	DB	021H
	DB	047H
	DB	019H
	DB	026H
	DB	021H
	DB	047H
	DB	021H
	DB	046H
	DB	021H
	DB	047H
	DB	021H
	DB	046H
	DB	021H
	DB	047H
	DB	021H
	DB	027H
	DB	021H
	DB	046H
	DB	021H
	DB	027H
	DB	021H
	DB	047H
	DB	021H
	DB	047H
	DB	021H
	DB	047H
	DB	021H
	DB	047H
	DB	021H
	DB	047H
	DB	021H
	DB	047H
	DB	021H
	DB	047H
	DB	021H
	DB	047H
	DB	021H
	DB	047H
	DB	021H
	DB	047H
	DB	021H
	DB	047H
	DB	021H
	DB	027H
	DB	021H
	DB	047H
	DB	021H
	DB	047H
	DB	021H
	DB	047H
	DB	021H
	DB	047H
	DB	021H
	DB	047H
	DB	021H
	DB	047H
	DB	021H
	DB	047H
	DB	021H
	DB	047H
	DB	021H
	DB	047H
	DB	021H
	DB	047H
	DB	021H
	DB	047H
	DB	021H
	DB	047H
	DB	021H
	DB	047H
	DB	021H
	DB	047H
	DB	021H
	DB	047H
	DB	021H
	DB	047H
	DB	021H
	DB	047H
	DB	021H
	DB	047H
	DB	021H
	DB	047H
	DB	021H
	DB	047H
	DB	021H
	DB	048H
	DB	021H
	DB	047H
	DB	021H
	DB	047H
	DB	021H
	DB	048H
	DB	021H
	DB	067H
	DB	021H
	DB	048H
	DB	021H
	DB	067H
	DB	021H
	DB	047H
	DB	021H
	DB	048H
	DB	021H
	DB	067H
	DB	021H
	DB	047H
	DB	021H
	DB	047H
	DB	021H
	DB	047H
	DB	021H
	DB	048H
	DB	021H
	DB	047H
	DB	029H
	DB	047H
	DB	021H
	DB	047H
	DB	021H
	DB	047H
	DB	021H
	DB	047H
	DB	021H
	DB	047H
	DB	021H
	DB	047H
	DB	021H
	DB	047H
	DB	021H
	DB	047H
	DB	021H
	DB	047H
	DB	021H
	DB	047H
	DB	021H
	DB	047H
	DB	021H
	DB	047H
	DB	021H
	DB	047H
	DB	021H
	DB	047H
	DB	021H
	DB	047H
	DB	021H
	DB	047H
	DB	021H
	DB	047H
	DB	021H
	DB	047H
	DB	021H
	DB	047H
	DB	021H
	DB	047H
	DB	021H
	DB	047H
	DB	021H
	DB	047H
	DB	021H
	DB	047H
	DB	021H
	DB	047H
	DB	021H
	DB	047H
	DB	021H
	DB	047H
	DB	021H
	DB	047H
	DB	021H
	DB	047H
	DB	021H
	DB	047H
	DB	021H
	DB	047H
	DB	021H
	DB	046H
	DB	021H
	DB	047H
	DB	021H
	DB	047H
	DB	021H
	DB	046H
	DB	021H
	DB	047H
	DB	021H
	DB	047H
	DB	021H
	DB	026H
	DB	021H
	DB	027H
	DB	019H
	DB	027H
	DB	021H
	DB	026H
	DB	021H
	DB	027H
	DB	019H
	DB	027H
	DB	021H
	DB	026H
	DB	021H
	DB	027H
	DB	021H
	DB	027H
	DB	021H
	DB	027H
	DB	019H
	DB	027H
	DB	021H
	DB	026H
	DB	021H
	DB	026H
	DB	019H
	DB	026H
	DB	021H
	DB	026H
	DB	021H
	DB	06H
	DB	019H
	DB	026H
	DB	019H
	DB	026H
	DB	021H
	DB	026H
	DB	019H
	DB	06H
	DB	019H
	DB	026H
	DB	019H
	DB	026H
	DB	021H
	DB	06H
	DB	019H
	DB	06H
	DB	021H
	DB	06H
	DB	019H
	DB	05H
	DB	019H
	DB	06H
	DB	019H
	DB	06H
	DB	019H
	DB	05H
	DB	019H
	DB	06H
	DB	019H
	DB	06H
	DB	019H
	DB	05H
	DB	019H
	DB	0e6H
	DB	018H
	DB	06H
	DB	019H
	DB	05H
	DB	019H
	DB	0e6H
	DB	018H
	DB	05H
	DB	019H
	DB	05H
	DB	019H
	DB	0e5H
	DB	018H
	DB	0e5H
	DB	018H
	DB	0e5H
	DB	018H
	DB	0e5H
	DB	018H
	DB	0e5H
	DB	018H
	DB	0e5H
	DB	018H
	DB	0e5H
	DB	018H
	DB	0e5H
	DB	010H
	DB	0e5H
	DB	018H
	DB	0e5H
	DB	018H
	DB	0e4H
	DB	010H
	DB	0c5H
	DB	018H
	DB	0e5H
	DB	010H
	DB	0e4H
	DB	018H
	DB	0c5H
	DB	010H
	DB	0c4H
	DB	010H
	DB	0c4H
	DB	018H
	DB	0c4H
	DB	010H
	DB	0c4H
	DB	010H
	DB	0c4H
	DB	018H
	DB	0a4H
	DB	018H
	DB	0c4H
	DB	010H
	DB	0c4H
	DB	010H
	DB	0c4H
	DB	010H
	DB	0a4H
	DB	010H
	DB	0a3H
	DB	010H
	DB	0a4H
	DB	010H
	DB	0a3H
	DB	010H
	DB	0a4H
	DB	010H
	DB	0a4H
	DB	010H
	DB	0a4H
	DB	010H
	DB	0a3H
	DB	010H
	DB	0a4H
	DB	010H
	DB	0a3H
	DB	08H
	DB	083H
	DB	010H
	DB	083H
	DB	010H
	DB	083H
	DB	08H
	DB	083H
	DB	08H
	DB	083H
	DB	010H
	DB	083H
	DB	010H
	DB	083H
	DB	08H
	DB	083H
	DB	08H
	DB	082H
	DB	010H
	DB	083H
	DB	010H
	DB	062H
	DB	08H
	DB	062H
	DB	010H
	DB	063H
	DB	010H
	DB	062H
	DB	08H
	DB	062H
	DB	010H
	DB	062H
	DB	08H
	DB	062H
	DB	08H
	DB	062H
	DB	08H
	DB	062H
	DB	08H
	DB	062H
	DB	08H
	DB	041H
	DB	08H
	DB	062H
	DB	08H
	DB	042H
	DB	08H
	DB	041H
	DB	08H
	DB	042H
	DB	08H
	DB	042H
	DB	08H
	DB	041H
	DB	08H
	DB	041H
	DB	00H
	DB	041H
	DB	08H
	DB	041H
	DB	00H
	DB	021H
	DB	08H
	DB	041H
	DB	00H
	DB	021H
	DB	00H
	DB	021H
	DB	00H
	DB	021H
	DB	08H
	DB	020H
	DB	08H
	DB	021H
	DB	08H
	DB	020H
	DB	00H
	DB	01H
	DB	00H
	DB	020H
	DB	08H
	DB	00H
	DB	00H
	DB	00H
	DB	00H
	DB	00H
	DB	00H
	DB	00H
	DB	00H
	DB	00H
	DB	00H
	DB	00H
	DB	00H
	DB	00H
	DB	00H
	DB	00H
	DB	00H
	DB	00H
	DB	00H
	DB	00H
	DB	00H
	DB	00H
	DB	00H
	DB	00H
	DB	00H
	DB	00H
	DB	00H
	DB	00H
	DB	00H
	DB	00H
	DB	00H
	DB	00H
	DB	00H
	DB	00H
	DB	00H
	DB	00H
	DB	00H
	DB	00H
	DB	00H
	DB	00H
	DB	00H
	DB	00H
	DB	00H
	DB	00H
	DB	00H
	DB	00H
	DB	00H
	DB	00H
	DB	00H
	DB	00H
	DB	00H
	DB	00H
	DB	00H
	DB	00H
	DB	00H
	DB	00H
	DB	00H
	DB	00H
	DB	00H
	DB	00H
	DB	00H
	DB	00H
	DB	00H
	DB	00H
	DB	00H
	DB	00H
	DB	00H
	DB	00H
	DB	00H
	DB	00H
	DB	00H
	DB	00H
	DB	00H
	DB	00H
	DB	00H
	DB	00H
	DB	00H
	DB	00H
	DB	00H
	DB	00H
	DB	00H
	DB	00H
	DB	00H
	DB	00H
	DB	00H
	DB	00H
	DB	00H
	DB	00H
	DB	00H
	DB	00H
	DB	00H
	DB	00H
	DB	00H
	DB	00H
	DB	00H
	DB	00H
	DB	00H
	DB	00H
	DB	00H
	DB	00H
	DB	00H
	DB	00H
	DB	00H
	DB	00H
	DB	00H
	DB	00H
	DB	00H
	DB	00H
	DB	00H
	DB	00H
	DB	00H
	DB	00H
	DB	00H
	DB	00H
	DB	00H
	DB	00H
	DB	00H
	DB	00H
	DB	00H
	DB	00H
	DB	00H
	DB	00H
	DB	00H
	DB	00H
	DB	00H
	DB	00H
	DB	00H
	DB	00H
	DB	00H
	DB	00H
	DB	00H
	DB	00H
	DB	00H
	DB	00H
	DB	00H
	DB	00H
	DB	00H
	DB	00H
	DB	00H
	DB	00H
	DB	00H
	DB	00H
	DB	00H
	DB	00H
	DB	00H
	DB	00H
	DB	00H
	DB	00H
	DB	00H
	DB	00H
	DB	00H
	DB	00H
	DB	00H
	DB	020H
	DB	00H
	DB	01H
	DB	00H
	DB	020H
	DB	00H
	DB	01H
	DB	08H
	DB	021H
	DB	00H
	DB	021H
	DB	00H
	DB	021H
	DB	08H
	DB	021H
	DB	08H
	DB	021H
	DB	00H
	DB	041H
	DB	08H
	DB	021H
	DB	08H
	DB	041H
	DB	08H
	DB	041H
	DB	00H
	DB	041H
	DB	08H
	DB	041H
	DB	08H
	DB	041H
	DB	08H
	DB	042H
	DB	08H
	DB	042H
	DB	08H
	DB	041H
	DB	08H
	DB	042H
	DB	08H
	DB	062H
	DB	08H
	DB	042H
	DB	08H
	DB	062H
	DB	08H
	DB	062H
	DB	08H
	DB	062H
	DB	08H
	DB	062H
	DB	08H
	DB	062H
	DB	010H
	DB	062H
	DB	010H
	DB	063H
	DB	08H
	DB	082H
	DB	010H
	DB	082H
	DB	010H
	DB	083H
	DB	010H
	DB	083H
	DB	08H
	DB	083H
	DB	010H
	DB	083H
	DB	010H
	DB	083H
	DB	010H
	DB	083H
	DB	010H
	DB	083H
	DB	010H
	DB	0a3H
	DB	08H
	DB	0a3H
	DB	010H
	DB	0a3H
	DB	010H
	DB	0a3H
	DB	08H
	DB	0a4H
	DB	010H
	DB	0a4H
	DB	010H
	DB	0a3H
	DB	010H
	DB	0a4H
	DB	010H
	DB	0a3H
	DB	010H
	DB	0a4H
	DB	010H
	DB	0a4H
	DB	010H
	DB	0c4H
	DB	010H
	DB	0c4H
	DB	010H
	DB	0a4H
	DB	018H
	DB	0a4H
	DB	010H
	DB	0c4H
	DB	010H
	DB	0c4H
	DB	018H
	DB	0c4H
	DB	018H
	DB	0c4H
	DB	010H
	DB	0c4H
	DB	018H
	DB	0c5H
	DB	018H
	DB	0c4H
	DB	010H
	DB	0c5H
	DB	010H
	DB	0e4H
	DB	018H
	DB	0c4H
	DB	018H
	DB	0e5H
	DB	018H
	DB	0e4H
	DB	018H
	DB	0e5H
	DB	018H
	DB	0e5H
	DB	018H
	DB	0c5H
	DB	018H
	DB	0e5H
	DB	010H
	DB	0e5H
	DB	018H
	DB	0e5H
	DB	018H
	DB	0e5H
	DB	018H
	DB	0e5H
	DB	018H
	DB	0e5H
	DB	018H
	DB	05H
	DB	019H
	DB	05H
	DB	019H
	DB	05H
	DB	019H
	DB	06H
	DB	019H
	DB	0e5H
	DB	018H
	DB	06H
	DB	019H
	DB	06H
	DB	019H
	DB	05H
	DB	019H
	DB	06H
	DB	019H
	DB	06H
	DB	021H
	DB	05H
	DB	021H
	DB	06H
	DB	019H
	DB	06H
	DB	021H
	DB	06H
	DB	019H
	DB	06H
	DB	021H
	DB	06H
	DB	019H
	DB	026H
	DB	019H
	DB	026H
	DB	021H
	DB	06H
	DB	019H
	DB	026H
	DB	021H
	DB	026H
	DB	021H
	DB	026H
	DB	019H
	DB	026H
	DB	021H
	DB	026H
	DB	021H
	DB	026H
	DB	021H
	DB	026H
	DB	021H
	DB	027H
	DB	021H
	DB	026H
	DB	019H
	DB	026H
	DB	021H
	DB	027H
	DB	021H
	DB	026H
	DB	021H
	DB	027H
	DB	021H
	DB	027H
	DB	021H
	DB	026H
	DB	021H
	DB	027H
	DB	021H
	DB	047H
	DB	021H
	DB	027H
	DB	021H
	DB	027H
	DB	021H
	DB	047H
	DB	021H
	DB	047H
	DB	021H
	DB	047H
	DB	021H
	DB	047H
	DB	021H
	DB	027H
	DB	021H
	DB	047H
	DB	021H
	DB	047H
	DB	021H
	DB	047H
	DB	021H
	DB	047H
	DB	021H
	DB	047H
	DB	021H
	DB	047H
	DB	021H
	DB	047H
	DB	021H
	DB	047H
	DB	021H
	DB	047H
	DB	021H
	DB	047H
	DB	021H
	DB	047H
	DB	021H
	DB	047H
	DB	021H
	DB	047H
	DB	021H
	DB	047H
	DB	021H
	DB	047H
	DB	021H
	DB	047H
	DB	021H
	DB	047H
	DB	021H
	DB	047H
	DB	021H
	DB	047H
	DB	021H
	DB	047H
	DB	021H
	DB	067H
	DB	021H
	DB	047H
	DB	021H
	DB	048H
	DB	021H
	DB	068H
	DB	021H
	DB	047H
	DB	021H
	DB	067H
	DB	021H
	DB	068H
	DB	029H
	DB	068H
	DB	021H
	DB	067H
	DB	021H
	DB	068H
	DB	029H
	DB	048H
	DB	021H
	DB	068H
	DB	021H
	DB	067H
	DB	029H
	DB	068H
	DB	029H
	DB	067H
	DB	021H
	DB	068H
	DB	029H
	DB	068H
	DB	021H
	DB	068H
	DB	029H
	DB	067H
	DB	029H
	DB	047H
	DB	021H
	DB	068H
	DB	029H
	DB	047H
	DB	029H
	DB	067H
	DB	021H
	DB	068H
	DB	029H
	DB	048H
	DB	029H
	DB	068H
	DB	021H
	DB	068H
	DB	021H
	DB	047H
	DB	029H
	DB	067H
	DB	021H
	DB	068H
	DB	021H
	DB	048H
	DB	021H
	DB	068H
	DB	029H
	DB	047H
	DB	029H
	DB	068H
	DB	021H
	DB	048H
	DB	021H
	DB	047H
	DB	029H
	DB	048H
	DB	021H
	DB	048H
	DB	021H
	DB	047H
	DB	029H
	DB	067H
	DB	021H
	DB	047H
	DB	021H
	DB	067H
	DB	021H
	DB	047H
	DB	021H
	DB	047H
	DB	021H
	DB	047H
	DB	021H
	DB	047H
	DB	021H
	DB	047H
	DB	021H
	DB	047H
	DB	021H
	DB	047H
	DB	021H
	DB	047H
	DB	021H
	DB	047H
	DB	021H
	DB	047H
	DB	021H
	DB	047H
	DB	021H
	DB	047H
	DB	021H
	DB	047H
	DB	021H
	DB	047H
	DB	021H
	DB	047H
	DB	021H
	DB	047H
	DB	021H
	DB	047H
	DB	021H
	DB	047H
	DB	021H
	DB	027H
	DB	021H
	DB	047H
	DB	021H
	DB	047H
	DB	021H
	DB	027H
	DB	021H
	DB	047H
	DB	021H
	DB	047H
	DB	021H
	DB	047H
	DB	021H
	DB	046H
	DB	021H
	DB	047H
	DB	021H
	DB	046H
	DB	021H
	DB	027H
	DB	021H
	DB	027H
	DB	021H
	DB	026H
	DB	019H
	DB	026H
	DB	021H
	DB	027H
	DB	021H
	DB	027H
	DB	021H
	DB	026H
	DB	019H
	DB	027H
	DB	021H
	DB	027H
	DB	021H
	DB	026H
	DB	021H
	DB	026H
	DB	021H
	DB	026H
	DB	019H
	DB	026H
	DB	021H
	DB	026H
	DB	021H
	DB	026H
	DB	021H
	DB	026H
	DB	019H
	DB	06H
	DB	021H
	DB	06H
	DB	021H
	DB	026H
	DB	019H
	DB	026H
	DB	021H
	DB	06H
	DB	021H
	DB	06H
	DB	021H
	DB	06H
	DB	019H
	DB	06H
	DB	021H
	DB	05H
	DB	021H
	DB	06H
	DB	019H
	DB	05H
	DB	019H
	DB	05H
	DB	021H
	DB	06H
	DB	019H
	DB	05H
	DB	019H
	DB	05H
	DB	019H
	DB	06H
	DB	019H
	DB	0e5H
	DB	018H
	DB	0e5H
	DB	018H
	DB	05H
	DB	019H
	DB	0e5H
	DB	018H
	DB	0e5H
	DB	018H
	DB	0e5H
	DB	018H
	DB	0e5H
	DB	018H
	DB	0e5H
	DB	018H
	DB	0e5H
	DB	010H
	DB	0c5H
	DB	018H
	DB	0e5H
	DB	018H
	DB	0e5H
	DB	018H
	DB	0e4H
	DB	010H
	DB	0e5H
	DB	018H
	DB	0c5H
	DB	018H
	DB	0c5H
	DB	010H
	DB	0c5H
	DB	018H
	DB	0c4H
	DB	018H
	DB	0c5H
	DB	010H
	DB	0c4H
	DB	018H
	DB	0c4H
	DB	010H
	DB	0c4H
	DB	010H
	DB	0c4H
	DB	018H
	DB	0a4H
	DB	018H
	DB	0c4H
	DB	010H
	DB	0c4H
	DB	010H
	DB	0a4H
	DB	018H
	DB	0c4H
	DB	010H
	DB	0a4H
	DB	010H
	DB	0a3H
	DB	010H
	DB	0a4H
	DB	010H
	DB	083H
	DB	010H
	DB	0a4H
	DB	010H
	DB	0a4H
	DB	010H
	DB	0a3H
	DB	010H
	DB	083H
	DB	010H
	DB	0a3H
	DB	010H
	DB	0a3H
	DB	010H
	DB	083H
	DB	010H
	DB	083H
	DB	010H
	DB	083H
	DB	08H
	DB	083H
	DB	010H
	DB	083H
	DB	010H
	DB	083H
	DB	08H
	DB	083H
	DB	08H
	DB	082H
	DB	010H
	DB	083H
	DB	08H
	DB	083H
	DB	08H
	DB	062H
	DB	08H
	DB	062H
	DB	010H
	DB	062H
	DB	010H
	DB	062H
	DB	08H
	DB	062H
	DB	08H
	DB	062H
	DB	08H
	DB	062H
	DB	08H
	DB	062H
	DB	08H
	DB	042H
	DB	08H
	DB	061H
	DB	08H
	DB	042H
	DB	08H
	DB	042H
	DB	08H
	DB	041H
	DB	08H
	DB	041H
	DB	08H
	DB	042H
	DB	08H
	DB	042H
	DB	08H
	DB	041H
	DB	00H
	DB	021H
	DB	08H
	DB	021H
	DB	08H
	DB	041H
	DB	00H
	DB	021H
	DB	08H
	DB	021H
	DB	00H
	DB	021H
	DB	00H
	DB	021H
	DB	00H
	DB	021H
	DB	00H
	DB	020H
	DB	00H
	DB	01H
	DB	00H
	DB	020H
	DB	00H
	DB	020H
	DB	00H
	DB	00H
	DB	00H
	DB	00H
	DB	00H
	DB	00H
	DB	00H
	DB	00H
	DB	00H
	DB	00H
	DB	00H
	DB	00H
	DB	00H
	DB	00H
	DB	00H
	DB	00H
	DB	00H
	DB	00H
	DB	00H
	DB	00H
	DB	00H
	DB	00H
	DB	00H
	DB	00H
	DB	00H
	DB	00H
	DB	00H
	DB	00H
	DB	00H
	DB	00H
	DB	00H
	DB	00H
	DB	00H
	DB	00H
	DB	00H
	DB	00H
	DB	00H
	DB	00H
	DB	00H
	DB	00H
	DB	00H
	DB	00H
	DB	00H
	DB	00H
	DB	00H
	DB	00H
	DB	00H
	DB	00H
	DB	00H
	DB	00H
	DB	00H
	DB	00H
	DB	00H
	DB	00H
	DB	00H
	DB	00H
	DB	00H
	DB	00H
	DB	00H
	DB	00H
	DB	00H
	DB	00H
	DB	00H
	DB	00H
	DB	00H
	DB	00H
	DB	00H
	DB	00H
	DB	00H
	DB	00H
	DB	00H
	DB	00H
	DB	00H
	DB	00H
	DB	00H
	DB	00H
	DB	00H
	DB	00H
	DB	00H
	DB	00H
	DB	00H
	DB	00H
	DB	00H
	DB	00H
	DB	00H
	DB	00H
	DB	00H
	DB	00H
	DB	00H
	DB	00H
	DB	00H
	DB	00H
	DB	00H
	DB	00H
	DB	00H
	DB	00H
	DB	00H
	DB	00H
	DB	00H
	DB	00H
	DB	00H
	DB	00H
	DB	00H
	DB	00H
	DB	00H
	DB	00H
	DB	00H
	DB	00H
	DB	00H
	DB	00H
	DB	00H
	DB	00H
	DB	00H
	DB	00H
	DB	00H
	DB	00H
	DB	00H
	DB	00H
	DB	00H
	DB	00H
	DB	00H
	DB	00H
	DB	00H
	DB	00H
	DB	00H
	DB	00H
	DB	00H
	DB	00H
	DB	00H
	DB	00H
	DB	00H
	DB	00H
	DB	00H
	DB	00H
	DB	00H
	DB	00H
	DB	00H
	DB	00H
	DB	00H
	DB	00H
	DB	00H
	DB	00H
	DB	00H
	DB	00H
	DB	00H
	DB	020H
	DB	00H
	DB	01H
	DB	00H
	DB	00H
	DB	00H
	DB	021H
	DB	08H
	DB	021H
	DB	08H
	DB	020H
	DB	00H
	DB	021H
	DB	00H
	DB	021H
	DB	08H
	DB	021H
	DB	08H
	DB	021H
	DB	00H
	DB	021H
	DB	08H
	DB	041H
	DB	00H
	DB	041H
	DB	08H
	DB	041H
	DB	08H
	DB	041H
	DB	08H
	DB	042H
	DB	08H
	DB	042H
	DB	00H
	DB	042H
	DB	08H
	DB	041H
	DB	08H
	DB	042H
	DB	08H
	DB	062H
	DB	08H
	DB	062H
	DB	08H
	DB	062H
	DB	08H
	DB	062H
	DB	08H
	DB	062H
	DB	08H
	DB	062H
	DB	08H
	DB	062H
	DB	08H
	DB	062H
	DB	08H
	DB	082H
	DB	010H
	DB	063H
	DB	08H
	DB	083H
	DB	08H
	DB	082H
	DB	010H
	DB	083H
	DB	08H
	DB	083H
	DB	010H
	DB	082H
	DB	010H
	DB	083H
	DB	010H
	DB	083H
	DB	010H
	DB	083H
	DB	010H
	DB	083H
	DB	010H
	DB	0a3H
	DB	08H
	DB	083H
	DB	010H
	DB	0a3H
	DB	010H
	DB	0a3H
	DB	010H
	DB	0a3H
	DB	010H
	DB	084H
	DB	010H
	DB	0a4H
	DB	010H
	DB	0a3H
	DB	010H
	DB	0a4H
	DB	010H
	DB	0a4H
	DB	010H
	DB	0a4H
	DB	010H
	DB	0c4H
	DB	010H
	DB	0a4H
	DB	010H
	DB	0c4H
	DB	010H
	DB	0c4H
	DB	010H
	DB	0c4H
	DB	010H
	DB	0c4H
	DB	018H
	DB	0c4H
	DB	010H
	DB	0c4H
	DB	018H
	DB	0c4H
	DB	010H
	DB	0c5H
	DB	010H
	DB	0c4H
	DB	018H
	DB	0e5H
	DB	018H
	DB	0e5H
	DB	018H
	DB	0c5H
	DB	018H
	DB	0e5H
	DB	010H
	DB	0c5H
	DB	018H
	DB	0e5H
	DB	010H
	DB	0e5H
	DB	010H
	DB	0e5H
	DB	018H
	DB	0e5H
	DB	018H
	DB	0e5H
	DB	018H
	DB	0e5H
	DB	018H
	DB	0e5H
	DB	018H
	DB	05H
	DB	019H
	DB	05H
	DB	019H
	DB	0e5H
	DB	018H
	DB	05H
	DB	019H
	DB	06H
	DB	019H
	DB	0e5H
	DB	018H
	DB	06H
	DB	019H
	DB	05H
	DB	019H
	DB	05H
	DB	019H
	DB	06H
	DB	021H
	DB	06H
	DB	019H
	DB	06H
	DB	019H
	DB	06H
	DB	019H
	DB	06H
	DB	019H
	DB	06H
	DB	021H
	DB	06H
	DB	019H
	DB	026H
	DB	021H
	DB	06H
	DB	019H
	DB	026H
	DB	021H
	DB	06H
	DB	021H
	DB	026H
	DB	019H
	DB	06H
	DB	021H
	DB	026H
	DB	021H
	DB	026H
	DB	019H
	DB	026H
	DB	021H
	DB	026H
	DB	021H
	DB	027H
	DB	019H
	DB	026H
	DB	019H
	DB	027H
	DB	021H
	DB	027H
	DB	021H
	DB	026H
	DB	021H
	DB	027H
	DB	021H
	DB	027H
	DB	021H
	DB	026H
	DB	021H
	DB	027H
	DB	021H
	DB	027H
	DB	021H
	DB	047H
	DB	021H
	DB	046H
	DB	021H
	DB	047H
	DB	021H
	DB	047H
	DB	021H
	DB	047H
	DB	021H
	DB	027H
	DB	021H
	DB	027H
	DB	021H
	DB	047H
	DB	021H
	DB	047H
	DB	021H
	DB	047H
	DB	021H
	DB	047H
	DB	021H
	DB	047H
	DB	021H
	DB	047H
	DB	021H
	DB	047H
	DB	021H
	DB	047H
	DB	021H
	DB	047H
	DB	021H
	DB	047H
	DB	021H
	DB	047H
	DB	021H
	DB	047H
	DB	021H
	DB	047H
	DB	021H
	DB	047H
	DB	021H
	DB	047H
	DB	021H
	DB	047H
	DB	021H
	DB	047H
	DB	021H
	DB	067H
	DB	021H
	DB	048H
	DB	021H
	DB	067H
	DB	029H
	DB	068H
	DB	021H
	DB	047H
	DB	021H
	DB	048H
	DB	029H
	DB	068H
	DB	021H
	DB	067H
	DB	029H
	DB	048H
	DB	021H
	DB	067H
	DB	021H
	DB	068H
	DB	029H
	DB	068H
	DB	021H
	DB	047H
	DB	029H
	DB	068H
	DB	021H
	DB	047H
	DB	021H
	DB	068H
	DB	029H
	DB	068H
	DB	029H
	DB	047H
	DB	021H
	DB	068H
	DB	021H
	DB	068H
	DB	021H
	DB	048H
	DB	029H
	DB	067H
	DB	021H
	DB	068H
	DB	021H
	DB	067H
	DB	029H
	DB	068H
	DB	021H
	DB	048H
	DB	029H
	DB	068H
	DB	021H
	DB	068H
	DB	021H
	DB	067H
	DB	029H
	DB	068H
	DB	021H
	DB	067H
	DB	021H
	DB	068H
	DB	029H
	DB	048H
	DB	029H
	DB	048H
	DB	021H
	DB	068H
	DB	029H
	DB	067H
	DB	029H
	DB	048H
	DB	029H
	DB	067H
	DB	021H
	DB	068H
	DB	021H
	DB	048H
	DB	029H
	DB	067H
	DB	029H
	DB	068H
	DB	021H
	DB	048H
	DB	021H
	DB	067H
	DB	029H
	DB	068H
	DB	021H
	DB	048H
	DB	029H
	DB	048H
	DB	029H
	DB	068H
	DB	021H
	DB	067H
	DB	021H
	DB	068H
	DB	029H
	DB	067H
	DB	021H
	DB	047H
	DB	021H
	DB	067H
	DB	021H
	DB	067H
	DB	021H
	DB	047H
	DB	021H
	DB	067H
	DB	021H
	DB	047H
	DB	021H
	DB	067H
	DB	021H
	DB	047H
	DB	021H
	DB	047H
	DB	021H
	DB	047H
	DB	021H
	DB	047H
	DB	021H
	DB	047H
	DB	021H
	DB	047H
	DB	021H
	DB	047H
	DB	021H
	DB	047H
	DB	021H
	DB	047H
	DB	021H
	DB	047H
	DB	021H
	DB	047H
	DB	021H
	DB	047H
	DB	021H
	DB	047H
	DB	021H
	DB	047H
	DB	021H
	DB	047H
	DB	021H
	DB	047H
	DB	021H
	DB	047H
	DB	021H
	DB	047H
	DB	021H
	DB	047H
	DB	021H
	DB	047H
	DB	021H
	DB	046H
	DB	021H
	DB	027H
	DB	021H
	DB	027H
	DB	021H
	DB	026H
	DB	021H
	DB	027H
	DB	021H
	DB	027H
	DB	021H
	DB	026H
	DB	019H
	DB	027H
	DB	019H
	DB	027H
	DB	021H
	DB	026H
	DB	021H
	DB	027H
	DB	021H
	DB	026H
	DB	021H
	DB	026H
	DB	021H
	DB	026H
	DB	019H
	DB	026H
	DB	021H
	DB	026H
	DB	021H
	DB	06H
	DB	019H
	DB	06H
	DB	019H
	DB	026H
	DB	021H
	DB	026H
	DB	019H
	DB	06H
	DB	019H
	DB	06H
	DB	021H
	DB	06H
	DB	019H
	DB	06H
	DB	021H
	DB	06H
	DB	019H
	DB	06H
	DB	019H
	DB	06H
	DB	019H
	DB	0e5H
	DB	018H
	DB	06H
	DB	019H
	DB	06H
	DB	019H
	DB	05H
	DB	019H
	DB	05H
	DB	019H
	DB	06H
	DB	019H
	DB	05H
	DB	019H
	DB	0e5H
	DB	018H
	DB	0e5H
	DB	018H
	DB	0e5H
	DB	018H
	DB	0e5H
	DB	018H
	DB	0e5H
	DB	018H
	DB	0e5H
	DB	018H
	DB	0e5H
	DB	018H
	DB	0e5H
	DB	018H
	DB	0e5H
	DB	018H
	DB	0e5H
	DB	018H
	DB	0c5H
	DB	018H
	DB	0e4H
	DB	010H
	DB	0e4H
	DB	018H
	DB	0c5H
	DB	018H
	DB	0c5H
	DB	018H
	DB	0c4H
	DB	018H
	DB	0c4H
	DB	018H
	DB	0c4H
	DB	010H
	DB	0c4H
	DB	010H
	DB	0c4H
	DB	018H
	DB	0c4H
	DB	010H
	DB	0c4H
	DB	010H
	DB	0a4H
	DB	010H
	DB	0a4H
	DB	010H
	DB	0a4H
	DB	010H
	DB	0a4H
	DB	010H
	DB	0a4H
	DB	010H
	DB	0a3H
	DB	010H
	DB	0a4H
	DB	010H
	DB	0a3H
	DB	010H
	DB	0a4H
	DB	010H
	DB	0a3H
	DB	010H
	DB	0a3H
	DB	010H
	DB	0a3H
	DB	010H
	DB	083H
	DB	010H
	DB	0a3H
	DB	010H
	DB	083H
	DB	010H
	DB	083H
	DB	010H
	DB	083H
	DB	010H
	DB	083H
	DB	08H
	DB	083H
	DB	010H
	DB	083H
	DB	010H
	DB	083H
	DB	08H
	DB	082H
	DB	010H
	DB	063H
	DB	08H
	DB	083H
	DB	08H
	DB	063H
	DB	010H
	DB	062H
	DB	08H
	DB	062H
	DB	08H
	DB	062H
	DB	010H
	DB	062H
	DB	08H
	DB	062H
	DB	08H
	DB	062H
	DB	08H
	DB	042H
	DB	08H
	DB	062H
	DB	08H
	DB	062H
	DB	08H
	DB	042H
	DB	08H
	DB	042H
	DB	08H
	DB	041H
	DB	08H
	DB	041H
	DB	08H
	DB	041H
	DB	08H
	DB	041H
	DB	08H
	DB	021H
	DB	08H
	DB	041H
	DB	08H
	DB	021H
	DB	08H
	DB	021H
	DB	00H
	DB	020H
	DB	08H
	DB	021H
	DB	08H
	DB	021H
	DB	08H
	DB	020H
	DB	08H
	DB	01H
	DB	00H
	DB	01H
	DB	08H
	DB	020H
	DB	00H
	DB	00H
	DB	00H
	DB	00H
	DB	00H
	DB	00H
	DB	00H
	DB	00H
	DB	00H
	DB	00H
	DB	00H
	DB	00H
	DB	00H
	DB	00H
	DB	00H
	DB	00H
	DB	00H
	DB	00H
	DB	00H
	DB	00H
	DB	00H
	DB	00H
	DB	00H
	DB	00H
	DB	00H
	DB	00H
	DB	00H
	DB	00H
	DB	00H
	DB	00H
	DB	00H
	DB	00H
	DB	00H
	DB	00H
	DB	00H
	DB	00H
	DB	00H
	DB	00H
	DB	00H
	DB	00H
	DB	00H
	DB	00H
	DB	00H
	DB	00H
	DB	00H
	DB	00H
	DB	00H
	DB	00H
	DB	00H
	DB	00H
	DB	00H
	DB	00H
	DB	00H
	DB	00H
	DB	00H
	DB	00H
	DB	00H
	DB	00H
	DB	00H
	DB	00H
	DB	00H
	DB	00H
	DB	00H
	DB	00H
	DB	00H
	DB	00H
	DB	00H
	DB	00H
	DB	00H
	DB	00H
	DB	00H
	DB	00H
	DB	00H
	DB	00H
	DB	00H
	DB	00H
	DB	00H
	DB	00H
	DB	00H
	DB	00H
	DB	00H
	DB	00H
	DB	00H
	DB	00H
	DB	00H
	DB	00H
	DB	00H
	DB	00H
	DB	00H
	DB	00H
	DB	00H
	DB	00H
	DB	00H
	DB	00H
	DB	00H
	DB	00H
	DB	00H
	DB	00H
	DB	00H
	DB	00H
	DB	00H
	DB	00H
	DB	00H
	DB	00H
	DB	00H
	DB	00H
	DB	00H
	DB	00H
	DB	00H
	DB	00H
	DB	00H
	DB	00H
	DB	00H
	DB	00H
	DB	00H
	DB	00H
	DB	00H
	DB	00H
	DB	00H
	DB	00H
	DB	00H
	DB	00H
	DB	00H
	DB	00H
	DB	00H
	DB	00H
	DB	00H
	DB	00H
	DB	00H
	DB	00H
	DB	00H
	DB	00H
	DB	00H
	DB	00H
	DB	00H
	DB	00H
	DB	00H
	DB	00H
	DB	00H
	DB	00H
	DB	00H
	DB	00H
	DB	00H
	DB	00H
	DB	00H
	DB	020H
	DB	00H
	DB	01H
	DB	00H
	DB	020H
	DB	08H
	DB	021H
	DB	00H
	DB	021H
	DB	00H
	DB	021H
	DB	00H
	DB	020H
	DB	08H
	DB	041H
	DB	08H
	DB	021H
	DB	00H
	DB	041H
	DB	00H
	DB	041H
	DB	08H
	DB	041H
	DB	08H
	DB	041H
	DB	00H
	DB	021H
	DB	00H
	DB	042H
	DB	08H
	DB	041H
	DB	08H
	DB	041H
	DB	08H
	DB	042H
	DB	08H
	DB	062H
	DB	08H
	DB	042H
	DB	08H
	DB	062H
	DB	08H
	DB	062H
	DB	08H
	DB	062H
	DB	08H
	DB	062H
	DB	08H
	DB	062H
	DB	08H
	DB	062H
	DB	08H
	DB	062H
	DB	010H
	DB	063H
	DB	010H
	DB	083H
	DB	08H
	DB	063H
	DB	08H
	DB	063H
	DB	010H
	DB	083H
	DB	010H
	DB	083H
	DB	08H
	DB	063H
	DB	08H
	DB	083H
	DB	010H
	DB	083H
	DB	08H
	DB	083H
	DB	08H
	DB	083H
	DB	010H
	DB	083H
	DB	010H
	DB	0a3H
	DB	010H
	DB	0a3H
	DB	010H
	DB	084H
	DB	010H
	DB	0a4H
	DB	010H
	DB	0a3H
	DB	010H
	DB	0a4H
	DB	010H
	DB	0a3H
	DB	010H
	DB	0a4H
	DB	010H
	DB	0c4H
	DB	010H
	DB	0c4H
	DB	010H
	DB	0a4H
	DB	010H
	DB	0c4H
	DB	010H
	DB	0c4H
	DB	018H
	DB	0c4H
	DB	018H
	DB	0c4H
	DB	010H
	DB	0c4H
	DB	018H
	DB	0c4H
	DB	010H
	DB	0c4H
	DB	018H
	DB	0c5H
	DB	018H
	DB	0c5H
	DB	018H
	DB	0e4H
	DB	010H
	DB	0e5H
	DB	018H
	DB	0e5H
	DB	018H
	DB	0e4H
	DB	010H
	DB	0e5H
	DB	018H
	DB	0e5H
	DB	018H
	DB	0e5H
	DB	018H
	DB	0e5H
	DB	018H
	DB	0e5H
	DB	018H
	DB	0e5H
	DB	018H
	DB	0e5H
	DB	018H
	DB	0e5H
	DB	018H
	DB	0e5H
	DB	018H
	DB	05H
	DB	019H
	DB	05H
	DB	019H
	DB	0e5H
	DB	018H
	DB	06H
	DB	019H
	DB	06H
	DB	019H
	DB	05H
	DB	019H
	DB	06H
	DB	019H
	DB	06H
	DB	019H
	DB	06H
	DB	019H
	DB	06H
	DB	019H
	DB	06H
	DB	019H
	DB	05H
	DB	021H
	DB	06H
	DB	021H
	DB	06H
	DB	021H
	DB	026H
	DB	019H
	DB	06H
	DB	021H
	DB	026H
	DB	021H
	DB	026H
	DB	019H
	DB	026H
	DB	019H
	DB	026H
	DB	021H
	DB	026H
	DB	021H
	DB	026H
	DB	019H
	DB	026H
	DB	021H
	DB	026H
	DB	019H
	DB	027H
	DB	021H
	DB	026H
	DB	021H
	DB	027H
	DB	019H
	DB	027H
	DB	021H
	DB	026H
	DB	021H
	DB	027H
	DB	021H
	DB	027H
	DB	021H
	DB	047H
	DB	021H
	DB	027H
	DB	021H
	DB	047H
	DB	021H
	DB	047H
	DB	019H
	DB	047H
	DB	021H
	DB	047H
	DB	021H
	DB	027H
	DB	021H
	DB	047H
	DB	021H
	DB	047H
	DB	021H
	DB	047H
	DB	021H
	DB	047H
	DB	021H
	DB	047H
	DB	021H
	DB	047H
	DB	021H
	DB	047H
	DB	021H
	DB	047H
	DB	021H
	DB	047H
	DB	021H
	DB	047H
	DB	021H
	DB	047H
	DB	021H
	DB	047H
	DB	021H
	DB	047H
	DB	021H
	DB	047H
	DB	021H
	DB	047H
	DB	021H
	DB	048H
	DB	021H
	DB	047H
	DB	021H
	DB	047H
	DB	021H
	DB	048H
	DB	021H
	DB	067H
	DB	021H
	DB	068H
	DB	021H
	DB	068H
	DB	029H
	DB	067H
	DB	029H
	DB	068H
	DB	021H
	DB	048H
	DB	029H
	DB	047H
	DB	021H
	DB	068H
	DB	021H
	DB	068H
	DB	029H
	DB	068H
	DB	021H
	DB	067H
	DB	021H
	DB	068H
	DB	029H
	DB	067H
	DB	029H
	DB	068H
	DB	021H
	DB	068H
	DB	029H
	DB	048H
	DB	021H
	DB	067H
	DB	021H
	DB	068H
	DB	029H
	DB	068H
	DB	021H
	DB	067H
	DB	021H
	DB	068H
	DB	029H
	DB	067H
	DB	021H
	DB	068H
	DB	021H
	DB	068H
	DB	029H
	DB	068H
	DB	021H
	DB	047H
	DB	029H
	DB	068H
	DB	021H
	DB	048H
	DB	021H
	DB	067H
	DB	021H
	DB	068H
	DB	021H
	DB	068H
	DB	029H
	DB	067H
	DB	021H
	DB	068H
	DB	029H
	DB	068H
	DB	021H
	DB	068H
	DB	021H
	DB	067H
	DB	029H
	DB	068H
	DB	029H
	DB	068H
	DB	021H
	DB	068H
	DB	021H
	DB	068H
	DB	029H
	DB	067H
	DB	021H
	DB	068H
	DB	029H
	DB	068H
	DB	021H
	DB	067H
	DB	029H
	DB	068H
	DB	021H
	DB	068H
	DB	021H
	DB	067H
	DB	029H
	DB	068H
	DB	021H
	DB	068H
	DB	021H
	DB	067H
	DB	021H
	DB	068H
	DB	029H
	DB	047H
	DB	021H
	DB	068H
	DB	029H
	DB	068H
	DB	021H
	DB	048H
	DB	029H
	DB	068H
	DB	021H
	DB	048H
	DB	021H
	DB	048H
	DB	029H
	DB	067H
	DB	029H
	DB	048H
	DB	021H
	DB	068H
	DB	021H
	DB	047H
	DB	029H
	DB	047H
	DB	021H
	DB	048H
	DB	021H
	DB	047H
	DB	021H
	DB	047H
	DB	021H
	DB	047H
	DB	021H
	DB	047H
	DB	021H
	DB	047H
	DB	021H
	DB	047H
	DB	021H
	DB	047H
	DB	021H
	DB	047H
	DB	021H
	DB	047H
	DB	021H
	DB	047H
	DB	021H
	DB	047H
	DB	021H
	DB	047H
	DB	021H
	DB	047H
	DB	021H
	DB	027H
	DB	021H
	DB	047H
	DB	021H
	DB	027H
	DB	021H
	DB	047H
	DB	021H
	DB	027H
	DB	021H
	DB	047H
	DB	021H
	DB	047H
	DB	021H
	DB	047H
	DB	021H
	DB	047H
	DB	021H
	DB	026H
	DB	019H
	DB	047H
	DB	021H
	DB	027H
	DB	021H
	DB	027H
	DB	021H
	DB	026H
	DB	021H
	DB	027H
	DB	021H
	DB	027H
	DB	019H
	DB	026H
	DB	019H
	DB	026H
	DB	021H
	DB	027H
	DB	021H
	DB	026H
	DB	019H
	DB	026H
	DB	021H
	DB	026H
	DB	021H
	DB	026H
	DB	019H
	DB	06H
	DB	021H
	DB	026H
	DB	019H
	DB	06H
	DB	021H
	DB	026H
	DB	019H
	DB	026H
	DB	019H
	DB	06H
	DB	021H
	DB	06H
	DB	019H
	DB	06H
	DB	019H
	DB	05H
	DB	021H
	DB	06H
	DB	019H
	DB	06H
	DB	019H
	DB	05H
	DB	019H
	DB	06H
	DB	019H
	DB	05H
	DB	019H
	DB	06H
	DB	019H
	DB	05H
	DB	019H
	DB	0e5H
	DB	018H
	DB	05H
	DB	019H
	DB	0e5H
	DB	018H
	DB	0e5H
	DB	018H
	DB	0e5H
	DB	018H
	DB	0e5H
	DB	018H
	DB	0e5H
	DB	018H
	DB	0e5H
	DB	018H
	DB	0e5H
	DB	018H
	DB	0e4H
	DB	018H
	DB	0e5H
	DB	018H
	DB	0e5H
	DB	018H
	DB	0e5H
	DB	010H
	DB	0e5H
	DB	010H
	DB	0e5H
	DB	018H
	DB	0c4H
	DB	010H
	DB	0c5H
	DB	018H
	DB	0c5H
	DB	018H
	DB	0c4H
	DB	010H
	DB	0c4H
	DB	018H
	DB	0c4H
	DB	018H
	DB	0c4H
	DB	010H
	DB	0c4H
	DB	018H
	DB	0c4H
	DB	010H
	DB	0c4H
	DB	010H
	DB	0c4H
	DB	010H
	DB	0c4H
	DB	010H
	DB	0a4H
	DB	010H
	DB	0a3H
	DB	010H
	DB	0a4H
	DB	010H
	DB	0a4H
	DB	010H
	DB	0a4H
	DB	010H
	DB	0a4H
	DB	010H
	DB	0a4H
	DB	010H
	DB	0a3H
	DB	010H
	DB	0a3H
	DB	08H
	DB	0a3H
	DB	010H
	DB	083H
	DB	010H
	DB	083H
	DB	010H
	DB	083H
	DB	08H
	DB	083H
	DB	010H
	DB	083H
	DB	010H
	DB	083H
	DB	010H
	DB	082H
	DB	08H
	DB	082H
	DB	010H
	DB	063H
	DB	010H
	DB	082H
	DB	08H
	DB	062H
	DB	08H
	DB	063H
	DB	010H
	DB	062H
	DB	08H
	DB	062H
	DB	08H
	DB	062H
	DB	08H
	DB	062H
	DB	08H
	DB	062H
	DB	08H
	DB	061H
	DB	08H
	DB	042H
	DB	08H
	DB	042H
	DB	08H
	DB	061H
	DB	08H
	DB	042H
	DB	00H
	DB	042H
	DB	08H
	DB	041H
	DB	08H
	DB	041H
	DB	00H
	DB	041H
	DB	08H
	DB	041H
	DB	08H
	DB	021H
	DB	08H
	DB	021H
	DB	08H
	DB	021H
	DB	00H
	DB	021H
	DB	00H
	DB	021H
	DB	00H
	DB	020H
	DB	00H
	DB	021H
	DB	00H
	DB	021H
	DB	00H
	DB	01H
	DB	00H
	DB	020H
	DB	00H
	DB	00H
	DB	00H
	DB	00H
	DB	00H
	DB	00H
	DB	00H
	DB	00H
	DB	00H
	DB	00H
	DB	00H
	DB	00H
	DB	00H
	DB	00H
	DB	00H
	DB	00H
	DB	00H
	DB	00H
	DB	00H
	DB	00H
	DB	00H
	DB	00H
	DB	00H
	DB	00H
	DB	00H
	DB	00H
	DB	00H
	DB	00H
	DB	00H
	DB	00H
	DB	00H
	DB	00H
	DB	00H
	DB	00H
	DB	00H
	DB	00H
	DB	00H
	DB	00H
	DB	00H
	DB	00H
	DB	00H
	DB	00H
	DB	00H
	DB	00H
	DB	00H
	DB	00H
	DB	00H
	DB	00H
	DB	00H
	DB	00H
	DB	00H
	DB	00H
	DB	00H
	DB	00H
	DB	00H
	DB	00H
	DB	00H
	DB	00H
	DB	00H
	DB	00H
	DB	00H
	DB	00H
	DB	00H
	DB	00H
	DB	00H
	DB	00H
	DB	00H
	DB	00H
	DB	00H
	DB	00H
	DB	00H
	DB	00H
	DB	00H
	DB	00H
	DB	00H
	DB	00H
	DB	00H
	DB	00H
	DB	00H
	DB	00H
	DB	00H
	DB	00H
	DB	00H
	DB	00H
	DB	00H
	DB	00H
	DB	00H
	DB	00H
	DB	00H
	DB	00H
	DB	00H
	DB	00H
	DB	00H
	DB	00H
	DB	00H
	DB	00H
	DB	00H
	DB	00H
	DB	00H
	DB	00H
	DB	00H
	DB	00H
	DB	00H
	DB	00H
	DB	00H
	DB	00H
	DB	00H
	DB	00H
	DB	00H
	DB	00H
	DB	00H
	DB	00H
	DB	00H
	DB	00H
	DB	00H
	DB	00H
	DB	00H
	DB	00H
	DB	00H
	DB	00H
	DB	00H
	DB	00H
	DB	00H
	DB	00H
	DB	00H
	DB	00H
	DB	00H
	DB	00H
	DB	00H
	DB	00H
	DB	00H
	DB	00H
	DB	00H
	DB	00H
	DB	00H
	DB	00H
	DB	00H
	DB	00H
	DB	00H
	DB	00H
	DB	00H
	DB	00H
	DB	00H
	DB	021H
	DB	00H
	DB	021H
	DB	08H
	DB	020H
	DB	00H
	DB	021H
	DB	00H
	DB	020H
	DB	08H
	DB	021H
	DB	00H
	DB	021H
	DB	08H
	DB	021H
	DB	08H
	DB	021H
	DB	00H
	DB	021H
	DB	08H
	DB	041H
	DB	08H
	DB	041H
	DB	08H
	DB	041H
	DB	08H
	DB	042H
	DB	08H
	DB	042H
	DB	08H
	DB	041H
	DB	08H
	DB	042H
	DB	08H
	DB	062H
	DB	08H
	DB	042H
	DB	08H
	DB	062H
	DB	08H
	DB	062H
	DB	08H
	DB	062H
	DB	08H
	DB	042H
	DB	08H
	DB	062H
	DB	08H
	DB	062H
	DB	010H
	DB	082H
	DB	010H
	DB	083H
	DB	08H
	DB	062H
	DB	08H
	DB	082H
	DB	010H
	DB	083H
	DB	010H
	DB	082H
	DB	010H
	DB	083H
	DB	08H
	DB	083H
	DB	010H
	DB	083H
	DB	010H
	DB	083H
	DB	010H
	DB	083H
	DB	010H
	DB	0a3H
	DB	010H
	DB	0a3H
	DB	010H
	DB	083H
	DB	010H
	DB	0a4H
	DB	010H
	DB	0a4H
	DB	010H
	DB	0a3H
	DB	010H
	DB	0a4H
	DB	010H
	DB	0a4H
	DB	010H
	DB	0a3H
	DB	010H
	DB	0a4H
	DB	010H
	DB	0a4H
	DB	010H
	DB	0a4H
	DB	010H
	DB	0c4H
	DB	010H
	DB	0a4H
	DB	018H
	DB	0c4H
	DB	010H
	DB	0c4H
	DB	018H
	DB	0a4H
	DB	010H
	DB	0c4H
	DB	010H
	DB	0c4H
	DB	018H
	DB	0c5H
	DB	018H
	DB	0c4H
	DB	010H
	DB	0e5H
	DB	018H
	DB	0c5H
	DB	018H
	DB	0c4H
	DB	018H
	DB	0e5H
	DB	018H
	DB	0c5H
	DB	018H
	DB	0e4H
	DB	018H
	DB	0e5H
	DB	018H
	DB	0e5H
	DB	018H
	DB	0e5H
	DB	018H
	DB	0e5H
	DB	018H
	DB	0e5H
	DB	018H
	DB	0e5H
	DB	018H
	DB	05H
	DB	019H
	DB	0e5H
	DB	018H
	DB	05H
	DB	019H
	DB	0e5H
	DB	018H
	DB	06H
	DB	019H
	DB	05H
	DB	019H
	DB	06H
	DB	019H
	DB	06H
	DB	019H
	DB	06H
	DB	019H
	DB	06H
	DB	019H
	DB	06H
	DB	019H
	DB	06H
	DB	021H
	DB	06H
	DB	021H
	DB	06H
	DB	019H
	DB	06H
	DB	019H
	DB	06H
	DB	021H
	DB	026H
	DB	019H
	DB	06H
	DB	019H
	DB	026H
	DB	021H
	DB	026H
	DB	021H
	DB	026H
	DB	021H
	DB	026H
	DB	021H
	DB	026H
	DB	021H
	DB	026H
	DB	019H
	DB	027H
	DB	021H
	DB	026H
	DB	021H
	DB	027H
	DB	021H
	DB	027H
	DB	021H
	DB	027H
	DB	021H
	DB	027H
	DB	021H
	DB	027H
	DB	021H
	DB	046H
	DB	021H
	DB	027H
	DB	019H
	DB	047H
	DB	021H
	DB	026H
	DB	021H
	DB	047H
	DB	021H
	DB	047H
	DB	021H
	DB	027H
	DB	021H
	DB	047H
	DB	021H
	DB	047H
	DB	021H
	DB	047H
	DB	021H
	DB	047H
	DB	021H
	DB	047H
	DB	021H
	DB	047H
	DB	021H
	DB	047H
	DB	021H
	DB	047H
	DB	021H
	DB	047H
	DB	021H
	DB	047H
	DB	021H
	DB	047H
	DB	021H
	DB	047H
	DB	021H
	DB	067H
	DB	021H
	DB	047H
	DB	021H
	DB	048H
	DB	021H
	DB	068H
	DB	021H
	DB	068H
	DB	021H
	DB	047H
	DB	021H
	DB	048H
	DB	021H
	DB	068H
	DB	021H
	DB	068H
	DB	021H
	DB	067H
	DB	029H
	DB	048H
	DB	029H
	DB	047H
	DB	021H
	DB	068H
	DB	021H
	DB	068H
	DB	021H
	DB	068H
	DB	021H
	DB	068H
	DB	029H
	DB	068H
	DB	021H
	DB	067H
	DB	029H
	DB	068H
	DB	021H
	DB	067H
	DB	021H
	DB	068H
	DB	029H
	DB	068H
	DB	021H
	DB	068H
	DB	029H
	DB	068H
	DB	029H
	DB	067H
	DB	021H
	DB	068H
	DB	029H
	DB	068H
	DB	021H
	DB	068H
	DB	021H
	DB	068H
	DB	029H
	DB	068H
	DB	021H
	DB	068H
	DB	029H
	DB	068H
	DB	029H
	DB	068H
	DB	029H
	DB	068H
	DB	021H
	DB	068H
	DB	029H
	DB	068H
	DB	029H
	DB	068H
	DB	029H
	DB	068H
	DB	029H
	DB	068H
	DB	029H
	DB	068H
	DB	029H
	DB	068H
	DB	021H
	DB	068H
	DB	029H
	DB	068H
	DB	021H
	DB	068H
	DB	029H
	DB	068H
	DB	029H
	DB	067H
	DB	021H
	DB	068H
	DB	029H
	DB	068H
	DB	029H
	DB	068H
	DB	021H
	DB	068H
	DB	021H
	DB	068H
	DB	021H
	DB	068H
	DB	021H
	DB	068H
	DB	029H
	DB	068H
	DB	021H
	DB	068H
	DB	021H
	DB	068H
	DB	029H
	DB	068H
	DB	029H
	DB	068H
	DB	021H
	DB	048H
	DB	029H
	DB	068H
	DB	029H
	DB	068H
	DB	021H
	DB	068H
	DB	029H
	DB	067H
	DB	021H
	DB	068H
	DB	021H
	DB	068H
	DB	029H
	DB	067H
	DB	029H
	DB	068H
	DB	021H
	DB	068H
	DB	021H
	DB	068H
	DB	029H
	DB	067H
	DB	021H
	DB	048H
	DB	021H
	DB	068H
	DB	029H
	DB	068H
	DB	021H
	DB	067H
	DB	029H
	DB	068H
	DB	029H
	DB	067H
	DB	021H
	DB	048H
	DB	021H
	DB	068H
	DB	021H
	DB	047H
	DB	021H
	DB	067H
	DB	021H
	DB	047H
	DB	021H
	DB	047H
	DB	021H
	DB	047H
	DB	021H
	DB	047H
	DB	021H
	DB	047H
	DB	021H
	DB	047H
	DB	021H
	DB	047H
	DB	021H
	DB	047H
	DB	021H
	DB	047H
	DB	021H
	DB	047H
	DB	021H
	DB	047H
	DB	021H
	DB	047H
	DB	021H
	DB	047H
	DB	021H
	DB	047H
	DB	021H
	DB	027H
	DB	021H
	DB	047H
	DB	021H
	DB	047H
	DB	021H
	DB	027H
	DB	021H
	DB	046H
	DB	021H
	DB	026H
	DB	021H
	DB	047H
	DB	021H
	DB	027H
	DB	021H
	DB	026H
	DB	021H
	DB	027H
	DB	021H
	DB	027H
	DB	021H
	DB	026H
	DB	021H
	DB	027H
	DB	021H
	DB	026H
	DB	019H
	DB	026H
	DB	021H
	DB	026H
	DB	021H
	DB	026H
	DB	021H
	DB	026H
	DB	019H
	DB	026H
	DB	021H
	DB	06H
	DB	021H
	DB	026H
	DB	019H
	DB	06H
	DB	021H
	DB	06H
	DB	019H
	DB	026H
	DB	021H
	DB	06H
	DB	021H
	DB	06H
	DB	021H
	DB	06H
	DB	019H
	DB	05H
	DB	019H
	DB	06H
	DB	019H
	DB	06H
	DB	021H
	DB	06H
	DB	019H
	DB	06H
	DB	019H
	DB	05H
	DB	019H
	DB	06H
	DB	019H
	DB	05H
	DB	019H
	DB	05H
	DB	019H
	DB	05H
	DB	019H
	DB	0e5H
	DB	018H
	DB	0e5H
	DB	018H
	DB	0e5H
	DB	018H
	DB	0e5H
	DB	010H
	DB	0e5H
	DB	018H
	DB	0e5H
	DB	018H
	DB	0e5H
	DB	018H
	DB	0e5H
	DB	010H
	DB	0e4H
	DB	018H
	DB	0c5H
	DB	018H
	DB	0e5H
	DB	010H
	DB	0e5H
	DB	018H
	DB	0c4H
	DB	018H
	DB	0c5H
	DB	010H
	DB	0c4H
	DB	010H
	DB	0c5H
	DB	018H
	DB	0c4H
	DB	018H
	DB	0c4H
	DB	018H
	DB	0c4H
	DB	018H
	DB	0a4H
	DB	010H
	DB	0c4H
	DB	018H
	DB	0c4H
	DB	010H
	DB	0a4H
	DB	010H
	DB	0c4H
	DB	010H
	DB	0a4H
	DB	010H
	DB	0a4H
	DB	010H
	DB	0a3H
	DB	010H
	DB	0a4H
	DB	010H
	DB	0a4H
	DB	010H
	DB	083H
	DB	010H
	DB	0a3H
	DB	010H
	DB	0a3H
	DB	08H
	DB	083H
	DB	010H
	DB	0a3H
	DB	010H
	DB	083H
	DB	010H
	DB	083H
	DB	08H
	DB	083H
	DB	010H
	DB	083H
	DB	08H
	DB	083H
	DB	010H
	DB	083H
	DB	08H
	DB	083H
	DB	010H
	DB	082H
	DB	08H
	DB	082H
	DB	08H
	DB	063H
	DB	010H
	DB	062H
	DB	08H
	DB	062H
	DB	08H
	DB	062H
	DB	010H
	DB	062H
	DB	08H
	DB	062H
	DB	08H
	DB	062H
	DB	08H
	DB	042H
	DB	08H
	DB	042H
	DB	08H
	DB	062H
	DB	08H
	DB	041H
	DB	08H
	DB	042H
	DB	08H
	DB	042H
	DB	08H
	DB	041H
	DB	08H
	DB	042H
	DB	00H
	DB	041H
	DB	08H
	DB	041H
	DB	00H
	DB	041H
	DB	08H
	DB	041H
	DB	08H
	DB	021H
	DB	08H
	DB	021H
	DB	00H
	DB	021H
	DB	08H
	DB	020H
	DB	08H
	DB	021H
	DB	00H
	DB	021H
	DB	08H
	DB	021H
	DB	00H
	DB	021H
	DB	00H
	DB	020H
	DB	00H
	DB	00H
	DB	00H
	DB	00H
	DB	00H
	DB	00H
	DB	00H
	DB	00H
	DB	00H
	DB	00H
	DB	00H
	DB	00H
	DB	00H
	DB	00H
	DB	00H
	DB	00H
	DB	00H
	DB	00H
	DB	00H
	DB	00H
	DB	00H
	DB	00H
	DB	00H
	DB	00H
	DB	00H
	DB	00H
	DB	00H
	DB	00H
	DB	00H
	DB	00H
	DB	00H
	DB	00H
	DB	00H
	DB	00H
	DB	00H
	DB	00H
	DB	00H
	DB	00H
	DB	00H
	DB	00H
	DB	00H
	DB	00H
	DB	00H
	DB	00H
	DB	00H
	DB	00H
	DB	00H
	DB	00H
	DB	00H
	DB	00H
	DB	00H
	DB	00H
	DB	00H
	DB	00H
	DB	00H
	DB	00H
	DB	00H
	DB	00H
	DB	00H
	DB	00H
	DB	00H
	DB	00H
	DB	00H
	DB	00H
	DB	00H
	DB	00H
	DB	00H
	DB	00H
	DB	00H
	DB	00H
	DB	00H
	DB	00H
	DB	00H
	DB	00H
	DB	00H
	DB	00H
	DB	00H
	DB	00H
	DB	00H
	DB	00H
	DB	00H
	DB	00H
	DB	00H
	DB	00H
	DB	00H
	DB	00H
	DB	00H
	DB	00H
	DB	00H
	DB	00H
	DB	00H
	DB	00H
	DB	00H
	DB	00H
	DB	00H
	DB	00H
	DB	00H
	DB	00H
	DB	00H
	DB	00H
	DB	00H
	DB	00H
	DB	00H
	DB	00H
	DB	00H
	DB	00H
	DB	00H
	DB	00H
	DB	00H
	DB	00H
	DB	00H
	DB	00H
	DB	00H
	DB	00H
	DB	00H
	DB	00H
	DB	00H
	DB	00H
	DB	00H
	DB	00H
	DB	00H
	DB	00H
	DB	00H
	DB	00H
	DB	00H
	DB	00H
	DB	00H
	DB	00H
	DB	00H
	DB	00H
	DB	00H
	DB	00H
	DB	00H
	DB	020H
	DB	00H
	DB	021H
	DB	00H
	DB	00H
	DB	08H
	DB	01H
	DB	00H
	DB	020H
	DB	00H
	DB	021H
	DB	08H
	DB	021H
	DB	00H
	DB	021H
	DB	08H
	DB	021H
	DB	08H
	DB	021H
	DB	00H
	DB	041H
	DB	08H
	DB	041H
	DB	08H
	DB	041H
	DB	00H
	DB	041H
	DB	08H
	DB	041H
	DB	08H
	DB	042H
	DB	08H
	DB	042H
	DB	08H
	DB	042H
	DB	08H
	DB	062H
	DB	08H
	DB	042H
	DB	08H
	DB	062H
	DB	08H
	DB	062H
	DB	08H
	DB	062H
	DB	08H
	DB	062H
	DB	08H
	DB	062H
	DB	08H
	DB	062H
	DB	08H
	DB	062H
	DB	010H
	DB	083H
	DB	010H
	DB	063H
	DB	08H
	DB	063H
	DB	08H
	DB	083H
	DB	010H
	DB	083H
	DB	08H
	DB	083H
	DB	010H
	DB	083H
	DB	010H
	DB	083H
	DB	08H
	DB	083H
	DB	010H
	DB	083H
	DB	010H
	DB	0a3H
	DB	010H
	DB	083H
	DB	010H
	DB	0a3H
	DB	010H
	DB	0a3H
	DB	010H
	DB	0a3H
	DB	010H
	DB	0a4H
	DB	010H
	DB	0a3H
	DB	010H
	DB	0a3H
	DB	010H
	DB	0a4H
	DB	010H
	DB	0c4H
	DB	010H
	DB	0c4H
	DB	010H
	DB	0c4H
	DB	010H
	DB	0c4H
	DB	010H
	DB	0a4H
	DB	010H
	DB	0c4H
	DB	018H
	DB	0c4H
	DB	010H
	DB	0c4H
	DB	010H
	DB	0c4H
	DB	010H
	DB	0c4H
	DB	018H
	DB	0c5H
	DB	018H
	DB	0c4H
	DB	010H
	DB	0c5H
	DB	018H
	DB	0c5H
	DB	010H
	DB	0e4H
	DB	018H
	DB	0e5H
	DB	010H
	DB	0e5H
	DB	018H
	DB	0e5H
	DB	010H
	DB	0e5H
	DB	018H
	DB	0e5H
	DB	018H
	DB	0e5H
	DB	018H
	DB	0e5H
	DB	018H
	DB	0e5H
	DB	018H
	DB	0e5H
	DB	018H
	DB	0e5H
	DB	018H
	DB	0e5H
	DB	018H
	DB	05H
	DB	019H
	DB	05H
	DB	019H
	DB	06H
	DB	019H
	DB	06H
	DB	019H
	DB	05H
	DB	019H
	DB	06H
	DB	019H
	DB	06H
	DB	019H
	DB	06H
	DB	021H
	DB	05H
	DB	019H
	DB	06H
	DB	019H
	DB	06H
	DB	021H
	DB	025H
	DB	019H
	DB	026H
	DB	021H
	DB	026H
	DB	021H
	DB	026H
	DB	019H
	DB	026H
	DB	019H
	DB	026H
	DB	021H
	DB	026H
	DB	021H
	DB	026H
	DB	019H
	DB	026H
	DB	019H
	DB	06H
	DB	021H
	DB	027H
	DB	019H
	DB	026H
	DB	021H
	DB	027H
	DB	021H
	DB	027H
	DB	021H
	DB	027H
	DB	021H
	DB	026H
	DB	019H
	DB	027H
	DB	021H
	DB	046H
	DB	021H
	DB	046H
	DB	021H
	DB	027H
	DB	021H
	DB	047H
	DB	021H
	DB	047H
	DB	021H
	DB	047H
	DB	021H
	DB	047H
	DB	021H
	DB	047H
	DB	021H
	DB	047H
	DB	021H
	DB	047H
	DB	021H
	DB	047H
	DB	021H
	DB	047H
	DB	021H
	DB	047H
	DB	021H
	DB	047H
	DB	021H
	DB	047H
	DB	021H
	DB	047H
	DB	021H
	DB	047H
	DB	021H
	DB	047H
	DB	021H
	DB	067H
	DB	021H
	DB	047H
	DB	021H
	DB	067H
	DB	021H
	DB	048H
	DB	021H
	DB	067H
	DB	021H
	DB	068H
	DB	021H
	DB	047H
	DB	021H
	DB	068H
	DB	029H
	DB	067H
	DB	021H
	DB	068H
	DB	021H
	DB	067H
	DB	029H
	DB	068H
	DB	029H
	DB	067H
	DB	021H
	DB	068H
	DB	021H
	DB	068H
	DB	029H
	DB	067H
	DB	029H
	DB	068H
	DB	021H
	DB	068H
	DB	029H
	DB	067H
	DB	021H
	DB	068H
	DB	021H
	DB	068H
	DB	029H
	DB	068H
	DB	021H
	DB	068H
	DB	029H
	DB	068H
	DB	029H
	DB	068H
	DB	021H
	DB	068H
	DB	029H
	DB	068H
	DB	021H
	DB	068H
	DB	029H
	DB	067H
	DB	021H
	DB	068H
	DB	029H
	DB	068H
	DB	029H
	DB	068H
	DB	021H
	DB	068H
	DB	029H
	DB	068H
	DB	029H
	DB	068H
	DB	021H
	DB	068H
	DB	021H
	DB	068H
	DB	029H
	DB	068H
	DB	029H
	DB	068H
	DB	021H
	DB	068H
	DB	029H
	DB	068H
	DB	021H
	DB	068H
	DB	029H
	DB	068H
	DB	029H
	DB	068H
	DB	021H
	DB	068H
	DB	029H
	DB	068H
	DB	029H
	DB	068H
	DB	029H
	DB	068H
	DB	029H
	DB	068H
	DB	021H
	DB	068H
	DB	021H
	DB	068H
	DB	029H
	DB	068H
	DB	029H
	DB	067H
	DB	029H
	DB	068H
	DB	029H
	DB	068H
	DB	029H
	DB	068H
	DB	029H
	DB	068H
	DB	029H
	DB	068H
	DB	029H
	DB	068H
	DB	021H
	DB	068H
	DB	029H
	DB	068H
	DB	021H
	DB	067H
	DB	029H
	DB	068H
	DB	029H
	DB	068H
	DB	021H
	DB	068H
	DB	029H
	DB	068H
	DB	021H
	DB	068H
	DB	029H
	DB	068H
	DB	021H
	DB	067H
	DB	029H
	DB	068H
	DB	029H
	DB	067H
	DB	021H
	DB	068H
	DB	029H
	DB	067H
	DB	021H
	DB	068H
	DB	021H
	DB	067H
	DB	029H
	DB	068H
	DB	029H
	DB	068H
	DB	021H
	DB	068H
	DB	021H
	DB	067H
	DB	029H
	DB	068H
	DB	021H
	DB	067H
	DB	021H
	DB	067H
	DB	029H
	DB	048H
	DB	029H
	DB	068H
	DB	021H
	DB	068H
	DB	021H
	DB	047H
	DB	021H
	DB	048H
	DB	021H
	DB	048H
	DB	021H
	DB	047H
	DB	021H
	DB	047H
	DB	021H
	DB	047H
	DB	021H
	DB	047H
	DB	021H
	DB	047H
	DB	021H
	DB	047H
	DB	021H
	DB	047H
	DB	021H
	DB	047H
	DB	021H
	DB	047H
	DB	021H
	DB	047H
	DB	021H
	DB	047H
	DB	021H
	DB	047H
	DB	021H
	DB	047H
	DB	021H
	DB	047H
	DB	021H
	DB	047H
	DB	021H
	DB	027H
	DB	021H
	DB	047H
	DB	021H
	DB	047H
	DB	021H
	DB	027H
	DB	021H
	DB	046H
	DB	021H
	DB	026H
	DB	021H
	DB	027H
	DB	021H
	DB	027H
	DB	021H
	DB	027H
	DB	021H
	DB	027H
	DB	021H
	DB	027H
	DB	019H
	DB	026H
	DB	021H
	DB	026H
	DB	021H
	DB	026H
	DB	019H
	DB	026H
	DB	021H
	DB	026H
	DB	021H
	DB	06H
	DB	021H
	DB	026H
	DB	019H
	DB	026H
	DB	019H
	DB	026H
	DB	019H
	DB	026H
	DB	021H
	DB	06H
	DB	021H
	DB	06H
	DB	019H
	DB	06H
	DB	021H
	DB	06H
	DB	019H
	DB	06H
	DB	019H
	DB	06H
	DB	019H
	DB	05H
	DB	019H
	DB	06H
	DB	019H
	DB	06H
	DB	019H
	DB	06H
	DB	019H
	DB	05H
	DB	019H
	DB	05H
	DB	019H
	DB	05H
	DB	019H
	DB	0e5H
	DB	018H
	DB	0e5H
	DB	018H
	DB	0e5H
	DB	018H
	DB	0e5H
	DB	018H
	DB	0e5H
	DB	018H
	DB	0e5H
	DB	018H
	DB	0e5H
	DB	018H
	DB	0e5H
	DB	018H
	DB	0e5H
	DB	018H
	DB	0c5H
	DB	018H
	DB	0e4H
	DB	018H
	DB	0e5H
	DB	018H
	DB	0c5H
	DB	010H
	DB	0e4H
	DB	010H
	DB	0c4H
	DB	018H
	DB	0c4H
	DB	010H
	DB	0c4H
	DB	010H
	DB	0c4H
	DB	018H
	DB	0c4H
	DB	010H
	DB	0c4H
	DB	018H
	DB	0c4H
	DB	010H
	DB	0c4H
	DB	010H
	DB	0a4H
	DB	010H
	DB	0c3H
	DB	010H
	DB	0a4H
	DB	010H
	DB	0a3H
	DB	010H
	DB	0a4H
	DB	010H
	DB	0a4H
	DB	010H
	DB	0a4H
	DB	010H
	DB	0a3H
	DB	010H
	DB	0a3H
	DB	010H
	DB	0a3H
	DB	010H
	DB	0a3H
	DB	010H
	DB	083H
	DB	010H
	DB	083H
	DB	010H
	DB	083H
	DB	010H
	DB	083H
	DB	08H
	DB	083H
	DB	010H
	DB	083H
	DB	08H
	DB	083H
	DB	010H
	DB	082H
	DB	010H
	DB	083H
	DB	08H
	DB	082H
	DB	08H
	DB	062H
	DB	010H
	DB	062H
	DB	08H
	DB	062H
	DB	08H
	DB	062H
	DB	08H
	DB	062H
	DB	08H
	DB	062H
	DB	08H
	DB	062H
	DB	08H
	DB	062H
	DB	08H
	DB	062H
	DB	08H
	DB	041H
	DB	08H
	DB	042H
	DB	08H
	DB	042H
	DB	08H
	DB	041H
	DB	08H
	DB	041H
	DB	08H
	DB	041H
	DB	08H
	DB	021H
	DB	00H
	DB	041H
	DB	08H
	DB	041H
	DB	00H
	DB	021H
	DB	08H
	DB	021H
	DB	08H
	DB	021H
	DB	08H
	DB	020H
	DB	00H
	DB	020H
	DB	08H
	DB	021H
	DB	08H
	DB	01H
	DB	00H
	DB	020H
	DB	00H
	DB	00H
	DB	08H
	DB	01H
	DB	00H
	DB	00H
	DB	00H
	DB	00H
	DB	00H
	DB	00H
	DB	00H
	DB	00H
	DB	00H
	DB	00H
	DB	00H
	DB	00H
	DB	00H
	DB	00H
	DB	00H
	DB	00H
	DB	00H
	DB	00H
	DB	00H
	DB	00H
	DB	00H
	DB	00H
	DB	00H
	DB	00H
	DB	00H
	DB	00H
	DB	00H
	DB	00H
	DB	00H
	DB	00H
	DB	00H
	DB	00H
	DB	00H
	DB	00H
	DB	00H
	DB	00H
	DB	00H
	DB	00H
	DB	00H
	DB	00H
	DB	00H
	DB	00H
	DB	00H
	DB	00H
	DB	00H
	DB	00H
	DB	00H
	DB	00H
	DB	00H
	DB	00H
	DB	00H
	DB	00H
	DB	00H
	DB	00H
	DB	00H
	DB	00H
	DB	00H
	DB	00H
	DB	00H
	DB	00H
	DB	00H
	DB	00H
	DB	00H
	DB	00H
	DB	00H
	DB	00H
	DB	00H
	DB	00H
	DB	00H
	DB	00H
	DB	00H
	DB	00H
	DB	00H
	DB	00H
	DB	00H
	DB	00H
	DB	00H
	DB	00H
	DB	00H
	DB	00H
	DB	00H
	DB	00H
	DB	00H
	DB	00H
	DB	00H
	DB	00H
	DB	00H
	DB	00H
	DB	00H
	DB	00H
	DB	00H
	DB	00H
	DB	00H
	DB	00H
	DB	00H
	DB	00H
	DB	00H
	DB	00H
	DB	00H
	DB	00H
	DB	00H
	DB	00H
	DB	00H
	DB	00H
	DB	00H
	DB	00H
	DB	00H
	DB	00H
	DB	00H
	DB	00H
	DB	00H
	DB	00H
	DB	00H
	DB	00H
	DB	00H
	DB	00H
	DB	00H
	DB	00H
	DB	00H
	DB	00H
	DB	00H
	DB	00H
	DB	00H
	DB	00H
	DB	00H
	DB	00H
	DB	00H
	DB	00H
	DB	00H
	DB	021H
	DB	00H
	DB	021H
	DB	00H
	DB	01H
	DB	00H
	DB	020H
	DB	00H
	DB	021H
	DB	08H
	DB	021H
	DB	08H
	DB	021H
	DB	00H
	DB	021H
	DB	00H
	DB	021H
	DB	08H
	DB	041H
	DB	00H
	DB	041H
	DB	08H
	DB	021H
	DB	08H
	DB	041H
	DB	08H
	DB	042H
	DB	00H
	DB	042H
	DB	08H
	DB	041H
	DB	08H
	DB	041H
	DB	08H
	DB	042H
	DB	08H
	DB	062H
	DB	08H
	DB	062H
	DB	08H
	DB	061H
	DB	08H
	DB	062H
	DB	08H
	DB	062H
	DB	08H
	DB	062H
	DB	08H
	DB	062H
	DB	08H
	DB	062H
	DB	08H
	DB	062H
	DB	010H
	DB	083H
	DB	08H
	DB	082H
	DB	08H
	DB	082H
	DB	010H
	DB	083H
	DB	010H
	DB	083H
	DB	08H
	DB	083H
	DB	08H
	DB	083H
	DB	010H
	DB	083H
	DB	010H
	DB	083H
	DB	010H
	DB	0a3H
	DB	010H
	DB	083H
	DB	010H
	DB	0a3H
	DB	010H
	DB	084H
	DB	010H
	DB	0a4H
	DB	010H
	DB	0a3H
	DB	010H
	DB	0a4H
	DB	010H
	DB	0a4H
	DB	010H
	DB	0a4H
	DB	010H
	DB	0a4H
	DB	010H
	DB	0a3H
	DB	010H
	DB	0a4H
	DB	010H
	DB	0c4H
	DB	018H
	DB	0c4H
	DB	010H
	DB	0c4H
	DB	018H
	DB	0c4H
	DB	010H
	DB	0c4H
	DB	010H
	DB	0c4H
	DB	018H
	DB	0c4H
	DB	018H
	DB	0e5H
	DB	018H
	DB	0c5H
	DB	010H
	DB	0c5H
	DB	018H
	DB	0e4H
	DB	018H
	DB	0e5H
	DB	018H
	DB	0e5H
	DB	018H
	DB	0e5H
	DB	018H
	DB	0e5H
	DB	018H
	DB	0e5H
	DB	018H
	DB	0e5H
	DB	018H
	DB	0e5H
	DB	018H
	DB	0e5H
	DB	018H
	DB	0e5H
	DB	018H
	DB	05H
	DB	019H
	DB	05H
	DB	019H
	DB	0e5H
	DB	018H
	DB	06H
	DB	019H
	DB	05H
	DB	019H
	DB	06H
	DB	019H
	DB	06H
	DB	019H
	DB	06H
	DB	019H
	DB	06H
	DB	019H
	DB	05H
	DB	021H
	DB	06H
	DB	021H
	DB	06H
	DB	019H
	DB	05H
	DB	019H
	DB	06H
	DB	021H
	DB	026H
	DB	019H
	DB	06H
	DB	021H
	DB	06H
	DB	019H
	DB	06H
	DB	021H
	DB	026H
	DB	021H
	DB	026H
	DB	021H
	DB	06H
	DB	021H
	DB	026H
	DB	021H
	DB	027H
	DB	021H
	DB	026H
	DB	021H
	DB	026H
	DB	021H
	DB	027H
	DB	021H
	DB	027H
	DB	019H
	DB	026H
	DB	021H
	DB	027H
	DB	021H
	DB	047H
	DB	021H
	DB	027H
	DB	021H
	DB	027H
	DB	021H
	DB	047H
	DB	021H
	DB	047H
	DB	019H
	DB	047H
	DB	021H
	DB	047H
	DB	021H
	DB	027H
	DB	021H
	DB	047H
	DB	021H
	DB	047H
	DB	021H
	DB	047H
	DB	021H
	DB	047H
	DB	021H
	DB	047H
	DB	021H
	DB	047H
	DB	021H
	DB	047H
	DB	021H
	DB	047H
	DB	021H
	DB	047H
	DB	021H
	DB	047H
	DB	021H
	DB	047H
	DB	021H
	DB	047H
	DB	021H
	DB	067H
	DB	021H
	DB	048H
	DB	021H
	DB	067H
	DB	029H
	DB	048H
	DB	021H
	DB	068H
	DB	029H
	DB	048H
	DB	029H
	DB	068H
	DB	021H
	DB	067H
	DB	029H
	DB	068H
	DB	021H
	DB	068H
	DB	029H
	DB	067H
	DB	021H
	DB	068H
	DB	029H
	DB	068H
	DB	029H
	DB	068H
	DB	021H
	DB	068H
	DB	021H
	DB	068H
	DB	029H
	DB	068H
	DB	021H
	DB	068H
	DB	029H
	DB	068H
	DB	029H
	DB	068H
	DB	029H
	DB	067H
	DB	029H
	DB	068H
	DB	021H
	DB	068H
	DB	029H
	DB	068H
	DB	021H
	DB	068H
	DB	029H
	DB	068H
	DB	029H
	DB	068H
	DB	021H
	DB	068H
	DB	029H
	DB	068H
	DB	021H
	DB	068H
	DB	029H
	DB	088H
	DB	029H
	DB	068H
	DB	029H
	DB	068H
	DB	029H
	DB	068H
	DB	029H
	DB	088H
	DB	029H
	DB	068H
	DB	021H
	DB	088H
	DB	029H
	DB	068H
	DB	029H
	DB	088H
	DB	021H
	DB	068H
	DB	029H
	DB	088H
	DB	029H
	DB	068H
	DB	029H
	DB	088H
	DB	021H
	DB	088H
	DB	021H
	DB	068H
	DB	029H
	DB	068H
	DB	029H
	DB	088H
	DB	021H
	DB	088H
	DB	021H
	DB	068H
	DB	029H
	DB	068H
	DB	029H
	DB	088H
	DB	029H
	DB	068H
	DB	029H
	DB	068H
	DB	021H
	DB	088H
	DB	021H
	DB	068H
	DB	029H
	DB	088H
	DB	029H
	DB	068H
	DB	029H
	DB	088H
	DB	021H
	DB	068H
	DB	021H
	DB	068H
	DB	029H
	DB	088H
	DB	029H
	DB	068H
	DB	029H
	DB	068H
	DB	021H
	DB	068H
	DB	029H
	DB	088H
	DB	029H
	DB	068H
	DB	021H
	DB	068H
	DB	029H
	DB	068H
	DB	021H
	DB	068H
	DB	029H
	DB	068H
	DB	021H
	DB	068H
	DB	021H
	DB	068H
	DB	029H
	DB	068H
	DB	029H
	DB	068H
	DB	029H
	DB	068H
	DB	021H
	DB	068H
	DB	029H
	DB	067H
	DB	021H
	DB	068H
	DB	029H
	DB	068H
	DB	021H
	DB	048H
	DB	029H
	DB	068H
	DB	029H
	DB	068H
	DB	021H
	DB	068H
	DB	029H
	DB	068H
	DB	021H
	DB	068H
	DB	029H
	DB	067H
	DB	029H
	DB	068H
	DB	029H
	DB	068H
	DB	021H
	DB	067H
	DB	029H
	DB	067H
	DB	021H
	DB	068H
	DB	021H
	DB	047H
	DB	021H
	DB	047H
	DB	021H
	DB	047H
	DB	021H
	DB	047H
	DB	021H
	DB	047H
	DB	021H
	DB	047H
	DB	021H
	DB	047H
	DB	021H
	DB	047H
	DB	021H
	DB	047H
	DB	021H
	DB	047H
	DB	021H
	DB	047H
	DB	021H
	DB	047H
	DB	021H
	DB	047H
	DB	021H
	DB	047H
	DB	021H
	DB	047H
	DB	021H
	DB	027H
	DB	021H
	DB	047H
	DB	021H
	DB	047H
	DB	019H
	DB	027H
	DB	019H
	DB	027H
	DB	021H
	DB	047H
	DB	021H
	DB	026H
	DB	021H
	DB	027H
	DB	019H
	DB	027H
	DB	021H
	DB	027H
	DB	021H
	DB	026H
	DB	021H
	DB	027H
	DB	021H
	DB	026H
	DB	019H
	DB	026H
	DB	021H
	DB	026H
	DB	019H
	DB	026H
	DB	021H
	DB	06H
	DB	021H
	DB	06H
	DB	019H
	DB	026H
	DB	019H
	DB	026H
	DB	021H
	DB	06H
	DB	021H
	DB	06H
	DB	019H
	DB	026H
	DB	019H
	DB	06H
	DB	021H
	DB	06H
	DB	019H
	DB	06H
	DB	019H
	DB	05H
	DB	021H
	DB	0e6H
	DB	018H
	DB	06H
	DB	019H
	DB	0e6H
	DB	018H
	DB	05H
	DB	019H
	DB	06H
	DB	019H
	DB	0e5H
	DB	018H
	DB	0e5H
	DB	018H
	DB	0e5H
	DB	018H
	DB	0e5H
	DB	018H
	DB	0e5H
	DB	018H
	DB	0e5H
	DB	018H
	DB	0e5H
	DB	018H
	DB	0e5H
	DB	018H
	DB	0e4H
	DB	010H
	DB	0e5H
	DB	018H
	DB	0e5H
	DB	018H
	DB	0c5H
	DB	018H
	DB	0e4H
	DB	018H
	DB	0c5H
	DB	018H
	DB	0c5H
	DB	010H
	DB	0c4H
	DB	010H
	DB	0c4H
	DB	018H
	DB	0c4H
	DB	010H
	DB	0c4H
	DB	010H
	DB	0c4H
	DB	018H
	DB	0a4H
	DB	018H
	DB	0c4H
	DB	010H
	DB	0c4H
	DB	018H
	DB	0a4H
	DB	010H
	DB	0a4H
	DB	010H
	DB	0c3H
	DB	010H
	DB	0a4H
	DB	010H
	DB	0a4H
	DB	010H
	DB	0a3H
	DB	010H
	DB	0a4H
	DB	010H
	DB	0a4H
	DB	010H
	DB	0a3H
	DB	010H
	DB	083H
	DB	010H
	DB	0a3H
	DB	08H
	DB	0a3H
	DB	010H
	DB	083H
	DB	010H
	DB	083H
	DB	010H
	DB	083H
	DB	010H
	DB	082H
	DB	010H
	DB	083H
	DB	08H
	DB	063H
	DB	010H
	DB	083H
	DB	010H
	DB	063H
	DB	08H
	DB	083H
	DB	010H
	DB	063H
	DB	08H
	DB	062H
	DB	010H
	DB	062H
	DB	08H
	DB	062H
	DB	08H
	DB	062H
	DB	08H
	DB	062H
	DB	08H
	DB	062H
	DB	08H
	DB	062H
	DB	08H
	DB	042H
	DB	08H
	DB	061H
	DB	08H
	DB	042H
	DB	08H
	DB	042H
	DB	08H
	DB	042H
	DB	08H
	DB	041H
	DB	08H
	DB	041H
	DB	08H
	DB	041H
	DB	08H
	DB	021H
	DB	08H
	DB	021H
	DB	08H
	DB	021H
	DB	00H
	DB	021H
	DB	00H
	DB	021H
	DB	00H
	DB	021H
	DB	08H
	DB	021H
	DB	00H
	DB	020H
	DB	00H
	DB	020H
	DB	08H
	DB	021H
	DB	00H
	DB	020H
	DB	00H
	DB	00H
	DB	00H
	DB	00H
	DB	00H
	DB	00H
	DB	00H
	DB	00H
	DB	00H
	DB	00H
	DB	00H
	DB	00H
	DB	00H
	DB	00H
	DB	00H
	DB	00H
	DB	00H
	DB	00H
	DB	00H
	DB	00H
	DB	00H
	DB	00H
	DB	00H
	DB	00H
	DB	00H
	DB	00H
	DB	00H
	DB	00H
	DB	00H
	DB	00H
	DB	00H
	DB	00H
	DB	00H
	DB	00H
	DB	00H
	DB	00H
	DB	00H
	DB	00H
	DB	00H
	DB	00H
	DB	00H
	DB	00H
	DB	00H
	DB	00H
	DB	00H
	DB	00H
	DB	00H
	DB	00H
	DB	00H
	DB	00H
	DB	00H
	DB	00H
	DB	00H
	DB	00H
	DB	00H
	DB	00H
	DB	00H
	DB	00H
	DB	00H
	DB	00H
	DB	00H
	DB	00H
	DB	00H
	DB	00H
	DB	00H
	DB	00H
	DB	00H
	DB	00H
	DB	00H
	DB	00H
	DB	00H
	DB	00H
	DB	00H
	DB	00H
	DB	00H
	DB	00H
	DB	00H
	DB	00H
	DB	00H
	DB	00H
	DB	00H
	DB	00H
	DB	00H
	DB	00H
	DB	00H
	DB	00H
	DB	00H
	DB	00H
	DB	00H
	DB	00H
	DB	00H
	DB	00H
	DB	00H
	DB	00H
	DB	00H
	DB	00H
	DB	00H
	DB	00H
	DB	00H
	DB	00H
	DB	00H
	DB	00H
	DB	00H
	DB	00H
	DB	00H
	DB	00H
	DB	00H
	DB	00H
	DB	00H
	DB	00H
	DB	00H
	DB	00H
	DB	00H
	DB	00H
	DB	00H
	DB	00H
	DB	00H
	DB	00H
	DB	00H
	DB	00H
	DB	00H
	DB	00H
	DB	00H
	DB	00H
	DB	00H
	DB	021H
	DB	00H
	DB	020H
	DB	00H
	DB	020H
	DB	00H
	DB	020H
	DB	08H
	DB	021H
	DB	00H
	DB	021H
	DB	00H
	DB	021H
	DB	08H
	DB	021H
	DB	08H
	DB	021H
	DB	08H
	DB	041H
	DB	00H
	DB	041H
	DB	00H
	DB	041H
	DB	08H
	DB	041H
	DB	08H
	DB	041H
	DB	08H
	DB	042H
	DB	08H
	DB	041H
	DB	08H
	DB	042H
	DB	08H
	DB	042H
	DB	08H
	DB	062H
	DB	08H
	DB	062H
	DB	08H
	DB	061H
	DB	08H
	DB	062H
	DB	08H
	DB	042H
	DB	08H
	DB	062H
	DB	08H
	DB	062H
	DB	08H
	DB	062H
	DB	010H
	DB	063H
	DB	010H
	DB	083H
	DB	08H
	DB	083H
	DB	010H
	DB	082H
	DB	08H
	DB	083H
	DB	010H
	DB	083H
	DB	010H
	DB	083H
	DB	010H
	DB	083H
	DB	010H
	DB	083H
	DB	010H
	DB	083H
	DB	08H
	DB	083H
	DB	010H
	DB	0a3H
	DB	010H
	DB	0a3H
	DB	08H
	DB	0a3H
	DB	010H
	DB	0a4H
	DB	010H
	DB	0a3H
	DB	010H
	DB	0a4H
	DB	010H
	DB	0a3H
	DB	010H
	DB	0a4H
	DB	010H
	DB	0a4H
	DB	010H
	DB	0c4H
	DB	010H
	DB	0a4H
	DB	010H
	DB	0c4H
	DB	010H
	DB	0c4H
	DB	010H
	DB	0c4H
	DB	018H
	DB	0c4H
	DB	010H
	DB	0c4H
	DB	018H
	DB	0c4H
	DB	010H
	DB	0c4H
	DB	018H
	DB	0c5H
	DB	018H
	DB	0c5H
	DB	010H
	DB	0c4H
	DB	010H
	DB	0e5H
	DB	018H
	DB	0e4H
	DB	018H
	DB	0e5H
	DB	018H
	DB	0e5H
	DB	018H
	DB	0e5H
	DB	010H
	DB	0c5H
	DB	018H
	DB	0e5H
	DB	018H
	DB	0e5H
	DB	018H
	DB	0e5H
	DB	018H
	DB	0e5H
	DB	018H
	DB	0e5H
	DB	018H
	DB	0e5H
	DB	018H
	DB	05H
	DB	019H
	DB	05H
	DB	019H
	DB	06H
	DB	019H
	DB	06H
	DB	019H
	DB	05H
	DB	019H
	DB	06H
	DB	019H
	DB	05H
	DB	021H
	DB	06H
	DB	019H
	DB	06H
	DB	019H
	DB	06H
	DB	019H
	DB	06H
	DB	019H
	DB	06H
	DB	019H
	DB	026H
	DB	021H
	DB	026H
	DB	021H
	DB	06H
	DB	021H
	DB	026H
	DB	019H
	DB	026H
	DB	021H
	DB	026H
	DB	019H
	DB	026H
	DB	019H
	DB	027H
	DB	021H
	DB	026H
	DB	019H
	DB	026H
	DB	019H
	DB	027H
	DB	021H
	DB	027H
	DB	021H
	DB	027H
	DB	021H
	DB	027H
	DB	021H
	DB	047H
	DB	021H
	DB	027H
	DB	021H
	DB	046H
	DB	021H
	DB	047H
	DB	021H
	DB	027H
	DB	021H
	DB	047H
	DB	021H
	DB	047H
	DB	021H
	DB	047H
	DB	021H
	DB	047H
	DB	021H
	DB	047H
	DB	021H
	DB	047H
	DB	021H
	DB	047H
	DB	021H
	DB	047H
	DB	021H
	DB	047H
	DB	021H
	DB	047H
	DB	021H
	DB	047H
	DB	021H
	DB	047H
	DB	021H
	DB	047H
	DB	021H
	DB	047H
	DB	021H
	DB	068H
	DB	021H
	DB	048H
	DB	021H
	DB	068H
	DB	021H
	DB	068H
	DB	029H
	DB	068H
	DB	021H
	DB	067H
	DB	021H
	DB	068H
	DB	029H
	DB	068H
	DB	029H
	DB	068H
	DB	021H
	DB	068H
	DB	021H
	DB	068H
	DB	029H
	DB	068H
	DB	021H
	DB	067H
	DB	029H
	DB	048H
	DB	029H
	DB	068H
	DB	029H
	DB	068H
	DB	021H
	DB	068H
	DB	021H
	DB	068H
	DB	029H
	DB	068H
	DB	029H
	DB	068H
	DB	029H
	DB	068H
	DB	021H
	DB	068H
	DB	021H
	DB	068H
	DB	029H
	DB	068H
	DB	021H
	DB	068H
	DB	021H
	DB	068H
	DB	029H
	DB	088H
	DB	029H
	DB	068H
	DB	021H
	DB	068H
	DB	029H
	DB	068H
	DB	029H
	DB	068H
	DB	021H
	DB	088H
	DB	029H
	DB	088H
	DB	029H
	DB	068H
	DB	029H
	DB	088H
	DB	021H
	DB	088H
	DB	029H
	DB	088H
	DB	021H
	DB	068H
	DB	029H
	DB	088H
	DB	029H
	DB	088H
	DB	029H
	DB	068H
	DB	029H
	DB	088H
	DB	029H
	DB	068H
	DB	021H
	DB	088H
	DB	029H
	DB	088H
	DB	029H
	DB	088H
	DB	021H
	DB	068H
	DB	029H
	DB	088H
	DB	029H
	DB	088H
	DB	029H
	DB	088H
	DB	029H
	DB	088H
	DB	029H
	DB	068H
	DB	029H
	DB	088H
	DB	029H
	DB	088H
	DB	029H
	DB	068H
	DB	029H
	DB	088H
	DB	029H
	DB	088H
	DB	029H
	DB	088H
	DB	029H
	DB	068H
	DB	029H
	DB	088H
	DB	021H
	DB	088H
	DB	021H
	DB	068H
	DB	029H
	DB	088H
	DB	029H
	DB	068H
	DB	029H
	DB	088H
	DB	029H
	DB	088H
	DB	029H
	DB	068H
	DB	021H
	DB	088H
	DB	029H
	DB	068H
	DB	029H
	DB	068H
	DB	029H
	DB	068H
	DB	029H
	DB	068H
	DB	029H
	DB	068H
	DB	029H
	DB	068H
	DB	029H
	DB	088H
	DB	021H
	DB	068H
	DB	029H
	DB	068H
	DB	029H
	DB	068H
	DB	021H
	DB	068H
	DB	029H
	DB	068H
	DB	021H
	DB	068H
	DB	029H
	DB	068H
	DB	021H
	DB	068H
	DB	029H
	DB	068H
	DB	021H
	DB	068H
	DB	029H
	DB	068H
	DB	021H
	DB	068H
	DB	029H
	DB	067H
	DB	021H
	DB	048H
	DB	021H
	DB	068H
	DB	021H
	DB	068H
	DB	021H
	DB	068H
	DB	021H
	DB	067H
	DB	029H
	DB	068H
	DB	029H
	DB	068H
	DB	021H
	DB	068H
	DB	029H
	DB	068H
	DB	029H
	DB	068H
	DB	021H
	DB	067H
	DB	021H
	DB	068H
	DB	021H
	DB	047H
	DB	021H
	DB	047H
	DB	021H
	DB	047H
	DB	021H
	DB	047H
	DB	021H
	DB	047H
	DB	021H
	DB	047H
	DB	021H
	DB	047H
	DB	021H
	DB	047H
	DB	021H
	DB	047H
	DB	021H
	DB	047H
	DB	021H
	DB	047H
	DB	021H
	DB	027H
	DB	021H
	DB	047H
	DB	021H
	DB	047H
	DB	021H
	DB	027H
	DB	021H
	DB	046H
	DB	021H
	DB	047H
	DB	021H
	DB	026H
	DB	021H
	DB	026H
	DB	021H
	DB	047H
	DB	021H
	DB	027H
	DB	021H
	DB	027H
	DB	021H
	DB	027H
	DB	021H
	DB	026H
	DB	021H
	DB	027H
	DB	019H
	DB	026H
	DB	021H
	DB	026H
	DB	021H
	DB	026H
	DB	019H
	DB	026H
	DB	021H
	DB	026H
	DB	019H
	DB	06H
	DB	021H
	DB	026H
	DB	021H
	DB	06H
	DB	019H
	DB	06H
	DB	021H
	DB	06H
	DB	019H
	DB	06H
	DB	019H
	DB	06H
	DB	019H
	DB	05H
	DB	021H
	DB	06H
	DB	019H
	DB	06H
	DB	019H
	DB	06H
	DB	019H
	DB	05H
	DB	019H
	DB	06H
	DB	019H
	DB	06H
	DB	019H
	DB	05H
	DB	019H
	DB	0e5H
	DB	018H
	DB	0e5H
	DB	018H
	DB	0e5H
	DB	018H
	DB	0e5H
	DB	018H
	DB	0e5H
	DB	018H
	DB	0e5H
	DB	018H
	DB	0e5H
	DB	018H
	DB	0e5H
	DB	010H
	DB	0e4H
	DB	018H
	DB	0e5H
	DB	018H
	DB	0c5H
	DB	010H
	DB	0e5H
	DB	018H
	DB	0e5H
	DB	018H
	DB	0c5H
	DB	018H
	DB	0c5H
	DB	010H
	DB	0c4H
	DB	018H
	DB	0c4H
	DB	018H
	DB	0c4H
	DB	010H
	DB	0c4H
	DB	010H
	DB	0c4H
	DB	018H
	DB	0c4H
	DB	010H
	DB	0a4H
	DB	010H
	DB	0c4H
	DB	010H
	DB	0a4H
	DB	010H
	DB	0a4H
	DB	010H
	DB	0a3H
	DB	010H
	DB	0a4H
	DB	010H
	DB	0a3H
	DB	010H
	DB	0a4H
	DB	010H
	DB	0a3H
	DB	010H
	DB	0a3H
	DB	010H
	DB	083H
	DB	08H
	DB	083H
	DB	010H
	DB	083H
	DB	010H
	DB	083H
	DB	010H
	DB	083H
	DB	08H
	DB	083H
	DB	010H
	DB	083H
	DB	08H
	DB	083H
	DB	08H
	DB	082H
	DB	010H
	DB	082H
	DB	08H
	DB	063H
	DB	010H
	DB	083H
	DB	08H
	DB	062H
	DB	010H
	DB	062H
	DB	08H
	DB	062H
	DB	08H
	DB	062H
	DB	08H
	DB	062H
	DB	08H
	DB	042H
	DB	08H
	DB	042H
	DB	08H
	DB	062H
	DB	08H
	DB	061H
	DB	08H
	DB	042H
	DB	08H
	DB	042H
	DB	08H
	DB	042H
	DB	08H
	DB	042H
	DB	00H
	DB	041H
	DB	08H
	DB	041H
	DB	08H
	DB	041H
	DB	00H
	DB	041H
	DB	08H
	DB	021H
	DB	08H
	DB	041H
	DB	00H
	DB	021H
	DB	08H
	DB	021H
	DB	00H
	DB	021H
	DB	08H
	DB	021H
	DB	00H
	DB	01H
	DB	00H
	DB	020H
	DB	08H
	DB	00H
	DB	00H
	DB	020H
	DB	00H
	DB	00H
	DB	00H
	DB	00H
	DB	00H
	DB	00H
	DB	00H
	DB	00H
	DB	00H
	DB	00H
	DB	00H
	DB	00H
	DB	00H
	DB	00H
	DB	00H
	DB	00H
	DB	00H
	DB	00H
	DB	00H
	DB	00H
	DB	00H
	DB	00H
	DB	00H
	DB	00H
	DB	00H
	DB	00H
	DB	00H
	DB	00H
	DB	00H
	DB	00H
	DB	00H
	DB	00H
	DB	00H
	DB	00H
	DB	00H
	DB	00H
	DB	00H
	DB	00H
	DB	00H
	DB	00H
	DB	00H
	DB	00H
	DB	00H
	DB	00H
	DB	00H
	DB	00H
	DB	00H
	DB	00H
	DB	00H
	DB	00H
	DB	00H
	DB	00H
	DB	00H
	DB	00H
	DB	00H
	DB	00H
	DB	00H
	DB	00H
	DB	00H
	DB	00H
	DB	00H
	DB	00H
	DB	00H
	DB	00H
	DB	00H
	DB	00H
	DB	00H
	DB	00H
	DB	00H
	DB	00H
	DB	00H
	DB	00H
	DB	00H
	DB	00H
	DB	00H
	DB	00H
	DB	00H
	DB	00H
	DB	00H
	DB	00H
	DB	00H
	DB	00H
	DB	00H
	DB	00H
	DB	00H
	DB	00H
	DB	00H
	DB	00H
	DB	00H
	DB	00H
	DB	00H
	DB	00H
	DB	00H
	DB	00H
	DB	00H
	DB	00H
	DB	00H
	DB	00H
	DB	00H
	DB	00H
	DB	00H
	DB	00H
	DB	00H
	DB	00H
	DB	00H
	DB	00H
	DB	00H
	DB	00H
	DB	00H
	DB	00H
	DB	00H
	DB	00H
	DB	00H
	DB	00H
	DB	00H
	DB	00H
	DB	00H
	DB	00H
	DB	00H
	DB	020H
	DB	00H
	DB	01H
	DB	00H
	DB	01H
	DB	00H
	DB	020H
	DB	08H
	DB	021H
	DB	08H
	DB	021H
	DB	08H
	DB	021H
	DB	00H
	DB	021H
	DB	00H
	DB	021H
	DB	00H
	DB	041H
	DB	08H
	DB	021H
	DB	08H
	DB	021H
	DB	08H
	DB	041H
	DB	08H
	DB	041H
	DB	00H
	DB	042H
	DB	08H
	DB	041H
	DB	08H
	DB	042H
	DB	08H
	DB	041H
	DB	08H
	DB	062H
	DB	08H
	DB	062H
	DB	08H
	DB	042H
	DB	08H
	DB	062H
	DB	08H
	DB	062H
	DB	08H
	DB	062H
	DB	08H
	DB	062H
	DB	08H
	DB	062H
	DB	010H
	DB	082H
	DB	010H
	DB	082H
	DB	08H
	DB	083H
	DB	08H
	DB	063H
	DB	010H
	DB	083H
	DB	08H
	DB	083H
	DB	08H
	DB	083H
	DB	010H
	DB	083H
	DB	08H
	DB	083H
	DB	010H
	DB	083H
	DB	010H
	DB	0a3H
	DB	010H
	DB	0a3H
	DB	010H
	DB	0a3H
	DB	010H
	DB	0a3H
	DB	010H
	DB	0a3H
	DB	010H
	DB	0a4H
	DB	010H
	DB	0a4H
	DB	010H
	DB	0a4H
	DB	010H
	DB	0a3H
	DB	010H
	DB	0c4H
	DB	010H
	DB	0c4H
	DB	010H
	DB	0c4H
	DB	010H
	DB	0c4H
	DB	018H
	DB	0c4H
	DB	010H
	DB	0c4H
	DB	018H
	DB	0c4H
	DB	010H
	DB	0c4H
	DB	018H
	DB	0c4H
	DB	010H
	DB	0c5H
	DB	018H
	DB	0c5H
	DB	018H
	DB	0e4H
	DB	010H
	DB	0c5H
	DB	018H
	DB	0e5H
	DB	018H
	DB	0e5H
	DB	018H
	DB	0e5H
	DB	010H
	DB	0c5H
	DB	018H
	DB	0e5H
	DB	018H
	DB	0e5H
	DB	018H
	DB	0e5H
	DB	018H
	DB	0e5H
	DB	018H
	DB	0e5H
	DB	018H
	DB	05H
	DB	019H
	DB	05H
	DB	019H
	DB	0e5H
	DB	018H
	DB	06H
	DB	019H
	DB	05H
	DB	019H
	DB	06H
	DB	019H
	DB	05H
	DB	019H
	DB	06H
	DB	019H
	DB	06H
	DB	019H
	DB	06H
	DB	019H
	DB	06H
	DB	021H
	DB	05H
	DB	019H
	DB	06H
	DB	021H
	DB	06H
	DB	021H
	DB	026H
	DB	019H
	DB	06H
	DB	021H
	DB	026H
	DB	021H
	DB	026H
	DB	019H
	DB	026H
	DB	021H
	DB	026H
	DB	021H
	DB	026H
	DB	021H
	DB	026H
	DB	021H
	DB	027H
	DB	019H
	DB	026H
	DB	021H
	DB	026H
	DB	021H
	DB	047H
	DB	019H
	DB	026H
	DB	021H
	DB	027H
	DB	021H
	DB	046H
	DB	021H
	DB	027H
	DB	021H
	DB	047H
	DB	021H
	DB	047H
	DB	021H
	DB	047H
	DB	019H
	DB	047H
	DB	021H
	DB	047H
	DB	021H
	DB	047H
	DB	021H
	DB	047H
	DB	021H
	DB	047H
	DB	021H
	DB	047H
	DB	021H
	DB	047H
	DB	021H
	DB	047H
	DB	021H
	DB	047H
	DB	021H
	DB	047H
	DB	021H
	DB	047H
	DB	021H
	DB	067H
	DB	021H
	DB	048H
	DB	021H
	DB	067H
	DB	021H
	DB	068H
	DB	029H
	DB	068H
	DB	021H
	DB	067H
	DB	029H
	DB	068H
	DB	021H
	DB	067H
	DB	021H
	DB	068H
	DB	029H
	DB	048H
	DB	021H
	DB	067H
	DB	021H
	DB	068H
	DB	021H
	DB	068H
	DB	021H
	DB	067H
	DB	029H
	DB	067H
	DB	029H
	DB	068H
	DB	029H
	DB	068H
	DB	021H
	DB	068H
	DB	029H
	DB	068H
	DB	021H
	DB	068H
	DB	021H
	DB	068H
	DB	029H
	DB	068H
	DB	029H
	DB	068H
	DB	029H
	DB	068H
	DB	029H
	DB	068H
	DB	021H
	DB	068H
	DB	029H
	DB	068H
	DB	029H
	DB	068H
	DB	029H
	DB	088H
	DB	021H
	DB	088H
	DB	029H
	DB	068H
	DB	029H
	DB	088H
	DB	029H
	DB	088H
	DB	029H
	DB	088H
	DB	021H
	DB	088H
	DB	029H
	DB	088H
	DB	029H
	DB	068H
	DB	029H
	DB	088H
	DB	029H
	DB	068H
	DB	021H
	DB	088H
	DB	029H
	DB	088H
	DB	029H
	DB	088H
	DB	021H
	DB	068H
	DB	029H
	DB	088H
	DB	029H
	DB	068H
	DB	029H
	DB	068H
	DB	029H
	DB	088H
	DB	029H
	DB	088H
	DB	029H
	DB	088H
	DB	029H
	DB	068H
	DB	029H
	DB	089H
	DB	029H
	DB	088H
	DB	029H
	DB	088H
	DB	029H
	DB	088H
	DB	029H
	DB	088H
	DB	029H
	DB	088H
	DB	029H
	DB	088H
	DB	029H
	DB	089H
	DB	029H
	DB	088H
	DB	021H
	DB	088H
	DB	029H
	DB	088H
	DB	021H
	DB	089H
	DB	029H
	DB	088H
	DB	029H
	DB	088H
	DB	029H
	DB	089H
	DB	029H
	DB	088H
	DB	029H
	DB	088H
	DB	029H
	DB	088H
	DB	029H
	DB	088H
	DB	021H
	DB	088H
	DB	029H
	DB	088H
	DB	029H
	DB	068H
	DB	029H
	DB	088H
	DB	021H
	DB	088H
	DB	029H
	DB	088H
	DB	029H
	DB	088H
	DB	021H
	DB	088H
	DB	021H
	DB	088H
	DB	029H
	DB	068H
	DB	029H
	DB	088H
	DB	021H
	DB	088H
	DB	029H
	DB	068H
	DB	021H
	DB	088H
	DB	029H
	DB	068H
	DB	029H
	DB	068H
	DB	029H
	DB	068H
	DB	029H
	DB	068H
	DB	021H
	DB	068H
	DB	029H
	DB	088H
	DB	029H
	DB	068H
	DB	021H
	DB	068H
	DB	029H
	DB	068H
	DB	029H
	DB	067H
	DB	029H
	DB	068H
	DB	021H
	DB	068H
	DB	029H
	DB	068H
	DB	029H
	DB	068H
	DB	021H
	DB	068H
	DB	021H
	DB	067H
	DB	029H
	DB	048H
	DB	021H
	DB	068H
	DB	021H
	DB	047H
	DB	029H
	DB	048H
	DB	029H
	DB	068H
	DB	021H
	DB	048H
	DB	029H
	DB	068H
	DB	021H
	DB	068H
	DB	021H
	DB	047H
	DB	021H
	DB	048H
	DB	021H
	DB	067H
	DB	021H
	DB	047H
	DB	021H
	DB	047H
	DB	021H
	DB	047H
	DB	021H
	DB	047H
	DB	021H
	DB	047H
	DB	021H
	DB	047H
	DB	021H
	DB	047H
	DB	021H
	DB	047H
	DB	021H
	DB	047H
	DB	021H
	DB	047H
	DB	021H
	DB	047H
	DB	021H
	DB	047H
	DB	021H
	DB	027H
	DB	021H
	DB	047H
	DB	021H
	DB	027H
	DB	021H
	DB	046H
	DB	019H
	DB	026H
	DB	021H
	DB	027H
	DB	021H
	DB	027H
	DB	021H
	DB	027H
	DB	019H
	DB	026H
	DB	021H
	DB	027H
	DB	021H
	DB	026H
	DB	021H
	DB	026H
	DB	021H
	DB	026H
	DB	019H
	DB	06H
	DB	021H
	DB	026H
	DB	021H
	DB	026H
	DB	021H
	DB	06H
	DB	019H
	DB	06H
	DB	021H
	DB	06H
	DB	021H
	DB	026H
	DB	019H
	DB	06H
	DB	019H
	DB	06H
	DB	021H
	DB	05H
	DB	019H
	DB	05H
	DB	019H
	DB	06H
	DB	019H
	DB	06H
	DB	019H
	DB	05H
	DB	019H
	DB	05H
	DB	019H
	DB	06H
	DB	019H
	DB	05H
	DB	019H
	DB	0e5H
	DB	018H
	DB	05H
	DB	019H
	DB	0e5H
	DB	018H
	DB	0e5H
	DB	018H
	DB	0e5H
	DB	018H
	DB	0e5H
	DB	018H
	DB	0e5H
	DB	018H
	DB	0e5H
	DB	010H
	DB	0e5H
	DB	018H
	DB	0e4H
	DB	018H
	DB	0e5H
	DB	018H
	DB	0e5H
	DB	010H
	DB	0c4H
	DB	018H
	DB	0c5H
	DB	018H
	DB	0c4H
	DB	010H
	DB	0c5H
	DB	010H
	DB	0c4H
	DB	018H
	DB	0c4H
	DB	010H
	DB	0c4H
	DB	010H
	DB	0a4H
	DB	018H
	DB	0c4H
	DB	010H
	DB	0c4H
	DB	010H
	DB	0c4H
	DB	010H
	DB	0a4H
	DB	010H
	DB	0a4H
	DB	010H
	DB	0a3H
	DB	010H
	DB	0a4H
	DB	010H
	DB	0a4H
	DB	010H
	DB	0a3H
	DB	010H
	DB	0a4H
	DB	010H
	DB	0a3H
	DB	010H
	DB	0a3H
	DB	010H
	DB	0a3H
	DB	010H
	DB	083H
	DB	010H
	DB	083H
	DB	010H
	DB	083H
	DB	010H
	DB	083H
	DB	08H
	DB	083H
	DB	010H
	DB	083H
	DB	010H
	DB	082H
	DB	010H
	DB	083H
	DB	08H
	DB	063H
	DB	08H
	DB	063H
	DB	010H
	DB	062H
	DB	010H
	DB	062H
	DB	08H
	DB	062H
	DB	08H
	DB	062H
	DB	08H
	DB	062H
	DB	08H
	DB	062H
	DB	08H
	DB	062H
	DB	08H
	DB	042H
	DB	08H
	DB	041H
	DB	08H
	DB	061H
	DB	08H
	DB	042H
	DB	08H
	DB	042H
	DB	08H
	DB	041H
	DB	08H
	DB	042H
	DB	08H
	DB	041H
	DB	00H
	DB	021H
	DB	08H
	DB	041H
	DB	08H
	DB	021H
	DB	00H
	DB	021H
	DB	08H
	DB	021H
	DB	00H
	DB	020H
	DB	00H
	DB	021H
	DB	08H
	DB	021H
	DB	00H
	DB	01H
	DB	00H
	DB	021H
	DB	00H
	DB	00H
	DB	00H
	DB	00H
	DB	00H
	DB	00H
	DB	00H
	DB	00H
	DB	00H
	DB	00H
	DB	00H
	DB	00H
	DB	00H
	DB	00H
	DB	00H
	DB	00H
	DB	00H
	DB	00H
	DB	00H
	DB	00H
	DB	00H
	DB	00H
	DB	00H
	DB	00H
	DB	00H
	DB	00H
	DB	00H
	DB	00H
	DB	00H
	DB	00H
	DB	00H
	DB	00H
	DB	00H
	DB	00H
	DB	00H
	DB	00H
	DB	00H
	DB	00H
	DB	00H
	DB	00H
	DB	00H
	DB	00H
	DB	00H
	DB	00H
	DB	00H
	DB	00H
	DB	00H
	DB	00H
	DB	00H
	DB	00H
	DB	00H
	DB	00H
	DB	00H
	DB	00H
	DB	00H
	DB	00H
	DB	00H
	DB	00H
	DB	00H
	DB	00H
	DB	00H
	DB	00H
	DB	00H
	DB	00H
	DB	00H
	DB	00H
	DB	00H
	DB	00H
	DB	00H
	DB	00H
	DB	00H
	DB	00H
	DB	00H
	DB	00H
	DB	00H
	DB	00H
	DB	00H
	DB	00H
	DB	00H
	DB	00H
	DB	00H
	DB	00H
	DB	00H
	DB	00H
	DB	00H
	DB	00H
	DB	00H
	DB	00H
	DB	00H
	DB	00H
	DB	00H
	DB	00H
	DB	00H
	DB	00H
	DB	00H
	DB	00H
	DB	00H
	DB	00H
	DB	00H
	DB	00H
	DB	00H
	DB	00H
	DB	00H
	DB	00H
	DB	00H
	DB	00H
	DB	00H
	DB	00H
	DB	00H
	DB	00H
	DB	00H
	DB	00H
	DB	00H
	DB	00H
	DB	00H
	DB	00H
	DB	00H
	DB	00H
	DB	00H
	DB	020H
	DB	00H
	DB	020H
	DB	08H
	DB	021H
	DB	00H
	DB	021H
	DB	00H
	DB	021H
	DB	08H
	DB	021H
	DB	00H
	DB	020H
	DB	08H
	DB	021H
	DB	08H
	DB	041H
	DB	08H
	DB	041H
	DB	00H
	DB	021H
	DB	08H
	DB	041H
	DB	08H
	DB	041H
	DB	08H
	DB	042H
	DB	08H
	DB	042H
	DB	08H
	DB	042H
	DB	08H
	DB	042H
	DB	08H
	DB	061H
	DB	08H
	DB	042H
	DB	08H
	DB	042H
	DB	08H
	DB	062H
	DB	08H
	DB	062H
	DB	08H
	DB	062H
	DB	08H
	DB	062H
	DB	08H
	DB	063H
	DB	010H
	DB	083H
	DB	08H
	DB	063H
	DB	08H
	DB	062H
	DB	010H
	DB	082H
	DB	010H
	DB	083H
	DB	08H
	DB	083H
	DB	010H
	DB	083H
	DB	010H
	DB	083H
	DB	010H
	DB	083H
	DB	010H
	DB	083H
	DB	08H
	DB	083H
	DB	010H
	DB	0a3H
	DB	010H
	DB	0a3H
	DB	010H
	DB	0a3H
	DB	010H
	DB	084H
	DB	010H
	DB	0a3H
	DB	010H
	DB	0a4H
	DB	010H
	DB	0a4H
	DB	010H
	DB	0a4H
	DB	010H
	DB	0a4H
	DB	010H
	DB	0a4H
	DB	010H
	DB	0c4H
	DB	010H
	DB	0a4H
	DB	010H
	DB	0a4H
	DB	010H
	DB	0c4H
	DB	018H
	DB	0c4H
	DB	010H
	DB	0c4H
	DB	018H
	DB	0c4H
	DB	010H
	DB	0c5H
	DB	010H
	DB	0c4H
	DB	018H
	DB	0c4H
	DB	018H
	DB	0e5H
	DB	010H
	DB	0e5H
	DB	018H
	DB	0e5H
	DB	018H
	DB	0e5H
	DB	010H
	DB	0e4H
	DB	018H
	DB	0e5H
	DB	018H
	DB	0e5H
	DB	018H
	DB	0e5H
	DB	018H
	DB	0e5H
	DB	018H
	DB	0e5H
	DB	018H
	DB	05H
	DB	019H
	DB	0e5H
	DB	018H
	DB	05H
	DB	019H
	DB	0e6H
	DB	018H
	DB	05H
	DB	019H
	DB	06H
	DB	019H
	DB	06H
	DB	019H
	DB	06H
	DB	019H
	DB	06H
	DB	019H
	DB	06H
	DB	021H
	DB	05H
	DB	019H
	DB	026H
	DB	019H
	DB	06H
	DB	021H
	DB	026H
	DB	021H
	DB	026H
	DB	019H
	DB	026H
	DB	021H
	DB	06H
	DB	021H
	DB	026H
	DB	019H
	DB	026H
	DB	019H
	DB	026H
	DB	021H
	DB	027H
	DB	021H
	DB	027H
	DB	021H
	DB	027H
	DB	021H
	DB	026H
	DB	021H
	DB	027H
	DB	021H
	DB	027H
	DB	021H
	DB	047H
	DB	021H
	DB	027H
	DB	021H
	DB	047H
	DB	021H
	DB	046H
	DB	021H
	DB	047H
	DB	019H
	DB	047H
	DB	021H
	DB	027H
	DB	021H
	DB	047H
	DB	021H
	DB	047H
	DB	021H
	DB	047H
	DB	021H
	DB	047H
	DB	021H
	DB	047H
	DB	021H
	DB	047H
	DB	021H
	DB	047H
	DB	021H
	DB	047H
	DB	021H
	DB	047H
	DB	021H
	DB	047H
	DB	021H
	DB	068H
	DB	021H
	DB	067H
	DB	021H
	DB	048H
	DB	021H
	DB	068H
	DB	029H
	DB	068H
	DB	021H
	DB	067H
	DB	021H
	DB	067H
	DB	029H
	DB	048H
	DB	021H
	DB	068H
	DB	029H
	DB	067H
	DB	021H
	DB	068H
	DB	029H
	DB	068H
	DB	029H
	DB	068H
	DB	029H
	DB	068H
	DB	029H
	DB	068H
	DB	021H
	DB	068H
	DB	029H
	DB	068H
	DB	021H
	DB	068H
	DB	029H
	DB	068H
	DB	029H
	DB	068H
	DB	021H
	DB	068H
	DB	029H
	DB	068H
	DB	029H
	DB	088H
	DB	021H
	DB	068H
	DB	029H
	DB	088H
	DB	021H
	DB	088H
	DB	029H
	DB	068H
	DB	029H
	DB	088H
	DB	029H
	DB	088H
	DB	021H
	DB	088H
	DB	029H
	DB	088H
	DB	029H
	DB	088H
	DB	029H
	DB	088H
	DB	029H
	DB	068H
	DB	029H
	DB	088H
	DB	029H
	DB	088H
	DB	029H
	DB	089H
	DB	021H
	DB	088H
	DB	029H
	DB	088H
	DB	029H
	DB	088H
	DB	021H
	DB	089H
	DB	029H
	DB	089H
	DB	029H
	DB	088H
	DB	029H
	DB	088H
	DB	029H
	DB	089H
	DB	029H
	DB	089H
	DB	021H
	DB	088H
	DB	029H
	DB	089H
	DB	029H
	DB	089H
	DB	029H
	DB	088H
	DB	029H
	DB	089H
	DB	029H
	DB	089H
	DB	029H
	DB	089H
	DB	029H
	DB	088H
	DB	029H
	DB	089H
	DB	029H
	DB	089H
	DB	029H
	DB	089H
	DB	029H
	DB	089H
	DB	021H
	DB	089H
	DB	029H
	DB	089H
	DB	029H
	DB	089H
	DB	029H
	DB	088H
	DB	029H
	DB	089H
	DB	029H
	DB	089H
	DB	029H
	DB	088H
	DB	029H
	DB	089H
	DB	029H
	DB	089H
	DB	029H
	DB	088H
	DB	029H
	DB	088H
	DB	029H
	DB	089H
	DB	029H
	DB	068H
	DB	029H
	DB	088H
	DB	021H
	DB	089H
	DB	029H
	DB	088H
	DB	029H
	DB	088H
	DB	029H
	DB	089H
	DB	029H
	DB	088H
	DB	029H
	DB	088H
	DB	029H
	DB	088H
	DB	029H
	DB	088H
	DB	029H
	DB	068H
	DB	029H
	DB	088H
	DB	029H
	DB	088H
	DB	021H
	DB	088H
	DB	029H
	DB	088H
	DB	029H
	DB	088H
	DB	029H
	DB	088H
	DB	029H
	DB	088H
	DB	029H
	DB	068H
	DB	029H
	DB	088H
	DB	021H
	DB	068H
	DB	029H
	DB	068H
	DB	029H
	DB	068H
	DB	021H
	DB	068H
	DB	029H
	DB	068H
	DB	029H
	DB	068H
	DB	029H
	DB	068H
	DB	029H
	DB	068H
	DB	029H
	DB	068H
	DB	021H
	DB	068H
	DB	029H
	DB	068H
	DB	029H
	DB	068H
	DB	021H
	DB	067H
	DB	021H
	DB	068H
	DB	021H
	DB	068H
	DB	029H
	DB	067H
	DB	021H
	DB	067H
	DB	029H
	DB	068H
	DB	029H
	DB	067H
	DB	021H
	DB	047H
	DB	029H
	DB	068H
	DB	021H
	DB	048H
	DB	021H
	DB	048H
	DB	029H
	DB	067H
	DB	021H
	DB	067H
	DB	021H
	DB	047H
	DB	021H
	DB	047H
	DB	021H
	DB	047H
	DB	021H
	DB	047H
	DB	021H
	DB	047H
	DB	021H
	DB	047H
	DB	021H
	DB	047H
	DB	021H
	DB	047H
	DB	021H
	DB	047H
	DB	021H
	DB	047H
	DB	021H
	DB	047H
	DB	021H
	DB	047H
	DB	021H
	DB	047H
	DB	021H
	DB	047H
	DB	021H
	DB	027H
	DB	019H
	DB	026H
	DB	021H
	DB	047H
	DB	021H
	DB	027H
	DB	021H
	DB	026H
	DB	019H
	DB	027H
	DB	021H
	DB	027H
	DB	019H
	DB	026H
	DB	021H
	DB	026H
	DB	019H
	DB	026H
	DB	021H
	DB	026H
	DB	019H
	DB	026H
	DB	021H
	DB	026H
	DB	019H
	DB	026H
	DB	021H
	DB	06H
	DB	019H
	DB	06H
	DB	019H
	DB	06H
	DB	021H
	DB	06H
	DB	021H
	DB	06H
	DB	019H
	DB	06H
	DB	019H
	DB	05H
	DB	021H
	DB	06H
	DB	019H
	DB	06H
	DB	019H
	DB	06H
	DB	019H
	DB	06H
	DB	019H
	DB	0e6H
	DB	018H
	DB	05H
	DB	019H
	DB	0e5H
	DB	018H
	DB	0e5H
	DB	018H
	DB	0e5H
	DB	018H
	DB	0e5H
	DB	018H
	DB	0e5H
	DB	018H
	DB	0e5H
	DB	018H
	DB	0e5H
	DB	018H
	DB	0e5H
	DB	018H
	DB	0e4H
	DB	018H
	DB	0c5H
	DB	018H
	DB	0e5H
	DB	010H
	DB	0e5H
	DB	018H
	DB	0c4H
	DB	018H
	DB	0c4H
	DB	010H
	DB	0c4H
	DB	018H
	DB	0c4H
	DB	018H
	DB	0c4H
	DB	018H
	DB	0c4H
	DB	010H
	DB	0a4H
	DB	018H
	DB	0c4H
	DB	018H
	DB	0c4H
	DB	010H
	DB	0c4H
	DB	010H
	DB	0c4H
	DB	010H
	DB	0a4H
	DB	010H
	DB	0a4H
	DB	010H
	DB	0a4H
	DB	010H
	DB	0a3H
	DB	010H
	DB	0a4H
	DB	010H
	DB	0a3H
	DB	010H
	DB	0a3H
	DB	08H
	DB	0a3H
	DB	010H
	DB	083H
	DB	010H
	DB	0a3H
	DB	010H
	DB	083H
	DB	010H
	DB	083H
	DB	08H
	DB	083H
	DB	010H
	DB	083H
	DB	010H
	DB	083H
	DB	08H
	DB	062H
	DB	010H
	DB	083H
	DB	010H
	DB	082H
	DB	08H
	DB	063H
	DB	08H
	DB	062H
	DB	010H
	DB	062H
	DB	010H
	DB	062H
	DB	08H
	DB	062H
	DB	08H
	DB	062H
	DB	08H
	DB	042H
	DB	08H
	DB	062H
	DB	08H
	DB	062H
	DB	08H
	DB	041H
	DB	08H
	DB	042H
	DB	08H
	DB	041H
	DB	08H
	DB	042H
	DB	08H
	DB	041H
	DB	08H
	DB	041H
	DB	08H
	DB	041H
	DB	08H
	DB	041H
	DB	00H
	DB	021H
	DB	00H
	DB	021H
	DB	08H
	DB	021H
	DB	00H
	DB	021H
	DB	08H
	DB	020H
	DB	00H
	DB	021H
	DB	08H
	DB	020H
	DB	08H
	DB	01H
	DB	00H
	DB	020H
	DB	00H
	DB	021H
	DB	00H
	DB	00H
	DB	00H
	DB	00H
	DB	00H
	DB	00H
	DB	00H
	DB	00H
	DB	00H
	DB	00H
	DB	00H
	DB	00H
	DB	00H
	DB	00H
	DB	00H
	DB	00H
	DB	00H
	DB	00H
	DB	00H
	DB	00H
	DB	00H
	DB	00H
	DB	00H
	DB	00H
	DB	00H
	DB	00H
	DB	00H
	DB	00H
	DB	00H
	DB	00H
	DB	00H
	DB	00H
	DB	00H
	DB	00H
	DB	00H
	DB	00H
	DB	00H
	DB	00H
	DB	00H
	DB	00H
	DB	00H
	DB	00H
	DB	00H
	DB	00H
	DB	00H
	DB	00H
	DB	00H
	DB	00H
	DB	00H
	DB	00H
	DB	00H
	DB	00H
	DB	00H
	DB	00H
	DB	00H
	DB	00H
	DB	00H
	DB	00H
	DB	00H
	DB	00H
	DB	00H
	DB	00H
	DB	00H
	DB	00H
	DB	00H
	DB	00H
	DB	00H
	DB	00H
	DB	00H
	DB	00H
	DB	00H
	DB	00H
	DB	00H
	DB	00H
	DB	00H
	DB	00H
	DB	00H
	DB	00H
	DB	00H
	DB	00H
	DB	00H
	DB	00H
	DB	00H
	DB	00H
	DB	00H
	DB	00H
	DB	00H
	DB	00H
	DB	00H
	DB	00H
	DB	00H
	DB	00H
	DB	00H
	DB	00H
	DB	00H
	DB	00H
	DB	00H
	DB	00H
	DB	00H
	DB	00H
	DB	00H
	DB	00H
	DB	00H
	DB	00H
	DB	00H
	DB	00H
	DB	00H
	DB	00H
	DB	00H
	DB	00H
	DB	00H
	DB	020H
	DB	00H
	DB	021H
	DB	00H
	DB	021H
	DB	00H
	DB	021H
	DB	08H
	DB	020H
	DB	00H
	DB	020H
	DB	00H
	DB	021H
	DB	08H
	DB	021H
	DB	00H
	DB	021H
	DB	08H
	DB	041H
	DB	08H
	DB	041H
	DB	08H
	DB	041H
	DB	08H
	DB	041H
	DB	00H
	DB	041H
	DB	08H
	DB	042H
	DB	08H
	DB	042H
	DB	08H
	DB	042H
	DB	08H
	DB	042H
	DB	08H
	DB	062H
	DB	08H
	DB	062H
	DB	08H
	DB	062H
	DB	08H
	DB	062H
	DB	08H
	DB	062H
	DB	08H
	DB	062H
	DB	08H
	DB	062H
	DB	08H
	DB	063H
	DB	010H
	DB	062H
	DB	08H
	DB	082H
	DB	08H
	DB	083H
	DB	010H
	DB	083H
	DB	08H
	DB	083H
	DB	010H
	DB	083H
	DB	010H
	DB	083H
	DB	010H
	DB	083H
	DB	08H
	DB	083H
	DB	010H
	DB	083H
	DB	010H
	DB	0a3H
	DB	010H
	DB	0a3H
	DB	010H
	DB	083H
	DB	010H
	DB	0a4H
	DB	010H
	DB	0a4H
	DB	010H
	DB	0a4H
	DB	010H
	DB	0a4H
	DB	010H
	DB	0a3H
	DB	010H
	DB	0a4H
	DB	010H
	DB	0c4H
	DB	010H
	DB	0a4H
	DB	010H
	DB	0c4H
	DB	010H
	DB	0c4H
	DB	018H
	DB	0c4H
	DB	010H
	DB	0c4H
	DB	018H
	DB	0c4H
	DB	018H
	DB	0c4H
	DB	010H
	DB	0c5H
	DB	018H
	DB	0c5H
	DB	018H
	DB	0c5H
	DB	018H
	DB	0e5H
	DB	010H
	DB	0e4H
	DB	018H
	DB	0e5H
	DB	018H
	DB	0e5H
	DB	018H
	DB	0c5H
	DB	018H
	DB	0e5H
	DB	018H
	DB	0e5H
	DB	018H
	DB	0e5H
	DB	018H
	DB	0e5H
	DB	018H
	DB	05H
	DB	019H
	DB	05H
	DB	019H
	DB	0e5H
	DB	018H
	DB	05H
	DB	019H
	DB	06H
	DB	019H
	DB	06H
	DB	019H
	DB	05H
	DB	019H
	DB	06H
	DB	019H
	DB	06H
	DB	019H
	DB	06H
	DB	021H
	DB	06H
	DB	021H
	DB	06H
	DB	021H
	DB	05H
	DB	019H
	DB	026H
	DB	021H
	DB	06H
	DB	021H
	DB	026H
	DB	019H
	DB	026H
	DB	019H
	DB	06H
	DB	019H
	DB	026H
	DB	021H
	DB	026H
	DB	021H
	DB	027H
	DB	019H
	DB	027H
	DB	021H
	DB	026H
	DB	021H
	DB	027H
	DB	019H
	DB	026H
	DB	019H
	DB	027H
	DB	021H
	DB	027H
	DB	021H
	DB	027H
	DB	021H
	DB	047H
	DB	021H
	DB	027H
	DB	021H
	DB	047H
	DB	021H
	DB	047H
	DB	021H
	DB	047H
	DB	021H
	DB	047H
	DB	021H
	DB	047H
	DB	021H
	DB	047H
	DB	021H
	DB	047H
	DB	021H
	DB	047H
	DB	021H
	DB	047H
	DB	021H
	DB	047H
	DB	021H
	DB	047H
	DB	021H
	DB	047H
	DB	021H
	DB	048H
	DB	021H
	DB	067H
	DB	029H
	DB	068H
	DB	021H
	DB	048H
	DB	021H
	DB	068H
	DB	029H
	DB	067H
	DB	029H
	DB	067H
	DB	021H
	DB	048H
	DB	029H
	DB	068H
	DB	021H
	DB	068H
	DB	029H
	DB	068H
	DB	021H
	DB	068H
	DB	029H
	DB	068H
	DB	021H
	DB	068H
	DB	029H
	DB	068H
	DB	021H
	DB	068H
	DB	021H
	DB	068H
	DB	029H
	DB	068H
	DB	029H
	DB	068H
	DB	029H
	DB	068H
	DB	021H
	DB	068H
	DB	021H
	DB	068H
	DB	029H
	DB	068H
	DB	029H
	DB	088H
	DB	029H
	DB	088H
	DB	021H
	DB	068H
	DB	029H
	DB	088H
	DB	029H
	DB	088H
	DB	029H
	DB	088H
	DB	029H
	DB	088H
	DB	021H
	DB	068H
	DB	029H
	DB	088H
	DB	029H
	DB	088H
	DB	029H
	DB	088H
	DB	029H
	DB	088H
	DB	029H
	DB	069H
	DB	029H
	DB	089H
	DB	029H
	DB	088H
	DB	021H
	DB	089H
	DB	029H
	DB	089H
	DB	029H
	DB	088H
	DB	029H
	DB	089H
	DB	029H
	DB	088H
	DB	029H
	DB	089H
	DB	029H
	DB	089H
	DB	029H
	DB	088H
	DB	029H
	DB	089H
	DB	029H
	DB	089H
	DB	029H
	DB	089H
	DB	029H
	DB	089H
	DB	029H
	DB	089H
	DB	029H
	DB	088H
	DB	029H
	DB	089H
	DB	029H
	DB	089H
	DB	021H
	DB	089H
	DB	029H
	DB	088H
	DB	029H
	DB	088H
	DB	029H
	DB	089H
	DB	029H
	DB	089H
	DB	029H
	DB	089H
	DB	029H
	DB	088H
	DB	029H
	DB	089H
	DB	029H
	DB	088H
	DB	029H
	DB	089H
	DB	029H
	DB	089H
	DB	029H
	DB	089H
	DB	029H
	DB	089H
	DB	029H
	DB	088H
	DB	029H
	DB	089H
	DB	029H
	DB	089H
	DB	029H
	DB	088H
	DB	029H
	DB	089H
	DB	029H
	DB	089H
	DB	029H
	DB	089H
	DB	029H
	DB	088H
	DB	029H
	DB	089H
	DB	029H
	DB	089H
	DB	029H
	DB	089H
	DB	029H
	DB	089H
	DB	029H
	DB	088H
	DB	029H
	DB	089H
	DB	029H
	DB	088H
	DB	029H
	DB	069H
	DB	029H
	DB	089H
	DB	029H
	DB	088H
	DB	029H
	DB	089H
	DB	029H
	DB	088H
	DB	029H
	DB	088H
	DB	029H
	DB	089H
	DB	029H
	DB	088H
	DB	021H
	DB	068H
	DB	029H
	DB	088H
	DB	021H
	DB	088H
	DB	029H
	DB	088H
	DB	029H
	DB	068H
	DB	029H
	DB	088H
	DB	021H
	DB	088H
	DB	029H
	DB	088H
	DB	029H
	DB	088H
	DB	021H
	DB	068H
	DB	021H
	DB	068H
	DB	029H
	DB	068H
	DB	029H
	DB	068H
	DB	029H
	DB	068H
	DB	029H
	DB	088H
	DB	021H
	DB	068H
	DB	029H
	DB	068H
	DB	029H
	DB	068H
	DB	029H
	DB	068H
	DB	021H
	DB	068H
	DB	021H
	DB	068H
	DB	029H
	DB	068H
	DB	021H
	DB	068H
	DB	029H
	DB	068H
	DB	029H
	DB	068H
	DB	029H
	DB	068H
	DB	021H
	DB	067H
	DB	021H
	DB	068H
	DB	029H
	DB	068H
	DB	021H
	DB	048H
	DB	021H
	DB	067H
	DB	021H
	DB	047H
	DB	021H
	DB	067H
	DB	021H
	DB	047H
	DB	021H
	DB	047H
	DB	021H
	DB	047H
	DB	021H
	DB	047H
	DB	021H
	DB	047H
	DB	021H
	DB	047H
	DB	021H
	DB	047H
	DB	021H
	DB	047H
	DB	021H
	DB	047H
	DB	021H
	DB	047H
	DB	021H
	DB	047H
	DB	021H
	DB	047H
	DB	021H
	DB	046H
	DB	021H
	DB	047H
	DB	021H
	DB	047H
	DB	021H
	DB	026H
	DB	021H
	DB	027H
	DB	021H
	DB	027H
	DB	021H
	DB	026H
	DB	021H
	DB	027H
	DB	021H
	DB	026H
	DB	019H
	DB	026H
	DB	021H
	DB	026H
	DB	021H
	DB	026H
	DB	019H
	DB	026H
	DB	021H
	DB	026H
	DB	021H
	DB	026H
	DB	019H
	DB	06H
	DB	019H
	DB	026H
	DB	021H
	DB	06H
	DB	021H
	DB	06H
	DB	019H
	DB	06H
	DB	019H
	DB	06H
	DB	019H
	DB	05H
	DB	019H
	DB	05H
	DB	019H
	DB	05H
	DB	019H
	DB	0e6H
	DB	018H
	DB	0e6H
	DB	018H
	DB	05H
	DB	019H
	DB	05H
	DB	019H
	DB	0e5H
	DB	018H
	DB	0e5H
	DB	018H
	DB	0e5H
	DB	018H
	DB	0e5H
	DB	018H
	DB	0c5H
	DB	018H
	DB	0e5H
	DB	010H
	DB	0e5H
	DB	018H
	DB	0c5H
	DB	018H
	DB	0e4H
	DB	018H
	DB	0e5H
	DB	010H
	DB	0c5H
	DB	018H
	DB	0c5H
	DB	018H
	DB	0c4H
	DB	010H
	DB	0c5H
	DB	010H
	DB	0c4H
	DB	010H
	DB	0c4H
	DB	010H
	DB	0c4H
	DB	018H
	DB	0c4H
	DB	010H
	DB	0a4H
	DB	010H
	DB	0c4H
	DB	010H
	DB	0c3H
	DB	010H
	DB	0a4H
	DB	010H
	DB	0a4H
	DB	010H
	DB	0a4H
	DB	010H
	DB	0a4H
	DB	010H
	DB	083H
	DB	010H
	DB	0a4H
	DB	010H
	DB	0a3H
	DB	010H
	DB	0a3H
	DB	010H
	DB	083H
	DB	010H
	DB	0a3H
	DB	08H
	DB	083H
	DB	010H
	DB	083H
	DB	08H
	DB	083H
	DB	010H
	DB	083H
	DB	08H
	DB	083H
	DB	08H
	DB	083H
	DB	010H
	DB	082H
	DB	08H
	DB	082H
	DB	010H
	DB	063H
	DB	08H
	DB	063H
	DB	08H
	DB	062H
	DB	010H
	DB	062H
	DB	010H
	DB	062H
	DB	08H
	DB	062H
	DB	08H
	DB	062H
	DB	08H
	DB	062H
	DB	08H
	DB	042H
	DB	08H
	DB	042H
	DB	08H
	DB	042H
	DB	08H
	DB	041H
	DB	08H
	DB	042H
	DB	08H
	DB	042H
	DB	00H
	DB	041H
	DB	08H
	DB	041H
	DB	08H
	DB	041H
	DB	08H
	DB	021H
	DB	08H
	DB	021H
	DB	00H
	DB	021H
	DB	08H
	DB	021H
	DB	00H
	DB	021H
	DB	00H
	DB	020H
	DB	08H
	DB	021H
	DB	08H
	DB	01H
	DB	00H
	DB	020H
	DB	08H
	DB	00H
	DB	00H
	DB	00H
	DB	00H
	DB	00H
	DB	00H
	DB	00H
	DB	00H
	DB	00H
	DB	00H
	DB	00H
	DB	00H
	DB	00H
	DB	00H
	DB	00H
	DB	00H
	DB	00H
	DB	00H
	DB	00H
	DB	00H
	DB	00H
	DB	00H
	DB	00H
	DB	00H
	DB	00H
	DB	00H
	DB	00H
	DB	00H
	DB	00H
	DB	00H
	DB	00H
	DB	00H
	DB	00H
	DB	00H
	DB	00H
	DB	00H
	DB	00H
	DB	00H
	DB	00H
	DB	00H
	DB	00H
	DB	00H
	DB	00H
	DB	00H
	DB	00H
	DB	00H
	DB	00H
	DB	00H
	DB	00H
	DB	00H
	DB	00H
	DB	00H
	DB	00H
	DB	00H
	DB	00H
	DB	00H
	DB	00H
	DB	00H
	DB	00H
	DB	00H
	DB	00H
	DB	00H
	DB	00H
	DB	00H
	DB	00H
	DB	00H
	DB	00H
	DB	00H
	DB	00H
	DB	00H
	DB	00H
	DB	00H
	DB	00H
	DB	00H
	DB	00H
	DB	00H
	DB	00H
	DB	00H
	DB	00H
	DB	00H
	DB	00H
	DB	00H
	DB	00H
	DB	00H
	DB	00H
	DB	00H
	DB	00H
	DB	00H
	DB	00H
	DB	00H
	DB	00H
	DB	00H
	DB	00H
	DB	00H
	DB	00H
	DB	00H
	DB	00H
	DB	00H
	DB	00H
	DB	00H
	DB	00H
	DB	00H
	DB	00H
	DB	00H
	DB	00H
	DB	00H
	DB	00H
	DB	00H
	DB	020H
	DB	00H
	DB	021H
	DB	08H
	DB	00H
	DB	08H
	DB	021H
	DB	00H
	DB	01H
	DB	00H
	DB	021H
	DB	08H
	DB	021H
	DB	08H
	DB	021H
	DB	00H
	DB	021H
	DB	08H
	DB	041H
	DB	00H
	DB	021H
	DB	00H
	DB	041H
	DB	08H
	DB	041H
	DB	08H
	DB	042H
	DB	08H
	DB	042H
	DB	00H
	DB	041H
	DB	08H
	DB	041H
	DB	08H
	DB	062H
	DB	08H
	DB	061H
	DB	08H
	DB	062H
	DB	08H
	DB	062H
	DB	08H
	DB	062H
	DB	08H
	DB	062H
	DB	08H
	DB	062H
	DB	08H
	DB	062H
	DB	010H
	DB	063H
	DB	08H
	DB	083H
	DB	010H
	DB	062H
	DB	08H
	DB	063H
	DB	010H
	DB	083H
	DB	010H
	DB	083H
	DB	08H
	DB	083H
	DB	010H
	DB	083H
	DB	010H
	DB	083H
	DB	08H
	DB	0a3H
	DB	010H
	DB	083H
	DB	010H
	DB	0a3H
	DB	010H
	DB	0a3H
	DB	010H
	DB	0a3H
	DB	010H
	DB	0a4H
	DB	010H
	DB	0a3H
	DB	010H
	DB	0a4H
	DB	010H
	DB	0a4H
	DB	010H
	DB	0a4H
	DB	010H
	DB	0c4H
	DB	010H
	DB	0c4H
	DB	010H
	DB	0c4H
	DB	010H
	DB	0c4H
	DB	010H
	DB	0c4H
	DB	010H
	DB	0c4H
	DB	018H
	DB	0c4H
	DB	018H
	DB	0c4H
	DB	010H
	DB	0c4H
	DB	018H
	DB	0c5H
	DB	010H
	DB	0e4H
	DB	018H
	DB	0e4H
	DB	018H
	DB	0e5H
	DB	010H
	DB	0c5H
	DB	018H
	DB	0e5H
	DB	018H
	DB	0e5H
	DB	018H
	DB	0e5H
	DB	018H
	DB	0e5H
	DB	018H
	DB	0e5H
	DB	018H
	DB	0e5H
	DB	018H
	DB	0e5H
	DB	018H
	DB	0e5H
	DB	018H
	DB	05H
	DB	019H
	DB	05H
	DB	019H
	DB	06H
	DB	019H
	DB	06H
	DB	019H
	DB	05H
	DB	019H
	DB	06H
	DB	019H
	DB	06H
	DB	019H
	DB	06H
	DB	019H
	DB	05H
	DB	021H
	DB	06H
	DB	019H
	DB	06H
	DB	019H
	DB	06H
	DB	021H
	DB	026H
	DB	019H
	DB	06H
	DB	019H
	DB	026H
	DB	021H
	DB	026H
	DB	021H
	DB	026H
	DB	021H
	DB	026H
	DB	021H
	DB	027H
	DB	021H
	DB	026H
	DB	021H
	DB	026H
	DB	021H
	DB	027H
	DB	021H
	DB	027H
	DB	021H
	DB	026H
	DB	021H
	DB	047H
	DB	021H
	DB	047H
	DB	021H
	DB	026H
	DB	021H
	DB	047H
	DB	021H
	DB	047H
	DB	021H
	DB	047H
	DB	021H
	DB	047H
	DB	021H
	DB	047H
	DB	021H
	DB	047H
	DB	021H
	DB	047H
	DB	021H
	DB	047H
	DB	021H
	DB	047H
	DB	021H
	DB	047H
	DB	021H
	DB	047H
	DB	021H
	DB	047H
	DB	021H
	DB	047H
	DB	021H
	DB	047H
	DB	029H
	DB	068H
	DB	021H
	DB	048H
	DB	021H
	DB	067H
	DB	029H
	DB	068H
	DB	021H
	DB	067H
	DB	021H
	DB	068H
	DB	029H
	DB	068H
	DB	021H
	DB	068H
	DB	029H
	DB	068H
	DB	021H
	DB	067H
	DB	029H
	DB	068H
	DB	021H
	DB	068H
	DB	029H
	DB	068H
	DB	021H
	DB	068H
	DB	029H
	DB	068H
	DB	029H
	DB	068H
	DB	029H
	DB	088H
	DB	021H
	DB	068H
	DB	021H
	DB	088H
	DB	029H
	DB	068H
	DB	029H
	DB	088H
	DB	029H
	DB	088H
	DB	029H
	DB	068H
	DB	029H
	DB	088H
	DB	021H
	DB	088H
	DB	029H
	DB	068H
	DB	029H
	DB	088H
	DB	029H
	DB	088H
	DB	029H
	DB	088H
	DB	029H
	DB	068H
	DB	029H
	DB	088H
	DB	029H
	DB	088H
	DB	029H
	DB	089H
	DB	029H
	DB	088H
	DB	029H
	DB	089H
	DB	029H
	DB	089H
	DB	029H
	DB	088H
	DB	029H
	DB	089H
	DB	029H
	DB	089H
	DB	029H
	DB	089H
	DB	029H
	DB	089H
	DB	029H
	DB	088H
	DB	029H
	DB	089H
	DB	029H
	DB	089H
	DB	029H
	DB	089H
	DB	029H
	DB	088H
	DB	029H
	DB	089H
	DB	029H
	DB	089H
	DB	029H
	DB	088H
	DB	029H
	DB	088H
	DB	029H
	DB	089H
	DB	029H
	DB	089H
	DB	029H
	DB	0a8H
	DB	029H
	DB	089H
	DB	029H
	DB	089H
	DB	029H
	DB	089H
	DB	029H
	DB	0a9H
	DB	029H
	DB	089H
	DB	029H
	DB	089H
	DB	029H
	DB	089H
	DB	029H
	DB	088H
	DB	029H
	DB	089H
	DB	029H
	DB	0a9H
	DB	029H
	DB	089H
	DB	029H
	DB	088H
	DB	029H
	DB	089H
	DB	029H
	DB	089H
	DB	029H
	DB	088H
	DB	029H
	DB	089H
	DB	029H
	DB	089H
	DB	029H
	DB	089H
	DB	029H
	DB	088H
	DB	029H
	DB	089H
	DB	029H
	DB	089H
	DB	029H
	DB	088H
	DB	029H
	DB	089H
	DB	029H
	DB	089H
	DB	029H
	DB	089H
	DB	029H
	DB	088H
	DB	029H
	DB	089H
	DB	029H
	DB	089H
	DB	029H
	DB	089H
	DB	021H
	DB	088H
	DB	029H
	DB	089H
	DB	029H
	DB	089H
	DB	029H
	DB	089H
	DB	029H
	DB	089H
	DB	029H
	DB	089H
	DB	029H
	DB	088H
	DB	029H
	DB	089H
	DB	029H
	DB	089H
	DB	029H
	DB	089H
	DB	029H
	DB	089H
	DB	029H
	DB	088H
	DB	029H
	DB	089H
	DB	029H
	DB	088H
	DB	029H
	DB	088H
	DB	029H
	DB	088H
	DB	029H
	DB	088H
	DB	029H
	DB	088H
	DB	029H
	DB	088H
	DB	029H
	DB	088H
	DB	021H
	DB	088H
	DB	029H
	DB	068H
	DB	021H
	DB	088H
	DB	029H
	DB	068H
	DB	021H
	DB	068H
	DB	029H
	DB	068H
	DB	029H
	DB	068H
	DB	021H
	DB	068H
	DB	029H
	DB	068H
	DB	029H
	DB	068H
	DB	021H
	DB	068H
	DB	021H
	DB	068H
	DB	021H
	DB	068H
	DB	021H
	DB	067H
	DB	021H
	DB	067H
	DB	029H
	DB	068H
	DB	021H
	DB	068H
	DB	021H
	DB	068H
	DB	029H
	DB	047H
	DB	029H
	DB	068H
	DB	029H
	DB	068H
	DB	029H
	DB	048H
	DB	021H
	DB	067H
	DB	021H
	DB	047H
	DB	029H
	DB	047H
	DB	021H
	DB	047H
	DB	021H
	DB	047H
	DB	021H
	DB	047H
	DB	021H
	DB	047H
	DB	021H
	DB	047H
	DB	021H
	DB	047H
	DB	021H
	DB	047H
	DB	021H
	DB	047H
	DB	021H
	DB	027H
	DB	021H
	DB	047H
	DB	021H
	DB	047H
	DB	021H
	DB	027H
	DB	021H
	DB	047H
	DB	021H
	DB	046H
	DB	021H
	DB	027H
	DB	019H
	DB	047H
	DB	021H
	DB	027H
	DB	021H
	DB	027H
	DB	019H
	DB	026H
	DB	021H
	DB	026H
	DB	021H
	DB	026H
	DB	019H
	DB	026H
	DB	021H
	DB	026H
	DB	021H
	DB	026H
	DB	019H
	DB	06H
	DB	019H
	DB	026H
	DB	021H
	DB	06H
	DB	021H
	DB	06H
	DB	019H
	DB	06H
	DB	021H
	DB	05H
	DB	021H
	DB	06H
	DB	019H
	DB	06H
	DB	019H
	DB	06H
	DB	019H
	DB	05H
	DB	019H
	DB	06H
	DB	019H
	DB	05H
	DB	019H
	DB	0e5H
	DB	018H
	DB	05H
	DB	019H
	DB	0e5H
	DB	018H
	DB	05H
	DB	019H
	DB	0e5H
	DB	018H
	DB	0e5H
	DB	018H
	DB	0e5H
	DB	018H
	DB	0e5H
	DB	018H
	DB	0e5H
	DB	018H
	DB	0c5H
	DB	018H
	DB	0e5H
	DB	018H
	DB	0c5H
	DB	010H
	DB	0e4H
	DB	018H
	DB	0e5H
	DB	010H
	DB	0c4H
	DB	018H
	DB	0c5H
	DB	018H
	DB	0c4H
	DB	010H
	DB	0c4H
	DB	010H
	DB	0c4H
	DB	018H
	DB	0a4H
	DB	018H
	DB	0c4H
	DB	010H
	DB	0c4H
	DB	010H
	DB	0a4H
	DB	010H
	DB	0a4H
	DB	010H
	DB	0a4H
	DB	010H
	DB	0a4H
	DB	010H
	DB	0a4H
	DB	010H
	DB	0a3H
	DB	010H
	DB	0a4H
	DB	010H
	DB	0a3H
	DB	010H
	DB	0a3H
	DB	010H
	DB	0a3H
	DB	010H
	DB	0a3H
	DB	010H
	DB	083H
	DB	010H
	DB	083H
	DB	010H
	DB	083H
	DB	010H
	DB	083H
	DB	010H
	DB	083H
	DB	08H
	DB	083H
	DB	010H
	DB	063H
	DB	010H
	DB	082H
	DB	08H
	DB	063H
	DB	010H
	DB	062H
	DB	08H
	DB	062H
	DB	08H
	DB	062H
	DB	010H
	DB	062H
	DB	08H
	DB	062H
	DB	08H
	DB	062H
	DB	08H
	DB	062H
	DB	08H
	DB	062H
	DB	08H
	DB	062H
	DB	08H
	DB	042H
	DB	08H
	DB	041H
	DB	08H
	DB	042H
	DB	08H
	DB	041H
	DB	08H
	DB	041H
	DB	08H
	DB	041H
	DB	00H
	DB	041H
	DB	08H
	DB	041H
	DB	08H
	DB	021H
	DB	00H
	DB	021H
	DB	08H
	DB	021H
	DB	00H
	DB	021H
	DB	00H
	DB	020H
	DB	00H
	DB	020H
	DB	00H
	DB	021H
	DB	00H
	DB	01H
	DB	00H
	DB	020H
	DB	00H
	DB	00H
	DB	08H
	DB	020H
	DB	00H
	DB	00H
	DB	00H
	DB	00H
	DB	00H
	DB	00H
	DB	00H
	DB	00H
	DB	00H
	DB	00H
	DB	00H
	DB	00H
	DB	00H
	DB	00H
	DB	00H
	DB	00H
	DB	00H
	DB	00H
	DB	00H
	DB	00H
	DB	00H
	DB	00H
	DB	00H
	DB	00H
	DB	00H
	DB	00H
	DB	00H
	DB	00H
	DB	00H
	DB	00H
	DB	00H
	DB	00H
	DB	00H
	DB	00H
	DB	00H
	DB	00H
	DB	00H
	DB	00H
	DB	00H
	DB	00H
	DB	00H
	DB	00H
	DB	00H
	DB	00H
	DB	00H
	DB	00H
	DB	00H
	DB	00H
	DB	00H
	DB	00H
	DB	00H
	DB	00H
	DB	00H
	DB	00H
	DB	00H
	DB	00H
	DB	00H
	DB	00H
	DB	00H
	DB	00H
	DB	00H
	DB	00H
	DB	00H
	DB	00H
	DB	00H
	DB	00H
	DB	00H
	DB	00H
	DB	00H
	DB	00H
	DB	00H
	DB	00H
	DB	00H
	DB	00H
	DB	00H
	DB	00H
	DB	00H
	DB	00H
	DB	00H
	DB	00H
	DB	00H
	DB	00H
	DB	00H
	DB	00H
	DB	00H
	DB	00H
	DB	00H
	DB	00H
	DB	00H
	DB	00H
	DB	00H
	DB	00H
	DB	00H
	DB	00H
	DB	00H
	DB	00H
	DB	00H
	DB	020H
	DB	00H
	DB	00H
	DB	00H
	DB	021H
	DB	00H
	DB	01H
	DB	00H
	DB	020H
	DB	08H
	DB	020H
	DB	00H
	DB	021H
	DB	00H
	DB	021H
	DB	08H
	DB	021H
	DB	08H
	DB	041H
	DB	00H
	DB	041H
	DB	08H
	DB	041H
	DB	08H
	DB	041H
	DB	08H
	DB	021H
	DB	08H
	DB	041H
	DB	00H
	DB	042H
	DB	08H
	DB	042H
	DB	08H
	DB	042H
	DB	08H
	DB	062H
	DB	08H
	DB	062H
	DB	08H
	DB	062H
	DB	08H
	DB	062H
	DB	08H
	DB	062H
	DB	08H
	DB	062H
	DB	08H
	DB	062H
	DB	08H
	DB	062H
	DB	010H
	DB	063H
	DB	08H
	DB	062H
	DB	08H
	DB	083H
	DB	010H
	DB	083H
	DB	010H
	DB	083H
	DB	010H
	DB	082H
	DB	08H
	DB	083H
	DB	010H
	DB	083H
	DB	010H
	DB	083H
	DB	08H
	DB	0a3H
	DB	010H
	DB	083H
	DB	010H
	DB	0a3H
	DB	010H
	DB	0a3H
	DB	010H
	DB	0a3H
	DB	010H
	DB	0a4H
	DB	010H
	DB	0a4H
	DB	010H
	DB	0a3H
	DB	010H
	DB	0a4H
	DB	010H
	DB	0a3H
	DB	010H
	DB	0c4H
	DB	010H
	DB	0a4H
	DB	010H
	DB	0a4H
	DB	010H
	DB	0c4H
	DB	018H
	DB	0c4H
	DB	018H
	DB	0c4H
	DB	010H
	DB	0c4H
	DB	010H
	DB	0c5H
	DB	018H
	DB	0c4H
	DB	010H
	DB	0c5H
	DB	010H
	DB	0e5H
	DB	018H
	DB	0c5H
	DB	018H
	DB	0e5H
	DB	010H
	DB	0e5H
	DB	018H
	DB	0e5H
	DB	018H
	DB	0e5H
	DB	010H
	DB	0e5H
	DB	018H
	DB	0e5H
	DB	018H
	DB	0e5H
	DB	010H
	DB	0e5H
	DB	018H
	DB	05H
	DB	019H
	DB	05H
	DB	019H
	DB	0e5H
	DB	018H
	DB	06H
	DB	019H
	DB	0e6H
	DB	018H
	DB	06H
	DB	019H
	DB	06H
	DB	019H
	DB	05H
	DB	019H
	DB	06H
	DB	021H
	DB	06H
	DB	019H
	DB	06H
	DB	021H
	DB	06H
	DB	019H
	DB	026H
	DB	019H
	DB	06H
	DB	021H
	DB	026H
	DB	019H
	DB	026H
	DB	021H
	DB	026H
	DB	021H
	DB	026H
	DB	019H
	DB	026H
	DB	021H
	DB	027H
	DB	021H
	DB	027H
	DB	019H
	DB	027H
	DB	021H
	DB	027H
	DB	021H
	DB	026H
	DB	021H
	DB	026H
	DB	021H
	DB	027H
	DB	021H
	DB	047H
	DB	021H
	DB	027H
	DB	021H
	DB	047H
	DB	021H
	DB	027H
	DB	021H
	DB	047H
	DB	021H
	DB	047H
	DB	021H
	DB	047H
	DB	021H
	DB	047H
	DB	021H
	DB	047H
	DB	021H
	DB	047H
	DB	021H
	DB	047H
	DB	021H
	DB	047H
	DB	021H
	DB	047H
	DB	021H
	DB	067H
	DB	021H
	DB	068H
	DB	021H
	DB	068H
	DB	021H
	DB	068H
	DB	029H
	DB	067H
	DB	021H
	DB	068H
	DB	021H
	DB	048H
	DB	029H
	DB	067H
	DB	021H
	DB	068H
	DB	029H
	DB	068H
	DB	029H
	DB	068H
	DB	021H
	DB	068H
	DB	021H
	DB	068H
	DB	029H
	DB	068H
	DB	029H
	DB	068H
	DB	021H
	DB	068H
	DB	029H
	DB	068H
	DB	021H
	DB	088H
	DB	029H
	DB	068H
	DB	029H
	DB	068H
	DB	029H
	DB	068H
	DB	029H
	DB	088H
	DB	029H
	DB	088H
	DB	029H
	DB	088H
	DB	029H
	DB	068H
	DB	029H
	DB	088H
	DB	029H
	DB	088H
	DB	029H
	DB	088H
	DB	029H
	DB	089H
	DB	021H
	DB	088H
	DB	029H
	DB	089H
	DB	029H
	DB	088H
	DB	029H
	DB	089H
	DB	029H
	DB	089H
	DB	021H
	DB	089H
	DB	029H
	DB	089H
	DB	029H
	DB	089H
	DB	029H
	DB	089H
	DB	029H
	DB	089H
	DB	029H
	DB	089H
	DB	021H
	DB	088H
	DB	029H
	DB	089H
	DB	029H
	DB	088H
	DB	029H
	DB	089H
	DB	029H
	DB	089H
	DB	029H
	DB	088H
	DB	029H
	DB	089H
	DB	029H
	DB	089H
	DB	029H
	DB	089H
	DB	029H
	DB	0a9H
	DB	029H
	DB	089H
	DB	029H
	DB	089H
	DB	029H
	DB	089H
	DB	029H
	DB	0a9H
	DB	029H
	DB	0a9H
	DB	029H
	DB	089H
	DB	029H
	DB	0a9H
	DB	029H
	DB	0a9H
	DB	029H
	DB	0a9H
	DB	029H
	DB	0a9H
	DB	029H
	DB	0a9H
	DB	029H
	DB	0a9H
	DB	029H
	DB	0a9H
	DB	029H
	DB	089H
	DB	029H
	DB	0a9H
	DB	029H
	DB	0a9H
	DB	029H
	DB	089H
	DB	029H
	DB	0a9H
	DB	029H
	DB	0a9H
	DB	029H
	DB	089H
	DB	029H
	DB	0a9H
	DB	029H
	DB	0a9H
	DB	029H
	DB	089H
	DB	029H
	DB	0a9H
	DB	029H
	DB	089H
	DB	029H
	DB	0a9H
	DB	029H
	DB	089H
	DB	029H
	DB	0a9H
	DB	029H
	DB	0a9H
	DB	029H
	DB	089H
	DB	029H
	DB	0a9H
	DB	029H
	DB	0a9H
	DB	029H
	DB	088H
	DB	029H
	DB	089H
	DB	029H
	DB	0a9H
	DB	029H
	DB	089H
	DB	029H
	DB	089H
	DB	029H
	DB	089H
	DB	029H
	DB	089H
	DB	029H
	DB	088H
	DB	029H
	DB	089H
	DB	029H
	DB	088H
	DB	029H
	DB	089H
	DB	029H
	DB	089H
	DB	029H
	DB	088H
	DB	029H
	DB	089H
	DB	029H
	DB	088H
	DB	029H
	DB	088H
	DB	029H
	DB	089H
	DB	029H
	DB	068H
	DB	029H
	DB	088H
	DB	029H
	DB	089H
	DB	029H
	DB	089H
	DB	029H
	DB	068H
	DB	021H
	DB	088H
	DB	029H
	DB	069H
	DB	029H
	DB	068H
	DB	029H
	DB	088H
	DB	029H
	DB	088H
	DB	029H
	DB	068H
	DB	021H
	DB	088H
	DB	029H
	DB	088H
	DB	029H
	DB	088H
	DB	029H
	DB	068H
	DB	029H
	DB	088H
	DB	021H
	DB	068H
	DB	029H
	DB	068H
	DB	029H
	DB	068H
	DB	029H
	DB	068H
	DB	029H
	DB	068H
	DB	029H
	DB	068H
	DB	021H
	DB	068H
	DB	021H
	DB	068H
	DB	029H
	DB	068H
	DB	029H
	DB	067H
	DB	021H
	DB	068H
	DB	021H
	DB	068H
	DB	021H
	DB	067H
	DB	029H
	DB	048H
	DB	021H
	DB	068H
	DB	029H
	DB	068H
	DB	021H
	DB	048H
	DB	029H
	DB	047H
	DB	021H
	DB	067H
	DB	021H
	DB	047H
	DB	021H
	DB	047H
	DB	021H
	DB	047H
	DB	021H
	DB	047H
	DB	021H
	DB	047H
	DB	021H
	DB	047H
	DB	021H
	DB	047H
	DB	021H
	DB	047H
	DB	021H
	DB	047H
	DB	021H
	DB	047H
	DB	021H
	DB	027H
	DB	021H
	DB	047H
	DB	021H
	DB	027H
	DB	021H
	DB	026H
	DB	021H
	DB	046H
	DB	021H
	DB	027H
	DB	021H
	DB	027H
	DB	021H
	DB	027H
	DB	019H
	DB	027H
	DB	021H
	DB	026H
	DB	021H
	DB	06H
	DB	021H
	DB	026H
	DB	021H
	DB	026H
	DB	021H
	DB	026H
	DB	019H
	DB	06H
	DB	019H
	DB	026H
	DB	021H
	DB	06H
	DB	019H
	DB	06H
	DB	019H
	DB	06H
	DB	021H
	DB	06H
	DB	021H
	DB	06H
	DB	021H
	DB	05H
	DB	019H
	DB	05H
	DB	019H
	DB	06H
	DB	019H
	DB	06H
	DB	019H
	DB	0e6H
	DB	018H
	DB	05H
	DB	019H
	DB	0e5H
	DB	018H
	DB	0e5H
	DB	018H
	DB	0e5H
	DB	018H
	DB	0e5H
	DB	018H
	DB	0e5H
	DB	018H
	DB	0e5H
	DB	018H
	DB	0e5H
	DB	018H
	DB	0e4H
	DB	010H
	DB	0e5H
	DB	018H
	DB	0c5H
	DB	018H
	DB	0c5H
	DB	018H
	DB	0e4H
	DB	010H
	DB	0c4H
	DB	018H
	DB	0c5H
	DB	018H
	DB	0c5H
	DB	010H
	DB	0c4H
	DB	018H
	DB	0c4H
	DB	018H
	DB	0c4H
	DB	010H
	DB	0c4H
	DB	010H
	DB	0a4H
	DB	018H
	DB	0c4H
	DB	010H
	DB	0a4H
	DB	010H
	DB	0a3H
	DB	010H
	DB	0a4H
	DB	010H
	DB	0a4H
	DB	010H
	DB	0a3H
	DB	010H
	DB	0a4H
	DB	010H
	DB	0a4H
	DB	010H
	DB	0a3H
	DB	010H
	DB	083H
	DB	010H
	DB	0a3H
	DB	010H
	DB	0a3H
	DB	08H
	DB	083H
	DB	010H
	DB	083H
	DB	010H
	DB	083H
	DB	010H
	DB	083H
	DB	08H
	DB	082H
	DB	08H
	DB	083H
	DB	010H
	DB	082H
	DB	08H
	DB	063H
	DB	08H
	DB	083H
	DB	010H
	DB	082H
	DB	08H
	DB	062H
	DB	08H
	DB	062H
	DB	08H
	DB	062H
	DB	08H
	DB	062H
	DB	08H
	DB	062H
	DB	08H
	DB	061H
	DB	08H
	DB	041H
	DB	08H
	DB	042H
	DB	08H
	DB	042H
	DB	08H
	DB	041H
	DB	08H
	DB	042H
	DB	08H
	DB	041H
	DB	08H
	DB	041H
	DB	08H
	DB	021H
	DB	08H
	DB	021H
	DB	08H
	DB	041H
	DB	00H
	DB	041H
	DB	08H
	DB	021H
	DB	08H
	DB	021H
	DB	08H
	DB	021H
	DB	00H
	DB	020H
	DB	08H
	DB	021H
	DB	00H
	DB	00H
	DB	00H
	DB	01H
	DB	00H
	DB	00H
	DB	00H
	DB	00H
	DB	00H
	DB	00H
	DB	00H
	DB	00H
	DB	00H
	DB	00H
	DB	00H
	DB	00H
	DB	00H
	DB	00H
	DB	00H
	DB	00H
	DB	00H
	DB	00H
	DB	00H
	DB	00H
	DB	00H
	DB	00H
	DB	00H
	DB	00H
	DB	00H
	DB	00H
	DB	00H
	DB	00H
	DB	00H
	DB	00H
	DB	00H
	DB	00H
	DB	00H
	DB	00H
	DB	00H
	DB	00H
	DB	00H
	DB	00H
	DB	00H
	DB	00H
	DB	00H
	DB	00H
	DB	00H
	DB	00H
	DB	00H
	DB	00H
	DB	00H
	DB	00H
	DB	00H
	DB	00H
	DB	00H
	DB	00H
	DB	00H
	DB	00H
	DB	00H
	DB	00H
	DB	00H
	DB	00H
	DB	00H
	DB	00H
	DB	00H
	DB	00H
	DB	00H
	DB	00H
	DB	00H
	DB	00H
	DB	00H
	DB	00H
	DB	00H
	DB	00H
	DB	00H
	DB	00H
	DB	00H
	DB	00H
	DB	00H
	DB	00H
	DB	00H
	DB	00H
	DB	00H
	DB	00H
	DB	00H
	DB	00H
	DB	00H
	DB	00H
	DB	00H
	DB	00H
	DB	00H
	DB	00H
	DB	00H
	DB	00H
	DB	00H
	DB	00H
	DB	00H
	DB	00H
	DB	00H
	DB	00H
	DB	00H
	DB	020H
	DB	00H
	DB	01H
	DB	00H
	DB	020H
	DB	00H
	DB	021H
	DB	00H
	DB	021H
	DB	00H
	DB	021H
	DB	08H
	DB	021H
	DB	08H
	DB	021H
	DB	00H
	DB	021H
	DB	00H
	DB	021H
	DB	08H
	DB	021H
	DB	08H
	DB	041H
	DB	00H
	DB	041H
	DB	08H
	DB	041H
	DB	08H
	DB	042H
	DB	08H
	DB	041H
	DB	08H
	DB	042H
	DB	08H
	DB	041H
	DB	08H
	DB	062H
	DB	08H
	DB	062H
	DB	08H
	DB	042H
	DB	08H
	DB	062H
	DB	08H
	DB	062H
	DB	08H
	DB	062H
	DB	08H
	DB	062H
	DB	08H
	DB	062H
	DB	010H
	DB	063H
	DB	08H
	DB	083H
	DB	08H
	DB	082H
	DB	010H
	DB	082H
	DB	08H
	DB	083H
	DB	08H
	DB	083H
	DB	08H
	DB	083H
	DB	010H
	DB	083H
	DB	010H
	DB	083H
	DB	010H
	DB	0a3H
	DB	010H
	DB	083H
	DB	010H
	DB	0a3H
	DB	010H
	DB	0a3H
	DB	010H
	DB	0a3H
	DB	010H
	DB	0a4H
	DB	010H
	DB	0a4H
	DB	010H
	DB	0a3H
	DB	010H
	DB	0a4H
	DB	010H
	DB	0a4H
	DB	010H
	DB	0c4H
	DB	010H
	DB	0c4H
	DB	010H
	DB	0c4H
	DB	018H
	DB	0c4H
	DB	010H
	DB	0c4H
	DB	010H
	DB	0a4H
	DB	018H
	DB	0c4H
	DB	018H
	DB	0c4H
	DB	010H
	DB	0c4H
	DB	018H
	DB	0e5H
	DB	018H
	DB	0e5H
	DB	018H
	DB	0c5H
	DB	018H
	DB	0e4H
	DB	018H
	DB	0e5H
	DB	018H
	DB	0e5H
	DB	018H
	DB	0e4H
	DB	018H
	DB	0e5H
	DB	018H
	DB	0e5H
	DB	018H
	DB	0e5H
	DB	018H
	DB	0e5H
	DB	018H
	DB	05H
	DB	019H
	DB	0e5H
	DB	018H
	DB	05H
	DB	019H
	DB	06H
	DB	019H
	DB	05H
	DB	019H
	DB	06H
	DB	019H
	DB	06H
	DB	019H
	DB	05H
	DB	019H
	DB	06H
	DB	019H
	DB	06H
	DB	019H
	DB	05H
	DB	021H
	DB	026H
	DB	019H
	DB	026H
	DB	021H
	DB	026H
	DB	019H
	DB	026H
	DB	021H
	DB	026H
	DB	019H
	DB	026H
	DB	021H
	DB	026H
	DB	021H
	DB	026H
	DB	019H
	DB	027H
	DB	019H
	DB	027H
	DB	021H
	DB	026H
	DB	021H
	DB	027H
	DB	019H
	DB	027H
	DB	019H
	DB	047H
	DB	021H
	DB	027H
	DB	021H
	DB	047H
	DB	019H
	DB	047H
	DB	021H
	DB	047H
	DB	021H
	DB	047H
	DB	021H
	DB	047H
	DB	021H
	DB	047H
	DB	021H
	DB	047H
	DB	021H
	DB	047H
	DB	021H
	DB	047H
	DB	021H
	DB	047H
	DB	021H
	DB	047H
	DB	021H
	DB	047H
	DB	021H
	DB	048H
	DB	021H
	DB	068H
	DB	021H
	DB	067H
	DB	029H
	DB	048H
	DB	029H
	DB	067H
	DB	021H
	DB	068H
	DB	029H
	DB	068H
	DB	021H
	DB	067H
	DB	021H
	DB	068H
	DB	029H
	DB	068H
	DB	029H
	DB	068H
	DB	021H
	DB	068H
	DB	029H
	DB	068H
	DB	029H
	DB	068H
	DB	029H
	DB	068H
	DB	021H
	DB	068H
	DB	029H
	DB	088H
	DB	029H
	DB	088H
	DB	021H
	DB	088H
	DB	029H
	DB	068H
	DB	029H
	DB	088H
	DB	021H
	DB	088H
	DB	029H
	DB	068H
	DB	021H
	DB	088H
	DB	029H
	DB	088H
	DB	029H
	DB	088H
	DB	021H
	DB	088H
	DB	029H
	DB	088H
	DB	029H
	DB	089H
	DB	029H
	DB	089H
	DB	021H
	DB	088H
	DB	029H
	DB	089H
	DB	029H
	DB	089H
	DB	029H
	DB	088H
	DB	029H
	DB	089H
	DB	029H
	DB	089H
	DB	029H
	DB	088H
	DB	029H
	DB	089H
	DB	029H
	DB	088H
	DB	029H
	DB	088H
	DB	029H
	DB	089H
	DB	029H
	DB	089H
	DB	029H
	DB	0a9H
	DB	029H
	DB	089H
	DB	029H
	DB	0a9H
	DB	029H
	DB	089H
	DB	029H
	DB	088H
	DB	029H
	DB	0a9H
	DB	029H
	DB	089H
	DB	029H
	DB	0a9H
	DB	029H
	DB	089H
	DB	029H
	DB	0a9H
	DB	029H
	DB	0a9H
	DB	029H
	DB	0a9H
	DB	029H
	DB	0a9H
	DB	029H
	DB	089H
	DB	029H
	DB	0a9H
	DB	029H
	DB	0a9H
	DB	029H
	DB	089H
	DB	029H
	DB	0a9H
	DB	029H
	DB	0a9H
	DB	029H
	DB	089H
	DB	029H
	DB	0a9H
	DB	029H
	DB	089H
	DB	029H
	DB	0a9H
	DB	029H
	DB	0a8H
	DB	029H
	DB	089H
	DB	029H
	DB	0a9H
	DB	029H
	DB	0a9H
	DB	029H
	DB	0a9H
	DB	029H
	DB	0a9H
	DB	029H
	DB	0a9H
	DB	029H
	DB	089H
	DB	029H
	DB	0a9H
	DB	029H
	DB	0a9H
	DB	029H
	DB	0a9H
	DB	029H
	DB	0a9H
	DB	029H
	DB	0a9H
	DB	029H
	DB	0a9H
	DB	029H
	DB	089H
	DB	029H
	DB	0a9H
	DB	029H
	DB	0a9H
	DB	029H
	DB	0a9H
	DB	029H
	DB	0a9H
	DB	029H
	DB	089H
	DB	029H
	DB	0a9H
	DB	029H
	DB	0a9H
	DB	029H
	DB	088H
	DB	029H
	DB	0a9H
	DB	029H
	DB	0a9H
	DB	029H
	DB	088H
	DB	029H
	DB	0a9H
	DB	029H
	DB	0a9H
	DB	029H
	DB	089H
	DB	029H
	DB	089H
	DB	029H
	DB	089H
	DB	029H
	DB	089H
	DB	029H
	DB	088H
	DB	029H
	DB	089H
	DB	029H
	DB	089H
	DB	029H
	DB	089H
	DB	029H
	DB	088H
	DB	029H
	DB	089H
	DB	029H
	DB	089H
	DB	021H
	DB	088H
	DB	029H
	DB	089H
	DB	029H
	DB	089H
	DB	029H
	DB	089H
	DB	029H
	DB	088H
	DB	029H
	DB	089H
	DB	029H
	DB	088H
	DB	029H
	DB	088H
	DB	029H
	DB	089H
	DB	029H
	DB	088H
	DB	029H
	DB	068H
	DB	029H
	DB	088H
	DB	029H
	DB	068H
	DB	029H
	DB	088H
	DB	021H
	DB	088H
	DB	029H
	DB	068H
	DB	029H
	DB	088H
	DB	029H
	DB	068H
	DB	029H
	DB	068H
	DB	029H
	DB	068H
	DB	021H
	DB	068H
	DB	029H
	DB	068H
	DB	029H
	DB	068H
	DB	021H
	DB	068H
	DB	021H
	DB	068H
	DB	029H
	DB	067H
	DB	021H
	DB	068H
	DB	021H
	DB	068H
	DB	029H
	DB	067H
	DB	021H
	DB	048H
	DB	021H
	DB	068H
	DB	029H
	DB	068H
	DB	021H
	DB	068H
	DB	021H
	DB	047H
	DB	021H
	DB	067H
	DB	021H
	DB	047H
	DB	021H
	DB	047H
	DB	021H
	DB	047H
	DB	021H
	DB	047H
	DB	021H
	DB	047H
	DB	021H
	DB	047H
	DB	021H
	DB	047H
	DB	021H
	DB	047H
	DB	021H
	DB	047H
	DB	021H
	DB	027H
	DB	021H
	DB	047H
	DB	021H
	DB	027H
	DB	021H
	DB	026H
	DB	021H
	DB	027H
	DB	021H
	DB	027H
	DB	021H
	DB	026H
	DB	021H
	DB	026H
	DB	019H
	DB	027H
	DB	021H
	DB	026H
	DB	019H
	DB	026H
	DB	021H
	DB	026H
	DB	019H
	DB	026H
	DB	021H
	DB	026H
	DB	021H
	DB	026H
	DB	019H
	DB	026H
	DB	019H
	DB	06H
	DB	021H
	DB	06H
	DB	019H
	DB	06H
	DB	019H
	DB	06H
	DB	021H
	DB	06H
	DB	019H
	DB	06H
	DB	019H
	DB	05H
	DB	019H
	DB	06H
	DB	019H
	DB	06H
	DB	019H
	DB	0e5H
	DB	018H
	DB	06H
	DB	019H
	DB	05H
	DB	019H
	DB	0e5H
	DB	018H
	DB	0e5H
	DB	018H
	DB	0e5H
	DB	018H
	DB	0e5H
	DB	018H
	DB	0e5H
	DB	018H
	DB	0e5H
	DB	018H
	DB	0e5H
	DB	018H
	DB	0c4H
	DB	018H
	DB	0e5H
	DB	018H
	DB	0e5H
	DB	018H
	DB	0c5H
	DB	018H
	DB	0c4H
	DB	010H
	DB	0c4H
	DB	010H
	DB	0c4H
	DB	018H
	DB	0c4H
	DB	010H
	DB	0c4H
	DB	018H
	DB	0c4H
	DB	018H
	DB	0c4H
	DB	010H
	DB	0c4H
	DB	010H
	DB	0a4H
	DB	018H
	DB	0a4H
	DB	010H
	DB	0a4H
	DB	010H
	DB	0a3H
	DB	010H
	DB	0a4H
	DB	010H
	DB	0a4H
	DB	010H
	DB	0a3H
	DB	010H
	DB	0a3H
	DB	010H
	DB	0a3H
	DB	08H
	DB	083H
	DB	010H
	DB	083H
	DB	010H
	DB	083H
	DB	010H
	DB	083H
	DB	010H
	DB	083H
	DB	010H
	DB	083H
	DB	08H
	DB	083H
	DB	010H
	DB	083H
	DB	010H
	DB	082H
	DB	08H
	DB	063H
	DB	010H
	DB	063H
	DB	08H
	DB	082H
	DB	010H
	DB	062H
	DB	08H
	DB	062H
	DB	08H
	DB	062H
	DB	08H
	DB	042H
	DB	08H
	DB	042H
	DB	08H
	DB	062H
	DB	08H
	DB	062H
	DB	08H
	DB	042H
	DB	08H
	DB	041H
	DB	08H
	DB	041H
	DB	00H
	DB	042H
	DB	08H
	DB	041H
	DB	08H
	DB	041H
	DB	00H
	DB	041H
	DB	00H
	DB	041H
	DB	08H
	DB	021H
	DB	08H
	DB	021H
	DB	08H
	DB	021H
	DB	00H
	DB	021H
	DB	08H
	DB	021H
	DB	00H
	DB	00H
	DB	08H
	DB	021H
	DB	00H
	DB	020H
	DB	00H
	DB	01H
	DB	00H
	DB	00H
	DB	00H
	DB	00H
	DB	00H
	DB	00H
	DB	00H
	DB	00H
	DB	00H
	DB	00H
	DB	00H
	DB	00H
	DB	00H
	DB	00H
	DB	00H
	DB	00H
	DB	00H
	DB	00H
	DB	00H
	DB	00H
	DB	00H
	DB	00H
	DB	00H
	DB	00H
	DB	00H
	DB	00H
	DB	00H
	DB	00H
	DB	00H
	DB	00H
	DB	00H
	DB	00H
	DB	00H
	DB	00H
	DB	00H
	DB	00H
	DB	00H
	DB	00H
	DB	00H
	DB	00H
	DB	00H
	DB	00H
	DB	00H
	DB	00H
	DB	00H
	DB	00H
	DB	00H
	DB	00H
	DB	00H
	DB	00H
	DB	00H
	DB	00H
	DB	00H
	DB	00H
	DB	00H
	DB	00H
	DB	00H
	DB	00H
	DB	00H
	DB	00H
	DB	00H
	DB	00H
	DB	00H
	DB	00H
	DB	00H
	DB	00H
	DB	00H
	DB	00H
	DB	00H
	DB	00H
	DB	00H
	DB	00H
	DB	00H
	DB	00H
	DB	00H
	DB	00H
	DB	00H
	DB	00H
	DB	00H
	DB	00H
	DB	00H
	DB	00H
	DB	00H
	DB	00H
	DB	00H
	DB	00H
	DB	00H
	DB	00H
	DB	00H
	DB	00H
	DB	00H
	DB	00H
	DB	00H
	DB	00H
	DB	00H
	DB	020H
	DB	00H
	DB	01H
	DB	00H
	DB	01H
	DB	08H
	DB	020H
	DB	08H
	DB	020H
	DB	00H
	DB	021H
	DB	00H
	DB	021H
	DB	08H
	DB	021H
	DB	08H
	DB	041H
	DB	08H
	DB	041H
	DB	00H
	DB	041H
	DB	08H
	DB	021H
	DB	08H
	DB	041H
	DB	08H
	DB	042H
	DB	08H
	DB	042H
	DB	08H
	DB	042H
	DB	08H
	DB	042H
	DB	08H
	DB	062H
	DB	08H
	DB	062H
	DB	08H
	DB	062H
	DB	08H
	DB	062H
	DB	08H
	DB	062H
	DB	08H
	DB	062H
	DB	08H
	DB	062H
	DB	08H
	DB	062H
	DB	08H
	DB	082H
	DB	010H
	DB	083H
	DB	010H
	DB	063H
	DB	010H
	DB	083H
	DB	010H
	DB	083H
	DB	010H
	DB	083H
	DB	08H
	DB	083H
	DB	010H
	DB	083H
	DB	010H
	DB	083H
	DB	08H
	DB	0a3H
	DB	010H
	DB	0a3H
	DB	010H
	DB	0a3H
	DB	010H
	DB	0a3H
	DB	010H
	DB	084H
	DB	010H
	DB	0a4H
	DB	010H
	DB	0a4H
	DB	010H
	DB	0a4H
	DB	010H
	DB	0a4H
	DB	010H
	DB	0c4H
	DB	010H
	DB	0a4H
	DB	010H
	DB	0a4H
	DB	018H
	DB	0c4H
	DB	010H
	DB	0c4H
	DB	018H
	DB	0c4H
	DB	018H
	DB	0c4H
	DB	010H
	DB	0c4H
	DB	010H
	DB	0c5H
	DB	018H
	DB	0c5H
	DB	018H
	DB	0e5H
	DB	010H
	DB	0c4H
	DB	018H
	DB	0c5H
	DB	018H
	DB	0e5H
	DB	010H
	DB	0e5H
	DB	018H
	DB	0e5H
	DB	018H
	DB	0e5H
	DB	018H
	DB	0e5H
	DB	018H
	DB	0e5H
	DB	018H
	DB	0e5H
	DB	018H
	DB	0e5H
	DB	018H
	DB	05H
	DB	019H
	DB	0e5H
	DB	018H
	DB	06H
	DB	019H
	DB	06H
	DB	019H
	DB	06H
	DB	019H
	DB	05H
	DB	019H
	DB	0e6H
	DB	018H
	DB	06H
	DB	019H
	DB	06H
	DB	021H
	DB	06H
	DB	021H
	DB	026H
	DB	019H
	DB	06H
	DB	021H
	DB	06H
	DB	021H
	DB	026H
	DB	019H
	DB	026H
	DB	021H
	DB	06H
	DB	021H
	DB	026H
	DB	021H
	DB	07H
	DB	019H
	DB	027H
	DB	021H
	DB	027H
	DB	021H
	DB	026H
	DB	021H
	DB	027H
	DB	021H
	DB	026H
	DB	021H
	DB	046H
	DB	021H
	DB	047H
	DB	021H
	DB	027H
	DB	021H
	DB	047H
	DB	021H
	DB	047H
	DB	021H
	DB	047H
	DB	021H
	DB	047H
	DB	021H
	DB	047H
	DB	021H
	DB	047H
	DB	021H
	DB	047H
	DB	021H
	DB	047H
	DB	021H
	DB	047H
	DB	021H
	DB	047H
	DB	021H
	DB	047H
	DB	021H
	DB	068H
	DB	021H
	DB	067H
	DB	021H
	DB	067H
	DB	029H
	DB	068H
	DB	021H
	DB	068H
	DB	021H
	DB	068H
	DB	021H
	DB	048H
	DB	029H
	DB	068H
	DB	029H
	DB	068H
	DB	021H
	DB	068H
	DB	029H
	DB	068H
	DB	021H
	DB	068H
	DB	021H
	DB	068H
	DB	021H
	DB	068H
	DB	029H
	DB	068H
	DB	029H
	DB	068H
	DB	021H
	DB	068H
	DB	029H
	DB	088H
	DB	029H
	DB	068H
	DB	029H
	DB	068H
	DB	021H
	DB	088H
	DB	029H
	DB	088H
	DB	029H
	DB	088H
	DB	029H
	DB	088H
	DB	029H
	DB	088H
	DB	029H
	DB	088H
	DB	029H
	DB	089H
	DB	021H
	DB	089H
	DB	029H
	DB	089H
	DB	029H
	DB	088H
	DB	029H
	DB	089H
	DB	029H
	DB	088H
	DB	029H
	DB	089H
	DB	029H
	DB	088H
	DB	029H
	DB	089H
	DB	029H
	DB	089H
	DB	029H
	DB	089H
	DB	029H
	DB	088H
	DB	029H
	DB	0a9H
	DB	029H
	DB	089H
	DB	029H
	DB	0a9H
	DB	029H
	DB	089H
	DB	029H
	DB	0a9H
	DB	029H
	DB	0a9H
	DB	029H
	DB	089H
	DB	029H
	DB	0a9H
	DB	029H
	DB	0a9H
	DB	029H
	DB	089H
	DB	029H
	DB	0a9H
	DB	029H
	DB	0a9H
	DB	029H
	DB	0a9H
	DB	029H
	DB	0a9H
	DB	029H
	DB	089H
	DB	029H
	DB	0a9H
	DB	029H
	DB	0a9H
	DB	029H
	DB	0a9H
	DB	029H
	DB	0a9H
	DB	029H
	DB	0a9H
	DB	029H
	DB	0a9H
	DB	029H
	DB	0a9H
	DB	029H
	DB	0a9H
	DB	029H
	DB	0a9H
	DB	029H
	DB	0a9H
	DB	029H
	DB	0a9H
	DB	029H
	DB	0a9H
	DB	029H
	DB	0a9H
	DB	029H
	DB	0a9H
	DB	029H
	DB	0a9H
	DB	029H
	DB	0a9H
	DB	029H
	DB	0a9H
	DB	029H
	DB	0a9H
	DB	029H
	DB	0a9H
	DB	029H
	DB	0a9H
	DB	029H
	DB	0a9H
	DB	029H
	DB	0a9H
	DB	029H
	DB	0a9H
	DB	029H
	DB	0a9H
	DB	029H
	DB	0a9H
	DB	029H
	DB	0a9H
	DB	029H
	DB	0a9H
	DB	029H
	DB	0a9H
	DB	029H
	DB	0a9H
	DB	029H
	DB	0a9H
	DB	029H
	DB	0a9H
	DB	029H
	DB	0a9H
	DB	029H
	DB	0a9H
	DB	029H
	DB	089H
	DB	029H
	DB	0a9H
	DB	029H
	DB	0a9H
	DB	029H
	DB	0a9H
	DB	029H
	DB	089H
	DB	029H
	DB	0a9H
	DB	029H
	DB	0a9H
	DB	029H
	DB	089H
	DB	029H
	DB	0a9H
	DB	029H
	DB	0a9H
	DB	029H
	DB	0a9H
	DB	029H
	DB	0a9H
	DB	029H
	DB	0a9H
	DB	029H
	DB	089H
	DB	029H
	DB	0a9H
	DB	029H
	DB	089H
	DB	029H
	DB	0a9H
	DB	029H
	DB	089H
	DB	029H
	DB	089H
	DB	029H
	DB	089H
	DB	029H
	DB	089H
	DB	029H
	DB	089H
	DB	029H
	DB	088H
	DB	029H
	DB	089H
	DB	029H
	DB	089H
	DB	029H
	DB	089H
	DB	029H
	DB	089H
	DB	029H
	DB	089H
	DB	029H
	DB	088H
	DB	029H
	DB	088H
	DB	021H
	DB	089H
	DB	029H
	DB	089H
	DB	029H
	DB	088H
	DB	029H
	DB	088H
	DB	029H
	DB	088H
	DB	021H
	DB	088H
	DB	029H
	DB	068H
	DB	021H
	DB	088H
	DB	029H
	DB	068H
	DB	029H
	DB	088H
	DB	029H
	DB	068H
	DB	029H
	DB	068H
	DB	029H
	DB	068H
	DB	029H
	DB	068H
	DB	029H
	DB	068H
	DB	029H
	DB	068H
	DB	021H
	DB	068H
	DB	029H
	DB	068H
	DB	029H
	DB	068H
	DB	021H
	DB	067H
	DB	021H
	DB	068H
	DB	029H
	DB	048H
	DB	029H
	DB	067H
	DB	021H
	DB	068H
	DB	021H
	DB	068H
	DB	029H
	DB	047H
	DB	021H
	DB	047H
	DB	021H
	DB	047H
	DB	021H
	DB	047H
	DB	021H
	DB	047H
	DB	021H
	DB	047H
	DB	021H
	DB	047H
	DB	021H
	DB	047H
	DB	021H
	DB	047H
	DB	021H
	DB	047H
	DB	021H
	DB	047H
	DB	021H
	DB	047H
	DB	021H
	DB	047H
	DB	019H
	DB	047H
	DB	021H
	DB	047H
	DB	021H
	DB	026H
	DB	021H
	DB	027H
	DB	021H
	DB	027H
	DB	021H
	DB	027H
	DB	021H
	DB	027H
	DB	019H
	DB	026H
	DB	021H
	DB	026H
	DB	021H
	DB	026H
	DB	019H
	DB	026H
	DB	021H
	DB	026H
	DB	021H
	DB	06H
	DB	019H
	DB	026H
	DB	019H
	DB	06H
	DB	021H
	DB	06H
	DB	019H
	DB	06H
	DB	021H
	DB	06H
	DB	019H
	DB	05H
	DB	019H
	DB	05H
	DB	019H
	DB	06H
	DB	019H
	DB	06H
	DB	019H
	DB	05H
	DB	019H
	DB	05H
	DB	019H
	DB	05H
	DB	019H
	DB	0e5H
	DB	018H
	DB	0e5H
	DB	018H
	DB	05H
	DB	019H
	DB	0e5H
	DB	018H
	DB	0e5H
	DB	018H
	DB	0e5H
	DB	010H
	DB	0e5H
	DB	018H
	DB	0e4H
	DB	018H
	DB	0e5H
	DB	010H
	DB	0c4H
	DB	018H
	DB	0c5H
	DB	018H
	DB	0e5H
	DB	010H
	DB	0c4H
	DB	018H
	DB	0c5H
	DB	010H
	DB	0c4H
	DB	010H
	DB	0c4H
	DB	018H
	DB	0c4H
	DB	010H
	DB	0c4H
	DB	018H
	DB	0c4H
	DB	010H
	DB	0c4H
	DB	010H
	DB	0a4H
	DB	010H
	DB	0a4H
	DB	010H
	DB	0a3H
	DB	010H
	DB	0a4H
	DB	010H
	DB	0a4H
	DB	010H
	DB	0a3H
	DB	010H
	DB	0a4H
	DB	010H
	DB	0a3H
	DB	010H
	DB	0a3H
	DB	010H
	DB	083H
	DB	010H
	DB	083H
	DB	08H
	DB	083H
	DB	010H
	DB	083H
	DB	010H
	DB	083H
	DB	010H
	DB	083H
	DB	010H
	DB	082H
	DB	08H
	DB	063H
	DB	010H
	DB	062H
	DB	010H
	DB	063H
	DB	08H
	DB	082H
	DB	010H
	DB	062H
	DB	010H
	DB	062H
	DB	08H
	DB	062H
	DB	08H
	DB	062H
	DB	08H
	DB	062H
	DB	08H
	DB	062H
	DB	08H
	DB	062H
	DB	08H
	DB	042H
	DB	08H
	DB	042H
	DB	08H
	DB	042H
	DB	08H
	DB	041H
	DB	08H
	DB	041H
	DB	08H
	DB	022H
	DB	08H
	DB	021H
	DB	08H
	DB	041H
	DB	00H
	DB	021H
	DB	00H
	DB	021H
	DB	00H
	DB	021H
	DB	08H
	DB	020H
	DB	08H
	DB	020H
	DB	00H
	DB	021H
	DB	08H
	DB	020H
	DB	08H
	DB	020H
	DB	00H
	DB	01H
	DB	00H
	DB	00H
	DB	00H
	DB	00H
	DB	00H
	DB	00H
	DB	00H
	DB	00H
	DB	00H
	DB	00H
	DB	00H
	DB	00H
	DB	00H
	DB	00H
	DB	00H
	DB	00H
	DB	00H
	DB	00H
	DB	00H
	DB	00H
	DB	00H
	DB	00H
	DB	00H
	DB	00H
	DB	00H
	DB	00H
	DB	00H
	DB	00H
	DB	00H
	DB	00H
	DB	00H
	DB	00H
	DB	00H
	DB	00H
	DB	00H
	DB	00H
	DB	00H
	DB	00H
	DB	00H
	DB	00H
	DB	00H
	DB	00H
	DB	00H
	DB	00H
	DB	00H
	DB	00H
	DB	00H
	DB	00H
	DB	00H
	DB	00H
	DB	00H
	DB	00H
	DB	00H
	DB	00H
	DB	00H
	DB	00H
	DB	00H
	DB	00H
	DB	00H
	DB	00H
	DB	00H
	DB	00H
	DB	00H
	DB	00H
	DB	00H
	DB	00H
	DB	00H
	DB	00H
	DB	00H
	DB	00H
	DB	00H
	DB	00H
	DB	00H
	DB	00H
	DB	00H
	DB	00H
	DB	00H
	DB	00H
	DB	00H
	DB	00H
	DB	00H
	DB	00H
	DB	00H
	DB	00H
	DB	00H
	DB	00H
	DB	00H
	DB	00H
	DB	00H
	DB	00H
	DB	00H
	DB	020H
	DB	00H
	DB	021H
	DB	00H
	DB	020H
	DB	08H
	DB	021H
	DB	00H
	DB	021H
	DB	00H
	DB	020H
	DB	08H
	DB	021H
	DB	00H
	DB	021H
	DB	00H
	DB	021H
	DB	08H
	DB	041H
	DB	08H
	DB	041H
	DB	08H
	DB	041H
	DB	08H
	DB	041H
	DB	00H
	DB	042H
	DB	08H
	DB	041H
	DB	08H
	DB	041H
	DB	08H
	DB	062H
	DB	08H
	DB	062H
	DB	08H
	DB	062H
	DB	08H
	DB	062H
	DB	08H
	DB	062H
	DB	08H
	DB	062H
	DB	08H
	DB	062H
	DB	08H
	DB	062H
	DB	08H
	DB	063H
	DB	010H
	DB	063H
	DB	08H
	DB	082H
	DB	08H
	DB	063H
	DB	010H
	DB	083H
	DB	08H
	DB	082H
	DB	010H
	DB	083H
	DB	010H
	DB	083H
	DB	010H
	DB	083H
	DB	010H
	DB	0a3H
	DB	010H
	DB	0a3H
	DB	010H
	DB	083H
	DB	010H
	DB	083H
	DB	010H
	DB	0a3H
	DB	010H
	DB	0a4H
	DB	010H
	DB	0a3H
	DB	010H
	DB	0a4H
	DB	010H
	DB	0a3H
	DB	010H
	DB	0a4H
	DB	010H
	DB	0c4H
	DB	010H
	DB	0a4H
	DB	010H
	DB	0c4H
	DB	010H
	DB	0c4H
	DB	018H
	DB	0a4H
	DB	010H
	DB	0c4H
	DB	010H
	DB	0c4H
	DB	018H
	DB	0c4H
	DB	018H
	DB	0c5H
	DB	010H
	DB	0c5H
	DB	018H
	DB	0c5H
	DB	018H
	DB	0e5H
	DB	010H
	DB	0e5H
	DB	010H
	DB	0e4H
	DB	018H
	DB	0e5H
	DB	018H
	DB	0e5H
	DB	018H
	DB	0e5H
	DB	018H
	DB	0e5H
	DB	018H
	DB	0e5H
	DB	018H
	DB	0e5H
	DB	018H
	DB	0e5H
	DB	018H
	DB	05H
	DB	019H
	DB	06H
	DB	019H
	DB	05H
	DB	019H
	DB	06H
	DB	019H
	DB	06H
	DB	019H
	DB	05H
	DB	019H
	DB	06H
	DB	019H
	DB	06H
	DB	019H
	DB	06H
	DB	021H
	DB	026H
	DB	021H
	DB	06H
	DB	019H
	DB	06H
	DB	019H
	DB	026H
	DB	021H
	DB	026H
	DB	019H
	DB	026H
	DB	021H
	DB	026H
	DB	021H
	DB	026H
	DB	019H
	DB	027H
	DB	021H
	DB	026H
	DB	021H
	DB	026H
	DB	021H
	DB	047H
	DB	021H
	DB	047H
	DB	021H
	DB	027H
	DB	021H
	DB	027H
	DB	021H
	DB	047H
	DB	021H
	DB	027H
	DB	021H
	DB	047H
	DB	021H
	DB	047H
	DB	021H
	DB	047H
	DB	021H
	DB	047H
	DB	021H
	DB	047H
	DB	021H
	DB	047H
	DB	021H
	DB	047H
	DB	021H
	DB	047H
	DB	021H
	DB	047H
	DB	021H
	DB	048H
	DB	021H
	DB	068H
	DB	021H
	DB	068H
	DB	029H
	DB	048H
	DB	029H
	DB	068H
	DB	021H
	DB	068H
	DB	029H
	DB	067H
	DB	029H
	DB	068H
	DB	021H
	DB	068H
	DB	029H
	DB	068H
	DB	021H
	DB	068H
	DB	021H
	DB	068H
	DB	029H
	DB	068H
	DB	029H
	DB	068H
	DB	029H
	DB	068H
	DB	029H
	DB	068H
	DB	029H
	DB	088H
	DB	021H
	DB	068H
	DB	029H
	DB	088H
	DB	029H
	DB	088H
	DB	029H
	DB	068H
	DB	021H
	DB	088H
	DB	029H
	DB	088H
	DB	029H
	DB	088H
	DB	029H
	DB	088H
	DB	021H
	DB	089H
	DB	029H
	DB	089H
	DB	029H
	DB	089H
	DB	029H
	DB	089H
	DB	029H
	DB	088H
	DB	029H
	DB	088H
	DB	029H
	DB	089H
	DB	029H
	DB	089H
	DB	029H
	DB	089H
	DB	029H
	DB	089H
	DB	029H
	DB	088H
	DB	029H
	DB	089H
	DB	029H
	DB	0a9H
	DB	029H
	DB	089H
	DB	029H
	DB	0a9H
	DB	029H
	DB	0a9H
	DB	029H
	DB	089H
	DB	029H
	DB	0a9H
	DB	029H
	DB	0a9H
	DB	029H
	DB	089H
	DB	029H
	DB	0a9H
	DB	029H
	DB	089H
	DB	029H
	DB	0a9H
	DB	029H
	DB	0a9H
	DB	029H
	DB	089H
	DB	029H
	DB	0a9H
	DB	029H
	DB	0a9H
	DB	029H
	DB	0a9H
	DB	029H
	DB	0a9H
	DB	029H
	DB	0a9H
	DB	029H
	DB	0a9H
	DB	029H
	DB	0a9H
	DB	031H
	DB	0a9H
	DB	029H
	DB	0a9H
	DB	031H
	DB	0a9H
	DB	029H
	DB	0a9H
	DB	029H
	DB	0a9H
	DB	029H
	DB	0a9H
	DB	031H
	DB	0a9H
	DB	029H
	DB	0a9H
	DB	029H
	DB	0a9H
	DB	031H
	DB	0a9H
	DB	029H
	DB	0a9H
	DB	029H
	DB	0a9H
	DB	031H
	DB	0a9H
	DB	031H
	DB	0a9H
	DB	029H
	DB	0a9H
	DB	031H
	DB	0a9H
	DB	031H
	DB	0a9H
	DB	029H
	DB	0a9H
	DB	031H
	DB	0a9H
	DB	031H
	DB	0a9H
	DB	029H
	DB	0a9H
	DB	029H
	DB	0a9H
	DB	031H
	DB	0a9H
	DB	029H
	DB	0a9H
	DB	031H
	DB	0a9H
	DB	029H
	DB	0a9H
	DB	029H
	DB	0a9H
	DB	029H
	DB	0a9H
	DB	031H
	DB	0a9H
	DB	029H
	DB	089H
	DB	029H
	DB	0a9H
	DB	029H
	DB	0a9H
	DB	029H
	DB	0a9H
	DB	029H
	DB	0a9H
	DB	029H
	DB	0a9H
	DB	029H
	DB	0a9H
	DB	029H
	DB	0a9H
	DB	029H
	DB	0a9H
	DB	029H
	DB	0a9H
	DB	029H
	DB	0a9H
	DB	029H
	DB	0a9H
	DB	029H
	DB	0a9H
	DB	029H
	DB	0a9H
	DB	029H
	DB	0a9H
	DB	029H
	DB	089H
	DB	029H
	DB	0a9H
	DB	029H
	DB	0a9H
	DB	029H
	DB	089H
	DB	029H
	DB	0a9H
	DB	029H
	DB	0a9H
	DB	029H
	DB	0a9H
	DB	029H
	DB	089H
	DB	029H
	DB	089H
	DB	029H
	DB	089H
	DB	029H
	DB	088H
	DB	029H
	DB	0a9H
	DB	029H
	DB	088H
	DB	029H
	DB	089H
	DB	029H
	DB	089H
	DB	029H
	DB	089H
	DB	029H
	DB	089H
	DB	029H
	DB	088H
	DB	029H
	DB	089H
	DB	029H
	DB	089H
	DB	029H
	DB	088H
	DB	029H
	DB	089H
	DB	029H
	DB	088H
	DB	029H
	DB	088H
	DB	029H
	DB	068H
	DB	029H
	DB	088H
	DB	021H
	DB	088H
	DB	029H
	DB	088H
	DB	021H
	DB	068H
	DB	029H
	DB	068H
	DB	021H
	DB	088H
	DB	021H
	DB	088H
	DB	029H
	DB	068H
	DB	029H
	DB	068H
	DB	021H
	DB	068H
	DB	029H
	DB	068H
	DB	021H
	DB	068H
	DB	029H
	DB	068H
	DB	029H
	DB	068H
	DB	021H
	DB	068H
	DB	029H
	DB	068H
	DB	021H
	DB	068H
	DB	029H
	DB	068H
	DB	029H
	DB	068H
	DB	021H
	DB	068H
	DB	021H
	DB	067H
	DB	029H
	DB	067H
	DB	021H
	DB	048H
	DB	021H
	DB	047H
	DB	021H
	DB	047H
	DB	021H
	DB	047H
	DB	021H
	DB	047H
	DB	021H
	DB	047H
	DB	021H
	DB	047H
	DB	021H
	DB	047H
	DB	021H
	DB	047H
	DB	021H
	DB	047H
	DB	021H
	DB	027H
	DB	021H
	DB	047H
	DB	021H
	DB	047H
	DB	021H
	DB	027H
	DB	021H
	DB	026H
	DB	021H
	DB	026H
	DB	021H
	DB	027H
	DB	021H
	DB	026H
	DB	021H
	DB	027H
	DB	021H
	DB	026H
	DB	019H
	DB	026H
	DB	021H
	DB	06H
	DB	021H
	DB	026H
	DB	021H
	DB	026H
	DB	019H
	DB	06H
	DB	021H
	DB	026H
	DB	019H
	DB	06H
	DB	021H
	DB	06H
	DB	021H
	DB	06H
	DB	021H
	DB	06H
	DB	019H
	DB	05H
	DB	019H
	DB	06H
	DB	019H
	DB	06H
	DB	019H
	DB	0e6H
	DB	018H
	DB	05H
	DB	019H
	DB	05H
	DB	019H
	DB	0e5H
	DB	018H
	DB	0e5H
	DB	018H
	DB	0e5H
	DB	018H
	DB	0e5H
	DB	018H
	DB	0e5H
	DB	018H
	DB	0e5H
	DB	018H
	DB	0e5H
	DB	010H
	DB	0e5H
	DB	018H
	DB	0e5H
	DB	018H
	DB	0c5H
	DB	018H
	DB	0e4H
	DB	018H
	DB	0c5H
	DB	010H
	DB	0c4H
	DB	018H
	DB	0c4H
	DB	010H
	DB	0c4H
	DB	010H
	DB	0c4H
	DB	018H
	DB	0c4H
	DB	010H
	DB	0c4H
	DB	010H
	DB	0c4H
	DB	018H
	DB	0a4H
	DB	010H
	DB	0c4H
	DB	010H
	DB	0a4H
	DB	010H
	DB	0a4H
	DB	010H
	DB	0a4H
	DB	010H
	DB	0a3H
	DB	010H
	DB	0a3H
	DB	010H
	DB	0a3H
	DB	010H
	DB	0a3H
	DB	010H
	DB	0a3H
	DB	010H
	DB	0a3H
	DB	08H
	DB	083H
	DB	010H
	DB	083H
	DB	010H
	DB	083H
	DB	08H
	DB	083H
	DB	010H
	DB	083H
	DB	08H
	DB	082H
	DB	08H
	DB	063H
	DB	08H
	DB	082H
	DB	08H
	DB	063H
	DB	08H
	DB	062H
	DB	010H
	DB	062H
	DB	08H
	DB	062H
	DB	08H
	DB	062H
	DB	08H
	DB	062H
	DB	08H
	DB	042H
	DB	08H
	DB	062H
	DB	08H
	DB	061H
	DB	08H
	DB	042H
	DB	08H
	DB	042H
	DB	08H
	DB	041H
	DB	00H
	DB	041H
	DB	08H
	DB	041H
	DB	08H
	DB	041H
	DB	08H
	DB	021H
	DB	08H
	DB	041H
	DB	08H
	DB	021H
	DB	08H
	DB	021H
	DB	00H
	DB	021H
	DB	00H
	DB	021H
	DB	08H
	DB	021H
	DB	00H
	DB	00H
	DB	08H
	DB	01H
	DB	00H
	DB	020H
	DB	00H
	DB	00H
	DB	00H
	DB	00H
	DB	00H
	DB	00H
	DB	00H
	DB	00H
	DB	00H
	DB	00H
	DB	00H
	DB	00H
	DB	00H
	DB	00H
	DB	00H
	DB	00H
	DB	00H
	DB	00H
	DB	00H
	DB	00H
	DB	00H
	DB	00H
	DB	00H
	DB	00H
	DB	00H
	DB	00H
	DB	00H
	DB	00H
	DB	00H
	DB	00H
	DB	00H
	DB	00H
	DB	00H
	DB	00H
	DB	00H
	DB	00H
	DB	00H
	DB	00H
	DB	00H
	DB	00H
	DB	00H
	DB	00H
	DB	00H
	DB	00H
	DB	00H
	DB	00H
	DB	00H
	DB	00H
	DB	00H
	DB	00H
	DB	00H
	DB	00H
	DB	00H
	DB	00H
	DB	00H
	DB	00H
	DB	00H
	DB	00H
	DB	00H
	DB	00H
	DB	00H
	DB	00H
	DB	00H
	DB	00H
	DB	00H
	DB	00H
	DB	00H
	DB	00H
	DB	00H
	DB	00H
	DB	00H
	DB	00H
	DB	00H
	DB	00H
	DB	00H
	DB	00H
	DB	00H
	DB	00H
	DB	00H
	DB	00H
	DB	00H
	DB	00H
	DB	00H
	DB	00H
	DB	00H
	DB	00H
	DB	00H
	DB	020H
	DB	00H
	DB	021H
	DB	00H
	DB	021H
	DB	00H
	DB	020H
	DB	08H
	DB	021H
	DB	00H
	DB	021H
	DB	08H
	DB	021H
	DB	08H
	DB	021H
	DB	08H
	DB	041H
	DB	00H
	DB	041H
	DB	00H
	DB	041H
	DB	08H
	DB	041H
	DB	08H
	DB	041H
	DB	00H
	DB	042H
	DB	08H
	DB	042H
	DB	08H
	DB	042H
	DB	08H
	DB	042H
	DB	08H
	DB	061H
	DB	08H
	DB	042H
	DB	08H
	DB	062H
	DB	08H
	DB	062H
	DB	08H
	DB	062H
	DB	08H
	DB	062H
	DB	08H
	DB	062H
	DB	08H
	DB	082H
	DB	010H
	DB	063H
	DB	010H
	DB	083H
	DB	010H
	DB	082H
	DB	08H
	DB	083H
	DB	08H
	DB	083H
	DB	010H
	DB	083H
	DB	08H
	DB	083H
	DB	08H
	DB	083H
	DB	010H
	DB	0a3H
	DB	010H
	DB	083H
	DB	010H
	DB	0a3H
	DB	08H
	DB	0a3H
	DB	010H
	DB	0a4H
	DB	010H
	DB	0a4H
	DB	010H
	DB	0a4H
	DB	010H
	DB	0a4H
	DB	010H
	DB	0a4H
	DB	010H
	DB	0a4H
	DB	010H
	DB	0c4H
	DB	010H
	DB	0c4H
	DB	010H
	DB	0c4H
	DB	018H
	DB	0c4H
	DB	010H
	DB	0c4H
	DB	010H
	DB	0c4H
	DB	018H
	DB	0c5H
	DB	010H
	DB	0c5H
	DB	010H
	DB	0c4H
	DB	018H
	DB	0e5H
	DB	018H
	DB	0e4H
	DB	010H
	DB	0e4H
	DB	018H
	DB	0e5H
	DB	018H
	DB	0e5H
	DB	018H
	DB	0e5H
	DB	018H
	DB	0e5H
	DB	018H
	DB	0e5H
	DB	018H
	DB	0e5H
	DB	018H
	DB	0e5H
	DB	018H
	DB	0e5H
	DB	018H
	DB	05H
	DB	019H
	DB	06H
	DB	019H
	DB	06H
	DB	019H
	DB	05H
	DB	019H
	DB	06H
	DB	019H
	DB	0e6H
	DB	018H
	DB	05H
	DB	021H
	DB	06H
	DB	021H
	DB	06H
	DB	019H
	DB	026H
	DB	021H
	DB	06H
	DB	021H
	DB	026H
	DB	019H
	DB	026H
	DB	019H
	DB	026H
	DB	021H
	DB	026H
	DB	019H
	DB	026H
	DB	021H
	DB	027H
	DB	021H
	DB	026H
	DB	021H
	DB	027H
	DB	021H
	DB	027H
	DB	021H
	DB	027H
	DB	021H
	DB	027H
	DB	021H
	DB	047H
	DB	019H
	DB	046H
	DB	021H
	DB	047H
	DB	021H
	DB	047H
	DB	021H
	DB	047H
	DB	021H
	DB	047H
	DB	021H
	DB	047H
	DB	021H
	DB	047H
	DB	021H
	DB	047H
	DB	021H
	DB	047H
	DB	021H
	DB	047H
	DB	021H
	DB	047H
	DB	021H
	DB	047H
	DB	021H
	DB	048H
	DB	021H
	DB	068H
	DB	029H
	DB	067H
	DB	021H
	DB	067H
	DB	021H
	DB	068H
	DB	029H
	DB	068H
	DB	021H
	DB	048H
	DB	021H
	DB	068H
	DB	029H
	DB	068H
	DB	021H
	DB	068H
	DB	029H
	DB	068H
	DB	029H
	DB	067H
	DB	021H
	DB	068H
	DB	029H
	DB	068H
	DB	029H
	DB	068H
	DB	021H
	DB	088H
	DB	029H
	DB	068H
	DB	029H
	DB	088H
	DB	029H
	DB	088H
	DB	021H
	DB	088H
	DB	029H
	DB	088H
	DB	029H
	DB	088H
	DB	021H
	DB	088H
	DB	029H
	DB	089H
	DB	029H
	DB	089H
	DB	029H
	DB	089H
	DB	029H
	DB	088H
	DB	029H
	DB	089H
	DB	029H
	DB	089H
	DB	029H
	DB	088H
	DB	029H
	DB	089H
	DB	029H
	DB	089H
	DB	029H
	DB	089H
	DB	029H
	DB	089H
	DB	029H
	DB	0a8H
	DB	029H
	DB	0a9H
	DB	029H
	DB	089H
	DB	029H
	DB	089H
	DB	029H
	DB	0a9H
	DB	029H
	DB	089H
	DB	029H
	DB	089H
	DB	029H
	DB	0a9H
	DB	029H
	DB	0a9H
	DB	029H
	DB	0a9H
	DB	029H
	DB	0a9H
	DB	029H
	DB	0a9H
	DB	029H
	DB	0a9H
	DB	029H
	DB	0a9H
	DB	029H
	DB	0a9H
	DB	029H
	DB	0a9H
	DB	029H
	DB	0a9H
	DB	029H
	DB	0a9H
	DB	029H
	DB	0a9H
	DB	029H
	DB	0a9H
	DB	029H
	DB	089H
	DB	031H
	DB	0a9H
	DB	031H
	DB	0a9H
	DB	029H
	DB	0a9H
	DB	029H
	DB	0a9H
	DB	031H
	DB	0a9H
	DB	029H
	DB	0a9H
	DB	029H
	DB	0a9H
	DB	031H
	DB	0a9H
	DB	031H
	DB	0a9H
	DB	029H
	DB	0a9H
	DB	031H
	DB	0a9H
	DB	031H
	DB	0a9H
	DB	029H
	DB	0a9H
	DB	031H
	DB	0a9H
	DB	031H
	DB	0a9H
	DB	029H
	DB	0a9H
	DB	031H
	DB	0a9H
	DB	029H
	DB	0aaH
	DB	029H
	DB	0a9H
	DB	029H
	DB	0a9H
	DB	029H
	DB	0aaH
	DB	031H
	DB	0a9H
	DB	029H
	DB	0a9H
	DB	029H
	DB	0a9H
	DB	031H
	DB	0a9H
	DB	031H
	DB	0a9H
	DB	029H
	DB	0a9H
	DB	029H
	DB	0a9H
	DB	031H
	DB	0a9H
	DB	031H
	DB	0a9H
	DB	029H
	DB	0a9H
	DB	031H
	DB	0a9H
	DB	029H
	DB	0a9H
	DB	031H
	DB	0a9H
	DB	031H
	DB	0a9H
	DB	029H
	DB	0a9H
	DB	031H
	DB	0a9H
	DB	029H
	DB	0a9H
	DB	031H
	DB	0a9H
	DB	031H
	DB	0a9H
	DB	029H
	DB	0a9H
	DB	029H
	DB	0a9H
	DB	031H
	DB	0a9H
	DB	029H
	DB	0a9H
	DB	029H
	DB	0a9H
	DB	029H
	DB	0a9H
	DB	029H
	DB	0a9H
	DB	029H
	DB	0a9H
	DB	029H
	DB	0a9H
	DB	029H
	DB	0a9H
	DB	029H
	DB	0a9H
	DB	029H
	DB	0a9H
	DB	029H
	DB	0a9H
	DB	029H
	DB	0a9H
	DB	029H
	DB	0a9H
	DB	029H
	DB	0a9H
	DB	029H
	DB	0a9H
	DB	029H
	DB	0a9H
	DB	029H
	DB	0a9H
	DB	029H
	DB	0a9H
	DB	029H
	DB	0a9H
	DB	029H
	DB	088H
	DB	029H
	DB	0a9H
	DB	029H
	DB	089H
	DB	029H
	DB	089H
	DB	029H
	DB	088H
	DB	029H
	DB	089H
	DB	029H
	DB	088H
	DB	029H
	DB	088H
	DB	029H
	DB	089H
	DB	029H
	DB	089H
	DB	029H
	DB	089H
	DB	029H
	DB	088H
	DB	029H
	DB	089H
	DB	029H
	DB	088H
	DB	029H
	DB	088H
	DB	029H
	DB	088H
	DB	029H
	DB	068H
	DB	029H
	DB	088H
	DB	029H
	DB	088H
	DB	021H
	DB	068H
	DB	029H
	DB	068H
	DB	029H
	DB	088H
	DB	021H
	DB	068H
	DB	029H
	DB	068H
	DB	029H
	DB	068H
	DB	029H
	DB	068H
	DB	021H
	DB	068H
	DB	021H
	DB	067H
	DB	029H
	DB	047H
	DB	021H
	DB	068H
	DB	021H
	DB	068H
	DB	029H
	DB	068H
	DB	029H
	DB	068H
	DB	021H
	DB	067H
	DB	021H
	DB	047H
	DB	029H
	DB	067H
	DB	021H
	DB	067H
	DB	021H
	DB	047H
	DB	021H
	DB	047H
	DB	021H
	DB	047H
	DB	021H
	DB	047H
	DB	021H
	DB	047H
	DB	021H
	DB	047H
	DB	021H
	DB	047H
	DB	021H
	DB	047H
	DB	021H
	DB	047H
	DB	021H
	DB	027H
	DB	021H
	DB	047H
	DB	021H
	DB	046H
	DB	019H
	DB	027H
	DB	021H
	DB	047H
	DB	019H
	DB	027H
	DB	021H
	DB	026H
	DB	019H
	DB	026H
	DB	021H
	DB	026H
	DB	021H
	DB	027H
	DB	019H
	DB	026H
	DB	021H
	DB	06H
	DB	019H
	DB	026H
	DB	019H
	DB	026H
	DB	019H
	DB	06H
	DB	019H
	DB	06H
	DB	019H
	DB	06H
	DB	021H
	DB	06H
	DB	019H
	DB	06H
	DB	021H
	DB	05H
	DB	019H
	DB	06H
	DB	019H
	DB	06H
	DB	019H
	DB	0e6H
	DB	018H
	DB	05H
	DB	019H
	DB	05H
	DB	019H
	DB	0e5H
	DB	018H
	DB	0e5H
	DB	018H
	DB	0e5H
	DB	018H
	DB	0e5H
	DB	018H
	DB	0e5H
	DB	010H
	DB	0e5H
	DB	018H
	DB	0e5H
	DB	018H
	DB	0e4H
	DB	018H
	DB	0c4H
	DB	010H
	DB	0e5H
	DB	018H
	DB	0c5H
	DB	018H
	DB	0c5H
	DB	018H
	DB	0c4H
	DB	010H
	DB	0c5H
	DB	018H
	DB	0c4H
	DB	018H
	DB	0c4H
	DB	010H
	DB	0c4H
	DB	018H
	DB	0c4H
	DB	010H
	DB	0a4H
	DB	010H
	DB	0a4H
	DB	010H
	DB	0c3H
	DB	010H
	DB	0a4H
	DB	010H
	DB	0a4H
	DB	010H
	DB	0a4H
	DB	010H
	DB	0a4H
	DB	010H
	DB	083H
	DB	010H
	DB	0a3H
	DB	010H
	DB	083H
	DB	010H
	DB	0a3H
	DB	010H
	DB	083H
	DB	010H
	DB	083H
	DB	010H
	DB	083H
	DB	010H
	DB	083H
	DB	08H
	DB	083H
	DB	010H
	DB	083H
	DB	010H
	DB	082H
	DB	010H
	DB	083H
	DB	08H
	DB	063H
	DB	08H
	DB	082H
	DB	08H
	DB	062H
	DB	010H
	DB	062H
	DB	08H
	DB	062H
	DB	08H
	DB	062H
	DB	08H
	DB	062H
	DB	08H
	DB	062H
	DB	08H
	DB	042H
	DB	08H
	DB	061H
	DB	08H
	DB	062H
	DB	08H
	DB	042H
	DB	08H
	DB	041H
	DB	08H
	DB	041H
	DB	08H
	DB	041H
	DB	00H
	DB	041H
	DB	08H
	DB	021H
	DB	00H
	DB	021H
	DB	08H
	DB	021H
	DB	08H
	DB	021H
	DB	00H
	DB	021H
	DB	00H
	DB	021H
	DB	00H
	DB	021H
	DB	08H
	DB	020H
	DB	08H
	DB	021H
	DB	00H
	DB	020H
	DB	00H
	DB	020H
	DB	00H
	DB	00H
	DB	00H
	DB	00H
	DB	00H
	DB	00H
	DB	00H
	DB	00H
	DB	00H
	DB	00H
	DB	00H
	DB	00H
	DB	00H
	DB	00H
	DB	00H
	DB	00H
	DB	00H
	DB	00H
	DB	00H
	DB	00H
	DB	00H
	DB	00H
	DB	00H
	DB	00H
	DB	00H
	DB	00H
	DB	00H
	DB	00H
	DB	00H
	DB	00H
	DB	00H
	DB	00H
	DB	00H
	DB	00H
	DB	00H
	DB	00H
	DB	00H
	DB	00H
	DB	00H
	DB	00H
	DB	00H
	DB	00H
	DB	00H
	DB	00H
	DB	00H
	DB	00H
	DB	00H
	DB	00H
	DB	00H
	DB	00H
	DB	00H
	DB	00H
	DB	00H
	DB	00H
	DB	00H
	DB	00H
	DB	00H
	DB	00H
	DB	00H
	DB	00H
	DB	00H
	DB	00H
	DB	00H
	DB	00H
	DB	00H
	DB	00H
	DB	00H
	DB	00H
	DB	00H
	DB	00H
	DB	00H
	DB	00H
	DB	00H
	DB	00H
	DB	00H
	DB	00H
	DB	00H
	DB	00H
	DB	00H
	DB	020H
	DB	00H
	DB	00H
	DB	00H
	DB	01H
	DB	08H
	DB	021H
	DB	00H
	DB	020H
	DB	08H
	DB	021H
	DB	00H
	DB	021H
	DB	08H
	DB	021H
	DB	00H
	DB	021H
	DB	00H
	DB	041H
	DB	08H
	DB	041H
	DB	08H
	DB	041H
	DB	08H
	DB	021H
	DB	00H
	DB	041H
	DB	08H
	DB	042H
	DB	08H
	DB	042H
	DB	08H
	DB	041H
	DB	08H
	DB	042H
	DB	08H
	DB	062H
	DB	08H
	DB	062H
	DB	08H
	DB	062H
	DB	08H
	DB	062H
	DB	08H
	DB	062H
	DB	08H
	DB	062H
	DB	08H
	DB	062H
	DB	010H
	DB	062H
	DB	010H
	DB	083H
	DB	08H
	DB	083H
	DB	08H
	DB	082H
	DB	010H
	DB	083H
	DB	010H
	DB	083H
	DB	010H
	DB	083H
	DB	010H
	DB	083H
	DB	010H
	DB	083H
	DB	010H
	DB	0a3H
	DB	010H
	DB	083H
	DB	010H
	DB	0a3H
	DB	010H
	DB	084H
	DB	010H
	DB	0a4H
	DB	010H
	DB	0a3H
	DB	010H
	DB	0a4H
	DB	010H
	DB	0a3H
	DB	010H
	DB	0c4H
	DB	010H
	DB	0c4H
	DB	010H
	DB	0c4H
	DB	010H
	DB	0c4H
	DB	010H
	DB	0c4H
	DB	018H
	DB	0a4H
	DB	018H
	DB	0c4H
	DB	010H
	DB	0c4H
	DB	018H
	DB	0c4H
	DB	018H
	DB	0c4H
	DB	010H
	DB	0c5H
	DB	018H
	DB	0c5H
	DB	018H
	DB	0e5H
	DB	010H
	DB	0e5H
	DB	018H
	DB	0e5H
	DB	018H
	DB	0c5H
	DB	018H
	DB	0e5H
	DB	018H
	DB	0e5H
	DB	018H
	DB	0e5H
	DB	018H
	DB	0e5H
	DB	018H
	DB	0e5H
	DB	010H
	DB	05H
	DB	019H
	DB	05H
	DB	019H
	DB	06H
	DB	019H
	DB	06H
	DB	019H
	DB	0e6H
	DB	018H
	DB	05H
	DB	019H
	DB	06H
	DB	021H
	DB	06H
	DB	019H
	DB	06H
	DB	019H
	DB	026H
	DB	021H
	DB	06H
	DB	019H
	DB	026H
	DB	019H
	DB	026H
	DB	021H
	DB	026H
	DB	019H
	DB	026H
	DB	021H
	DB	026H
	DB	021H
	DB	026H
	DB	021H
	DB	027H
	DB	021H
	DB	027H
	DB	019H
	DB	026H
	DB	021H
	DB	026H
	DB	021H
	DB	027H
	DB	021H
	DB	046H
	DB	021H
	DB	047H
	DB	021H
	DB	027H
	DB	021H
	DB	047H
	DB	021H
	DB	047H
	DB	021H
	DB	047H
	DB	021H
	DB	047H
	DB	021H
	DB	047H
	DB	021H
	DB	047H
	DB	021H
	DB	047H
	DB	021H
	DB	047H
	DB	021H
	DB	047H
	DB	021H
	DB	067H
	DB	021H
	DB	048H
	DB	021H
	DB	067H
	DB	021H
	DB	068H
	DB	029H
	DB	067H
	DB	029H
	DB	068H
	DB	029H
	DB	068H
	DB	021H
	DB	067H
	DB	021H
	DB	068H
	DB	021H
	DB	068H
	DB	029H
	DB	067H
	DB	029H
	DB	068H
	DB	021H
	DB	068H
	DB	021H
	DB	068H
	DB	029H
	DB	068H
	DB	029H
	DB	068H
	DB	029H
	DB	088H
	DB	021H
	DB	088H
	DB	021H
	DB	068H
	DB	029H
	DB	088H
	DB	029H
	DB	088H
	DB	029H
	DB	068H
	DB	029H
	DB	088H
	DB	029H
	DB	089H
	DB	029H
	DB	089H
	DB	029H
	DB	088H
	DB	029H
	DB	088H
	DB	029H
	DB	089H
	DB	029H
	DB	089H
	DB	029H
	DB	089H
	DB	029H
	DB	088H
	DB	029H
	DB	089H
	DB	029H
	DB	089H
	DB	029H
	DB	089H
	DB	029H
	DB	089H
	DB	029H
	DB	0a9H
	DB	029H
	DB	089H
	DB	029H
	DB	0a9H
	DB	029H
	DB	089H
	DB	029H
	DB	0a9H
	DB	029H
	DB	0a9H
	DB	029H
	DB	0a9H
	DB	029H
	DB	0a9H
	DB	029H
	DB	0a9H
	DB	029H
	DB	0a9H
	DB	029H
	DB	0a9H
	DB	029H
	DB	089H
	DB	029H
	DB	0a9H
	DB	029H
	DB	0a9H
	DB	031H
	DB	0a9H
	DB	029H
	DB	0a9H
	DB	029H
	DB	0a9H
	DB	029H
	DB	0a9H
	DB	031H
	DB	0a9H
	DB	031H
	DB	0a9H
	DB	029H
	DB	0a9H
	DB	031H
	DB	0a9H
	DB	029H
	DB	0a9H
	DB	031H
	DB	0a9H
	DB	029H
	DB	0a9H
	DB	029H
	DB	0a9H
	DB	031H
	DB	0a9H
	DB	029H
	DB	0aaH
	DB	029H
	DB	0a9H
	DB	031H
	DB	0a9H
	DB	031H
	DB	0aaH
	DB	029H
	DB	0a9H
	DB	031H
	DB	0aaH
	DB	029H
	DB	0aaH
	DB	029H
	DB	0aaH
	DB	031H
	DB	0aaH
	DB	029H
	DB	0c9H
	DB	029H
	DB	0aaH
	DB	029H
	DB	0caH
	DB	029H
	DB	0caH
	DB	031H
	DB	0a9H
	DB	031H
	DB	0aaH
	DB	031H
	DB	0caH
	DB	029H
	DB	0caH
	DB	031H
	DB	0aaH
	DB	031H
	DB	0caH
	DB	029H
	DB	0aaH
	DB	029H
	DB	0aaH
	DB	031H
	DB	0caH
	DB	031H
	DB	0aaH
	DB	029H
	DB	0aaH
	DB	031H
	DB	0a9H
	DB	029H
	DB	0aaH
	DB	031H
	DB	0aaH
	DB	031H
	DB	0a9H
	DB	029H
	DB	0aaH
	DB	029H
	DB	0caH
	DB	031H
	DB	0c9H
	DB	029H
	DB	0aaH
	DB	029H
	DB	0aaH
	DB	031H
	DB	0aaH
	DB	029H
	DB	0a9H
	DB	031H
	DB	0aaH
	DB	029H
	DB	0a9H
	DB	031H
	DB	0aaH
	DB	031H
	DB	0a9H
	DB	029H
	DB	0a9H
	DB	029H
	DB	0a9H
	DB	031H
	DB	0a9H
	DB	031H
	DB	0a9H
	DB	029H
	DB	0a9H
	DB	029H
	DB	0a9H
	DB	031H
	DB	0a9H
	DB	029H
	DB	0a9H
	DB	029H
	DB	0a9H
	DB	029H
	DB	0a9H
	DB	029H
	DB	0a9H
	DB	029H
	DB	0a9H
	DB	029H
	DB	0a9H
	DB	029H
	DB	0a9H
	DB	029H
	DB	0a9H
	DB	029H
	DB	0a9H
	DB	029H
	DB	0a9H
	DB	029H
	DB	089H
	DB	029H
	DB	0a9H
	DB	029H
	DB	0a9H
	DB	029H
	DB	0a9H
	DB	029H
	DB	0a9H
	DB	029H
	DB	089H
	DB	029H
	DB	089H
	DB	029H
	DB	0a9H
	DB	029H
	DB	089H
	DB	029H
	DB	089H
	DB	029H
	DB	088H
	DB	029H
	DB	088H
	DB	029H
	DB	089H
	DB	029H
	DB	089H
	DB	029H
	DB	089H
	DB	029H
	DB	089H
	DB	029H
	DB	088H
	DB	029H
	DB	089H
	DB	029H
	DB	088H
	DB	029H
	DB	088H
	DB	029H
	DB	088H
	DB	029H
	DB	088H
	DB	029H
	DB	088H
	DB	021H
	DB	068H
	DB	029H
	DB	068H
	DB	021H
	DB	088H
	DB	029H
	DB	068H
	DB	029H
	DB	068H
	DB	029H
	DB	068H
	DB	021H
	DB	068H
	DB	029H
	DB	068H
	DB	021H
	DB	067H
	DB	029H
	DB	068H
	DB	021H
	DB	068H
	DB	021H
	DB	048H
	DB	029H
	DB	068H
	DB	021H
	DB	048H
	DB	021H
	DB	068H
	DB	029H
	DB	047H
	DB	021H
	DB	067H
	DB	021H
	DB	047H
	DB	021H
	DB	047H
	DB	021H
	DB	047H
	DB	021H
	DB	047H
	DB	021H
	DB	047H
	DB	021H
	DB	047H
	DB	021H
	DB	047H
	DB	021H
	DB	047H
	DB	021H
	DB	047H
	DB	021H
	DB	027H
	DB	021H
	DB	047H
	DB	021H
	DB	027H
	DB	021H
	DB	026H
	DB	021H
	DB	027H
	DB	021H
	DB	027H
	DB	019H
	DB	027H
	DB	021H
	DB	026H
	DB	021H
	DB	026H
	DB	021H
	DB	026H
	DB	021H
	DB	026H
	DB	021H
	DB	06H
	DB	021H
	DB	026H
	DB	021H
	DB	026H
	DB	019H
	DB	026H
	DB	019H
	DB	06H
	DB	021H
	DB	06H
	DB	019H
	DB	06H
	DB	019H
	DB	05H
	DB	019H
	DB	06H
	DB	019H
	DB	06H
	DB	019H
	DB	06H
	DB	019H
	DB	05H
	DB	019H
	DB	06H
	DB	019H
	DB	05H
	DB	019H
	DB	0e5H
	DB	018H
	DB	0e5H
	DB	018H
	DB	0e5H
	DB	018H
	DB	0e5H
	DB	018H
	DB	0e5H
	DB	018H
	DB	0e5H
	DB	018H
	DB	0e5H
	DB	010H
	DB	0e4H
	DB	018H
	DB	0c5H
	DB	018H
	DB	0e5H
	DB	010H
	DB	0e4H
	DB	018H
	DB	0c4H
	DB	010H
	DB	0c4H
	DB	010H
	DB	0c4H
	DB	018H
	DB	0c4H
	DB	010H
	DB	0c4H
	DB	010H
	DB	0c4H
	DB	018H
	DB	0a4H
	DB	018H
	DB	0c4H
	DB	010H
	DB	0a4H
	DB	010H
	DB	0a3H
	DB	010H
	DB	0a4H
	DB	010H
	DB	0a4H
	DB	010H
	DB	0a4H
	DB	010H
	DB	0a4H
	DB	010H
	DB	0a3H
	DB	010H
	DB	083H
	DB	010H
	DB	0a3H
	DB	010H
	DB	083H
	DB	08H
	DB	083H
	DB	010H
	DB	083H
	DB	010H
	DB	083H
	DB	010H
	DB	083H
	DB	010H
	DB	083H
	DB	08H
	DB	082H
	DB	010H
	DB	063H
	DB	010H
	DB	083H
	DB	010H
	DB	063H
	DB	08H
	DB	062H
	DB	010H
	DB	062H
	DB	08H
	DB	062H
	DB	08H
	DB	062H
	DB	08H
	DB	062H
	DB	08H
	DB	042H
	DB	08H
	DB	042H
	DB	08H
	DB	042H
	DB	08H
	DB	042H
	DB	08H
	DB	042H
	DB	08H
	DB	042H
	DB	08H
	DB	041H
	DB	08H
	DB	041H
	DB	00H
	DB	021H
	DB	08H
	DB	041H
	DB	00H
	DB	041H
	DB	08H
	DB	021H
	DB	08H
	DB	021H
	DB	00H
	DB	020H
	DB	00H
	DB	021H
	DB	00H
	DB	021H
	DB	08H
	DB	020H
	DB	00H
	DB	021H
	DB	00H
	DB	00H
	DB	08H
	DB	00H
	DB	00H
	DB	00H
	DB	00H
	DB	00H
	DB	00H
	DB	00H
	DB	00H
	DB	00H
	DB	00H
	DB	00H
	DB	00H
	DB	00H
	DB	00H
	DB	00H
	DB	00H
	DB	00H
	DB	00H
	DB	00H
	DB	00H
	DB	00H
	DB	00H
	DB	00H
	DB	00H
	DB	00H
	DB	00H
	DB	00H
	DB	00H
	DB	00H
	DB	00H
	DB	00H
	DB	00H
	DB	00H
	DB	00H
	DB	00H
	DB	00H
	DB	00H
	DB	00H
	DB	00H
	DB	00H
	DB	00H
	DB	00H
	DB	00H
	DB	00H
	DB	00H
	DB	00H
	DB	00H
	DB	00H
	DB	00H
	DB	00H
	DB	00H
	DB	00H
	DB	00H
	DB	00H
	DB	00H
	DB	00H
	DB	00H
	DB	00H
	DB	00H
	DB	00H
	DB	00H
	DB	00H
	DB	00H
	DB	00H
	DB	00H
	DB	00H
	DB	00H
	DB	00H
	DB	00H
	DB	00H
	DB	00H
	DB	00H
	DB	00H
	DB	00H
	DB	00H
	DB	00H
	DB	00H
	DB	00H
	DB	021H
	DB	00H
	DB	020H
	DB	00H
	DB	021H
	DB	08H
	DB	020H
	DB	00H
	DB	021H
	DB	00H
	DB	021H
	DB	08H
	DB	020H
	DB	00H
	DB	021H
	DB	08H
	DB	021H
	DB	08H
	DB	041H
	DB	00H
	DB	021H
	DB	08H
	DB	041H
	DB	08H
	DB	042H
	DB	08H
	DB	042H
	DB	08H
	DB	042H
	DB	08H
	DB	061H
	DB	08H
	DB	062H
	DB	08H
	DB	062H
	DB	08H
	DB	062H
	DB	08H
	DB	062H
	DB	08H
	DB	062H
	DB	08H
	DB	062H
	DB	08H
	DB	062H
	DB	08H
	DB	062H
	DB	08H
	DB	063H
	DB	010H
	DB	063H
	DB	010H
	DB	082H
	DB	08H
	DB	083H
	DB	08H
	DB	083H
	DB	010H
	DB	083H
	DB	010H
	DB	083H
	DB	010H
	DB	083H
	DB	08H
	DB	083H
	DB	010H
	DB	0a3H
	DB	010H
	DB	083H
	DB	010H
	DB	0a3H
	DB	010H
	DB	0a3H
	DB	010H
	DB	0a4H
	DB	010H
	DB	0a3H
	DB	010H
	DB	0a4H
	DB	010H
	DB	0a4H
	DB	010H
	DB	0a4H
	DB	010H
	DB	0a4H
	DB	010H
	DB	0a4H
	DB	010H
	DB	0c4H
	DB	018H
	DB	0c4H
	DB	010H
	DB	0a4H
	DB	010H
	DB	0c4H
	DB	018H
	DB	0c4H
	DB	010H
	DB	0c4H
	DB	018H
	DB	0c5H
	DB	010H
	DB	0e4H
	DB	018H
	DB	0e5H
	DB	018H
	DB	0e5H
	DB	010H
	DB	0e4H
	DB	018H
	DB	0e5H
	DB	018H
	DB	0e5H
	DB	018H
	DB	0e5H
	DB	018H
	DB	0e5H
	DB	018H
	DB	0e5H
	DB	018H
	DB	05H
	DB	019H
	DB	05H
	DB	019H
	DB	0e5H
	DB	018H
	DB	05H
	DB	019H
	DB	06H
	DB	019H
	DB	05H
	DB	019H
	DB	05H
	DB	019H
	DB	06H
	DB	019H
	DB	06H
	DB	019H
	DB	06H
	DB	021H
	DB	06H
	DB	019H
	DB	026H
	DB	021H
	DB	06H
	DB	021H
	DB	06H
	DB	019H
	DB	06H
	DB	021H
	DB	06H
	DB	021H
	DB	026H
	DB	021H
	DB	026H
	DB	019H
	DB	027H
	DB	021H
	DB	026H
	DB	021H
	DB	026H
	DB	021H
	DB	027H
	DB	019H
	DB	027H
	DB	021H
	DB	047H
	DB	021H
	DB	047H
	DB	021H
	DB	027H
	DB	021H
	DB	047H
	DB	021H
	DB	047H
	DB	021H
	DB	047H
	DB	021H
	DB	047H
	DB	021H
	DB	047H
	DB	021H
	DB	047H
	DB	021H
	DB	047H
	DB	021H
	DB	047H
	DB	021H
	DB	047H
	DB	021H
	DB	048H
	DB	021H
	DB	047H
	DB	029H
	DB	068H
	DB	029H
	DB	068H
	DB	021H
	DB	068H
	DB	029H
	DB	067H
	DB	021H
	DB	068H
	DB	021H
	DB	048H
	DB	029H
	DB	068H
	DB	029H
	DB	068H
	DB	029H
	DB	068H
	DB	029H
	DB	068H
	DB	029H
	DB	068H
	DB	029H
	DB	068H
	DB	029H
	DB	068H
	DB	029H
	DB	088H
	DB	021H
	DB	068H
	DB	029H
	DB	088H
	DB	029H
	DB	088H
	DB	029H
	DB	088H
	DB	029H
	DB	088H
	DB	029H
	DB	088H
	DB	029H
	DB	089H
	DB	021H
	DB	089H
	DB	029H
	DB	088H
	DB	029H
	DB	089H
	DB	029H
	DB	089H
	DB	029H
	DB	088H
	DB	029H
	DB	089H
	DB	029H
	DB	088H
	DB	029H
	DB	089H
	DB	029H
	DB	089H
	DB	029H
	DB	0a9H
	DB	029H
	DB	089H
	DB	029H
	DB	0a8H
	DB	029H
	DB	089H
	DB	029H
	DB	0a9H
	DB	029H
	DB	0a9H
	DB	029H
	DB	089H
	DB	029H
	DB	0a9H
	DB	029H
	DB	0a9H
	DB	029H
	DB	0a9H
	DB	029H
	DB	0a9H
	DB	029H
	DB	0a9H
	DB	029H
	DB	0a9H
	DB	029H
	DB	0a9H
	DB	031H
	DB	0a9H
	DB	029H
	DB	0a9H
	DB	029H
	DB	0a9H
	DB	031H
	DB	0a9H
	DB	029H
	DB	0a9H
	DB	029H
	DB	0a9H
	DB	031H
	DB	0a9H
	DB	031H
	DB	0a9H
	DB	029H
	DB	0a9H
	DB	031H
	DB	0a9H
	DB	029H
	DB	0aaH
	DB	029H
	DB	0a9H
	DB	031H
	DB	0caH
	DB	029H
	DB	0aaH
	DB	031H
	DB	0aaH
	DB	031H
	DB	0aaH
	DB	029H
	DB	0c9H
	DB	031H
	DB	0caH
	DB	031H
	DB	0aaH
	DB	029H
	DB	0a9H
	DB	031H
	DB	0aaH
	DB	031H
	DB	0caH
	DB	029H
	DB	0caH
	DB	031H
	DB	0c9H
	DB	031H
	DB	0caH
	DB	029H
	DB	0aaH
	DB	031H
	DB	0caH
	DB	031H
	DB	0c9H
	DB	031H
	DB	0aaH
	DB	031H
	DB	0caH
	DB	029H
	DB	0c9H
	DB	031H
	DB	0caH
	DB	031H
	DB	0caH
	DB	029H
	DB	0a9H
	DB	031H
	DB	0c9H
	DB	029H
	DB	0caH
	DB	031H
	DB	0aaH
	DB	031H
	DB	0c9H
	DB	029H
	DB	0caH
	DB	029H
	DB	0caH
	DB	031H
	DB	0caH
	DB	029H
	DB	0caH
	DB	029H
	DB	0c9H
	DB	031H
	DB	0caH
	DB	031H
	DB	0caH
	DB	029H
	DB	0c9H
	DB	029H
	DB	0aaH
	DB	031H
	DB	0caH
	DB	031H
	DB	0caH
	DB	029H
	DB	0a9H
	DB	031H
	DB	0c9H
	DB	031H
	DB	0caH
	DB	029H
	DB	0aaH
	DB	029H
	DB	0c9H
	DB	031H
	DB	0aaH
	DB	029H
	DB	0caH
	DB	031H
	DB	0aaH
	DB	029H
	DB	0aaH
	DB	031H
	DB	0a9H
	DB	029H
	DB	0aaH
	DB	031H
	DB	0a9H
	DB	029H
	DB	0a9H
	DB	031H
	DB	0aaH
	DB	031H
	DB	0a9H
	DB	029H
	DB	0a9H
	DB	031H
	DB	0a9H
	DB	031H
	DB	0a9H
	DB	029H
	DB	0a9H
	DB	029H
	DB	0a9H
	DB	031H
	DB	0a9H
	DB	029H
	DB	0a9H
	DB	029H
	DB	089H
	DB	031H
	DB	089H
	DB	029H
	DB	0a9H
	DB	029H
	DB	0a9H
	DB	029H
	DB	0a9H
	DB	029H
	DB	0a9H
	DB	029H
	DB	089H
	DB	029H
	DB	0a9H
	DB	029H
	DB	0a9H
	DB	029H
	DB	089H
	DB	029H
	DB	089H
	DB	029H
	DB	0a9H
	DB	029H
	DB	089H
	DB	029H
	DB	089H
	DB	029H
	DB	089H
	DB	029H
	DB	089H
	DB	029H
	DB	088H
	DB	029H
	DB	089H
	DB	029H
	DB	088H
	DB	021H
	DB	089H
	DB	029H
	DB	089H
	DB	029H
	DB	088H
	DB	029H
	DB	089H
	DB	021H
	DB	088H
	DB	029H
	DB	088H
	DB	029H
	DB	088H
	DB	029H
	DB	088H
	DB	029H
	DB	088H
	DB	029H
	DB	088H
	DB	021H
	DB	088H
	DB	029H
	DB	068H
	DB	029H
	DB	068H
	DB	029H
	DB	068H
	DB	029H
	DB	068H
	DB	029H
	DB	068H
	DB	029H
	DB	068H
	DB	021H
	DB	067H
	DB	029H
	DB	068H
	DB	021H
	DB	068H
	DB	029H
	DB	068H
	DB	021H
	DB	068H
	DB	029H
	DB	067H
	DB	021H
	DB	048H
	DB	021H
	DB	068H
	DB	021H
	DB	047H
	DB	021H
	DB	047H
	DB	021H
	DB	047H
	DB	021H
	DB	047H
	DB	021H
	DB	047H
	DB	021H
	DB	047H
	DB	021H
	DB	047H
	DB	021H
	DB	047H
	DB	021H
	DB	047H
	DB	021H
	DB	047H
	DB	021H
	DB	046H
	DB	021H
	DB	047H
	DB	021H
	DB	047H
	DB	021H
	DB	026H
	DB	021H
	DB	027H
	DB	021H
	DB	027H
	DB	021H
	DB	026H
	DB	019H
	DB	026H
	DB	021H
	DB	027H
	DB	021H
	DB	026H
	DB	021H
	DB	026H
	DB	021H
	DB	026H
	DB	019H
	DB	06H
	DB	021H
	DB	026H
	DB	021H
	DB	06H
	DB	019H
	DB	06H
	DB	021H
	DB	06H
	DB	021H
	DB	05H
	DB	019H
	DB	05H
	DB	019H
	DB	06H
	DB	019H
	DB	0e6H
	DB	018H
	DB	05H
	DB	019H
	DB	0e6H
	DB	018H
	DB	05H
	DB	019H
	DB	0e5H
	DB	018H
	DB	0e5H
	DB	018H
	DB	0e5H
	DB	018H
	DB	0e5H
	DB	018H
	DB	0e5H
	DB	018H
	DB	0e5H
	DB	018H
	DB	0e5H
	DB	018H
	DB	0e5H
	DB	010H
	DB	0e4H
	DB	018H
	DB	0c5H
	DB	018H
	DB	0c5H
	DB	018H
	DB	0c4H
	DB	018H
	DB	0c4H
	DB	010H
	DB	0c4H
	DB	010H
	DB	0c4H
	DB	018H
	DB	0c4H
	DB	010H
	DB	0c4H
	DB	010H
	DB	0c4H
	DB	010H
	DB	0c4H
	DB	018H
	DB	0a4H
	DB	010H
	DB	0a4H
	DB	010H
	DB	0c3H
	DB	010H
	DB	0a4H
	DB	010H
	DB	0a4H
	DB	010H
	DB	0a4H
	DB	010H
	DB	0a3H
	DB	010H
	DB	0a3H
	DB	010H
	DB	0a3H
	DB	010H
	DB	083H
	DB	010H
	DB	0a3H
	DB	010H
	DB	083H
	DB	08H
	DB	083H
	DB	08H
	DB	083H
	DB	010H
	DB	083H
	DB	010H
	DB	082H
	DB	08H
	DB	063H
	DB	08H
	DB	083H
	DB	08H
	DB	062H
	DB	08H
	DB	062H
	DB	010H
	DB	062H
	DB	08H
	DB	062H
	DB	08H
	DB	062H
	DB	08H
	DB	042H
	DB	08H
	DB	062H
	DB	08H
	DB	062H
	DB	08H
	DB	041H
	DB	08H
	DB	041H
	DB	08H
	DB	042H
	DB	08H
	DB	042H
	DB	08H
	DB	041H
	DB	08H
	DB	041H
	DB	08H
	DB	041H
	DB	00H
	DB	021H
	DB	08H
	DB	041H
	DB	08H
	DB	021H
	DB	08H
	DB	021H
	DB	08H
	DB	021H
	DB	00H
	DB	021H
	DB	00H
	DB	020H
	DB	00H
	DB	01H
	DB	00H
	DB	01H
	DB	00H
	DB	00H
	DB	00H
	DB	00H
	DB	00H
	DB	00H
	DB	00H
	DB	00H
	DB	00H
	DB	00H
	DB	00H
	DB	00H
	DB	00H
	DB	00H
	DB	00H
	DB	00H
	DB	00H
	DB	00H
	DB	00H
	DB	00H
	DB	00H
	DB	00H
	DB	00H
	DB	00H
	DB	00H
	DB	00H
	DB	00H
	DB	00H
	DB	00H
	DB	00H
	DB	00H
	DB	00H
	DB	00H
	DB	00H
	DB	00H
	DB	00H
	DB	00H
	DB	00H
	DB	00H
	DB	00H
	DB	00H
	DB	00H
	DB	00H
	DB	00H
	DB	00H
	DB	00H
	DB	00H
	DB	00H
	DB	00H
	DB	00H
	DB	00H
	DB	00H
	DB	00H
	DB	00H
	DB	00H
	DB	00H
	DB	00H
	DB	00H
	DB	00H
	DB	00H
	DB	00H
	DB	00H
	DB	00H
	DB	00H
	DB	00H
	DB	00H
	DB	00H
	DB	00H
	DB	00H
	DB	00H
	DB	00H
	DB	00H
	DB	00H
	DB	00H
	DB	00H
	DB	00H
	DB	00H
	DB	021H
	DB	00H
	DB	00H
	DB	00H
	DB	021H
	DB	08H
	DB	021H
	DB	00H
	DB	020H
	DB	00H
	DB	021H
	DB	08H
	DB	021H
	DB	08H
	DB	021H
	DB	00H
	DB	041H
	DB	08H
	DB	041H
	DB	08H
	DB	041H
	DB	08H
	DB	041H
	DB	00H
	DB	041H
	DB	08H
	DB	041H
	DB	08H
	DB	042H
	DB	08H
	DB	042H
	DB	08H
	DB	042H
	DB	08H
	DB	062H
	DB	08H
	DB	062H
	DB	08H
	DB	062H
	DB	08H
	DB	062H
	DB	08H
	DB	062H
	DB	08H
	DB	062H
	DB	010H
	DB	062H
	DB	08H
	DB	083H
	DB	08H
	DB	083H
	DB	010H
	DB	062H
	DB	08H
	DB	083H
	DB	010H
	DB	083H
	DB	010H
	DB	083H
	DB	08H
	DB	083H
	DB	010H
	DB	083H
	DB	010H
	DB	0a3H
	DB	08H
	DB	083H
	DB	010H
	DB	0a3H
	DB	010H
	DB	0a3H
	DB	08H
	DB	0a4H
	DB	010H
	DB	0a4H
	DB	010H
	DB	0a3H
	DB	010H
	DB	0a4H
	DB	010H
	DB	0a4H
	DB	010H
	DB	0c3H
	DB	010H
	DB	0c4H
	DB	010H
	DB	0a4H
	DB	010H
	DB	0c4H
	DB	018H
	DB	0c4H
	DB	018H
	DB	0c4H
	DB	010H
	DB	0c4H
	DB	010H
	DB	0c4H
	DB	018H
	DB	0c5H
	DB	018H
	DB	0e5H
	DB	010H
	DB	0c5H
	DB	018H
	DB	0e5H
	DB	018H
	DB	0e5H
	DB	010H
	DB	0c5H
	DB	018H
	DB	0e5H
	DB	018H
	DB	0e5H
	DB	018H
	DB	0e5H
	DB	010H
	DB	0e5H
	DB	018H
	DB	0e5H
	DB	018H
	DB	0e5H
	DB	018H
	DB	05H
	DB	019H
	DB	06H
	DB	019H
	DB	06H
	DB	019H
	DB	06H
	DB	019H
	DB	05H
	DB	019H
	DB	06H
	DB	019H
	DB	06H
	DB	019H
	DB	06H
	DB	021H
	DB	026H
	DB	021H
	DB	06H
	DB	019H
	DB	026H
	DB	019H
	DB	026H
	DB	019H
	DB	026H
	DB	021H
	DB	026H
	DB	019H
	DB	026H
	DB	019H
	DB	026H
	DB	021H
	DB	027H
	DB	021H
	DB	027H
	DB	019H
	DB	027H
	DB	021H
	DB	026H
	DB	021H
	DB	027H
	DB	021H
	DB	027H
	DB	021H
	DB	047H
	DB	021H
	DB	047H
	DB	021H
	DB	027H
	DB	021H
	DB	047H
	DB	021H
	DB	047H
	DB	021H
	DB	047H
	DB	021H
	DB	047H
	DB	021H
	DB	047H
	DB	021H
	DB	047H
	DB	021H
	DB	047H
	DB	021H
	DB	047H
	DB	021H
	DB	047H
	DB	021H
	DB	047H
	DB	029H
	DB	068H
	DB	021H
	DB	068H
	DB	021H
	DB	067H
	DB	021H
	DB	068H
	DB	029H
	DB	048H
	DB	029H
	DB	068H
	DB	021H
	DB	068H
	DB	029H
	DB	068H
	DB	021H
	DB	068H
	DB	029H
	DB	068H
	DB	021H
	DB	068H
	DB	021H
	DB	068H
	DB	029H
	DB	088H
	DB	021H
	DB	068H
	DB	029H
	DB	088H
	DB	029H
	DB	088H
	DB	029H
	DB	088H
	DB	021H
	DB	068H
	DB	029H
	DB	089H
	DB	029H
	DB	068H
	DB	029H
	DB	088H
	DB	021H
	DB	089H
	DB	029H
	DB	089H
	DB	029H
	DB	088H
	DB	029H
	DB	089H
	DB	029H
	DB	089H
	DB	029H
	DB	089H
	DB	029H
	DB	089H
	DB	029H
	DB	089H
	DB	029H
	DB	089H
	DB	029H
	DB	089H
	DB	029H
	DB	0a9H
	DB	029H
	DB	0a9H
	DB	029H
	DB	0a9H
	DB	029H
	DB	0a9H
	DB	029H
	DB	0a9H
	DB	029H
	DB	0a9H
	DB	029H
	DB	0a9H
	DB	029H
	DB	0a9H
	DB	029H
	DB	0a9H
	DB	029H
	DB	0a9H
	DB	029H
	DB	0a9H
	DB	031H
	DB	0a9H
	DB	031H
	DB	0a9H
	DB	029H
	DB	0a9H
	DB	029H
	DB	0a9H
	DB	031H
	DB	0a9H
	DB	029H
	DB	0a9H
	DB	029H
	DB	0a9H
	DB	029H
	DB	0aaH
	DB	031H
	DB	0a9H
	DB	029H
	DB	0aaH
	DB	029H
	DB	0a9H
	DB	031H
	DB	0caH
	DB	031H
	DB	0aaH
	DB	029H
	DB	0caH
	DB	029H
	DB	0c9H
	DB	031H
	DB	0aaH
	DB	031H
	DB	0aaH
	DB	029H
	DB	0caH
	DB	029H
	DB	0caH
	DB	031H
	DB	0a9H
	DB	029H
	DB	0caH
	DB	029H
	DB	0caH
	DB	031H
	DB	0caH
	DB	029H
	DB	0caH
	DB	029H
	DB	0caH
	DB	029H
	DB	0caH
	DB	031H
	DB	0c9H
	DB	029H
	DB	0caH
	DB	029H
	DB	0aaH
	DB	031H
	DB	0c9H
	DB	029H
	DB	0c9H
	DB	029H
	DB	0aaH
	DB	031H
	DB	0caH
	DB	029H
	DB	0caH
	DB	031H
	DB	0aaH
	DB	031H
	DB	0caH
	DB	029H
	DB	0caH
	DB	031H
	DB	0caH
	DB	031H
	DB	0caH
	DB	029H
	DB	0c9H
	DB	031H
	DB	0caH
	DB	031H
	DB	0c9H
	DB	029H
	DB	0c9H
	DB	031H
	DB	0caH
	DB	031H
	DB	0c9H
	DB	031H
	DB	0caH
	DB	031H
	DB	0caH
	DB	029H
	DB	0caH
	DB	031H
	DB	0caH
	DB	029H
	DB	0caH
	DB	031H
	DB	0c9H
	DB	031H
	DB	0aaH
	DB	029H
	DB	0caH
	DB	031H
	DB	0c9H
	DB	031H
	DB	0caH
	DB	029H
	DB	0caH
	DB	031H
	DB	0c9H
	DB	031H
	DB	0caH
	DB	029H
	DB	0aaH
	DB	029H
	DB	0c9H
	DB	031H
	DB	0caH
	DB	031H
	DB	0a9H
	DB	029H
	DB	0aaH
	DB	031H
	DB	0caH
	DB	029H
	DB	0c9H
	DB	029H
	DB	0aaH
	DB	031H
	DB	0aaH
	DB	029H
	DB	0a9H
	DB	029H
	DB	0aaH
	DB	031H
	DB	0aaH
	DB	031H
	DB	0a9H
	DB	029H
	DB	0a9H
	DB	031H
	DB	0aaH
	DB	031H
	DB	0a9H
	DB	029H
	DB	0a9H
	DB	029H
	DB	0a9H
	DB	031H
	DB	0a9H
	DB	029H
	DB	0a9H
	DB	029H
	DB	0a9H
	DB	029H
	DB	0a9H
	DB	029H
	DB	0a9H
	DB	029H
	DB	0a9H
	DB	029H
	DB	0a9H
	DB	029H
	DB	0a9H
	DB	029H
	DB	089H
	DB	029H
	DB	0a9H
	DB	029H
	DB	0a9H
	DB	029H
	DB	089H
	DB	029H
	DB	0a9H
	DB	029H
	DB	0a9H
	DB	029H
	DB	089H
	DB	029H
	DB	0a9H
	DB	029H
	DB	088H
	DB	029H
	DB	089H
	DB	029H
	DB	088H
	DB	029H
	DB	089H
	DB	029H
	DB	089H
	DB	029H
	DB	088H
	DB	029H
	DB	089H
	DB	021H
	DB	088H
	DB	029H
	DB	088H
	DB	029H
	DB	088H
	DB	029H
	DB	088H
	DB	029H
	DB	088H
	DB	029H
	DB	088H
	DB	021H
	DB	088H
	DB	029H
	DB	088H
	DB	021H
	DB	068H
	DB	029H
	DB	068H
	DB	021H
	DB	068H
	DB	029H
	DB	068H
	DB	021H
	DB	068H
	DB	029H
	DB	068H
	DB	029H
	DB	067H
	DB	021H
	DB	068H
	DB	029H
	DB	068H
	DB	029H
	DB	067H
	DB	021H
	DB	068H
	DB	029H
	DB	048H
	DB	029H
	DB	068H
	DB	021H
	DB	067H
	DB	021H
	DB	047H
	DB	021H
	DB	047H
	DB	021H
	DB	047H
	DB	021H
	DB	047H
	DB	021H
	DB	047H
	DB	021H
	DB	047H
	DB	021H
	DB	047H
	DB	021H
	DB	047H
	DB	021H
	DB	047H
	DB	021H
	DB	047H
	DB	021H
	DB	027H
	DB	021H
	DB	046H
	DB	021H
	DB	027H
	DB	021H
	DB	047H
	DB	019H
	DB	046H
	DB	021H
	DB	027H
	DB	021H
	DB	027H
	DB	019H
	DB	026H
	DB	021H
	DB	026H
	DB	019H
	DB	026H
	DB	021H
	DB	026H
	DB	019H
	DB	026H
	DB	019H
	DB	026H
	DB	019H
	DB	06H
	DB	021H
	DB	06H
	DB	021H
	DB	06H
	DB	021H
	DB	06H
	DB	019H
	DB	06H
	DB	021H
	DB	05H
	DB	019H
	DB	06H
	DB	019H
	DB	06H
	DB	019H
	DB	05H
	DB	019H
	DB	06H
	DB	019H
	DB	05H
	DB	019H
	DB	0e5H
	DB	018H
	DB	0e5H
	DB	018H
	DB	0e5H
	DB	018H
	DB	0e5H
	DB	018H
	DB	0e5H
	DB	018H
	DB	0e5H
	DB	018H
	DB	0e5H
	DB	018H
	DB	0e5H
	DB	018H
	DB	0e4H
	DB	010H
	DB	0e5H
	DB	018H
	DB	0c5H
	DB	018H
	DB	0c5H
	DB	018H
	DB	0c4H
	DB	018H
	DB	0c4H
	DB	010H
	DB	0c4H
	DB	010H
	DB	0c4H
	DB	018H
	DB	0c4H
	DB	010H
	DB	0a4H
	DB	010H
	DB	0a4H
	DB	018H
	DB	0c4H
	DB	010H
	DB	0a3H
	DB	010H
	DB	0a3H
	DB	010H
	DB	0a4H
	DB	010H
	DB	0a4H
	DB	010H
	DB	0a3H
	DB	010H
	DB	0a3H
	DB	010H
	DB	083H
	DB	010H
	DB	0a3H
	DB	010H
	DB	083H
	DB	010H
	DB	083H
	DB	010H
	DB	083H
	DB	010H
	DB	083H
	DB	08H
	DB	083H
	DB	010H
	DB	082H
	DB	010H
	DB	083H
	DB	010H
	DB	082H
	DB	08H
	DB	063H
	DB	08H
	DB	062H
	DB	010H
	DB	062H
	DB	010H
	DB	062H
	DB	08H
	DB	062H
	DB	08H
	DB	062H
	DB	08H
	DB	062H
	DB	08H
	DB	062H
	DB	08H
	DB	042H
	DB	08H
	DB	062H
	DB	08H
	DB	041H
	DB	08H
	DB	042H
	DB	08H
	DB	042H
	DB	08H
	DB	021H
	DB	08H
	DB	041H
	DB	08H
	DB	041H
	DB	00H
	DB	021H
	DB	08H
	DB	041H
	DB	08H
	DB	021H
	DB	00H
	DB	021H
	DB	08H
	DB	020H
	DB	08H
	DB	021H
	DB	08H
	DB	021H
	DB	00H
	DB	020H
	DB	00H
	DB	020H
	DB	00H
	DB	01H
	DB	00H
	DB	00H
	DB	00H
	DB	00H
	DB	00H
	DB	00H
	DB	00H
	DB	00H
	DB	00H
	DB	00H
	DB	00H
	DB	00H
	DB	00H
	DB	00H
	DB	00H
	DB	00H
	DB	00H
	DB	00H
	DB	00H
	DB	00H
	DB	00H
	DB	00H
	DB	00H
	DB	00H
	DB	00H
	DB	00H
	DB	00H
	DB	00H
	DB	00H
	DB	00H
	DB	00H
	DB	00H
	DB	00H
	DB	00H
	DB	00H
	DB	00H
	DB	00H
	DB	00H
	DB	00H
	DB	00H
	DB	00H
	DB	00H
	DB	00H
	DB	00H
	DB	00H
	DB	00H
	DB	00H
	DB	00H
	DB	00H
	DB	00H
	DB	00H
	DB	00H
	DB	00H
	DB	00H
	DB	00H
	DB	00H
	DB	00H
	DB	00H
	DB	00H
	DB	00H
	DB	00H
	DB	00H
	DB	00H
	DB	00H
	DB	00H
	DB	00H
	DB	00H
	DB	020H
	DB	00H
	DB	020H
	DB	00H
	DB	01H
	DB	00H
	DB	020H
	DB	08H
	DB	021H
	DB	00H
	DB	021H
	DB	08H
	DB	021H
	DB	00H
	DB	021H
	DB	08H
	DB	021H
	DB	00H
	DB	041H
	DB	08H
	DB	041H
	DB	00H
	DB	041H
	DB	00H
	DB	041H
	DB	08H
	DB	042H
	DB	08H
	DB	042H
	DB	08H
	DB	042H
	DB	08H
	DB	061H
	DB	08H
	DB	042H
	DB	08H
	DB	042H
	DB	08H
	DB	062H
	DB	08H
	DB	062H
	DB	08H
	DB	042H
	DB	08H
	DB	062H
	DB	08H
	DB	062H
	DB	08H
	DB	062H
	DB	08H
	DB	082H
	DB	010H
	DB	063H
	DB	010H
	DB	083H
	DB	08H
	DB	083H
	DB	08H
	DB	083H
	DB	010H
	DB	083H
	DB	010H
	DB	083H
	DB	010H
	DB	083H
	DB	010H
	DB	083H
	DB	010H
	DB	0a3H
	DB	010H
	DB	083H
	DB	010H
	DB	0a3H
	DB	010H
	DB	0a4H
	DB	010H
	DB	0a3H
	DB	010H
	DB	0a4H
	DB	010H
	DB	0a4H
	DB	010H
	DB	0a4H
	DB	010H
	DB	0a4H
	DB	010H
	DB	0c4H
	DB	010H
	DB	0c4H
	DB	010H
	DB	0c4H
	DB	010H
	DB	0c4H
	DB	010H
	DB	0c4H
	DB	010H
	DB	0c4H
	DB	018H
	DB	0c4H
	DB	018H
	DB	0c5H
	DB	010H
	DB	0c5H
	DB	018H
	DB	0e4H
	DB	018H
	DB	0e4H
	DB	010H
	DB	0e5H
	DB	018H
	DB	0e5H
	DB	018H
	DB	0e5H
	DB	018H
	DB	0e5H
	DB	018H
	DB	0e5H
	DB	018H
	DB	0e5H
	DB	018H
	DB	0e5H
	DB	018H
	DB	05H
	DB	019H
	DB	05H
	DB	019H
	DB	05H
	DB	019H
	DB	0e6H
	DB	018H
	DB	06H
	DB	019H
	DB	05H
	DB	019H
	DB	06H
	DB	019H
	DB	06H
	DB	021H
	DB	06H
	DB	019H
	DB	06H
	DB	021H
	DB	06H
	DB	019H
	DB	026H
	DB	021H
	DB	026H
	DB	021H
	DB	026H
	DB	019H
	DB	026H
	DB	021H
	DB	026H
	DB	021H
	DB	026H
	DB	021H
	DB	026H
	DB	021H
	DB	027H
	DB	021H
	DB	027H
	DB	021H
	DB	026H
	DB	019H
	DB	027H
	DB	021H
	DB	047H
	DB	021H
	DB	047H
	DB	021H
	DB	047H
	DB	021H
	DB	046H
	DB	021H
	DB	047H
	DB	021H
	DB	047H
	DB	021H
	DB	047H
	DB	021H
	DB	047H
	DB	021H
	DB	047H
	DB	021H
	DB	047H
	DB	021H
	DB	047H
	DB	021H
	DB	048H
	DB	021H
	DB	067H
	DB	021H
	DB	068H
	DB	029H
	DB	068H
	DB	021H
	DB	067H
	DB	029H
	DB	068H
	DB	021H
	DB	067H
	DB	029H
	DB	068H
	DB	021H
	DB	068H
	DB	021H
	DB	068H
	DB	029H
	DB	068H
	DB	021H
	DB	068H
	DB	029H
	DB	068H
	DB	029H
	DB	088H
	DB	021H
	DB	068H
	DB	029H
	DB	088H
	DB	029H
	DB	088H
	DB	029H
	DB	068H
	DB	021H
	DB	088H
	DB	029H
	DB	088H
	DB	029H
	DB	089H
	DB	029H
	DB	089H
	DB	029H
	DB	088H
	DB	021H
	DB	089H
	DB	029H
	DB	089H
	DB	029H
	DB	089H
	DB	029H
	DB	088H
	DB	029H
	DB	089H
	DB	029H
	DB	0a9H
	DB	029H
	DB	0a8H
	DB	029H
	DB	089H
	DB	029H
	DB	0a9H
	DB	029H
	DB	0a9H
	DB	029H
	DB	0a9H
	DB	029H
	DB	0a9H
	DB	029H
	DB	089H
	DB	029H
	DB	0a9H
	DB	029H
	DB	0a9H
	DB	029H
	DB	0a9H
	DB	029H
	DB	0a9H
	DB	029H
	DB	089H
	DB	029H
	DB	0a9H
	DB	031H
	DB	0a9H
	DB	031H
	DB	0a9H
	DB	029H
	DB	0a9H
	DB	029H
	DB	0a9H
	DB	031H
	DB	0a9H
	DB	029H
	DB	0aaH
	DB	029H
	DB	0a9H
	DB	031H
	DB	0a9H
	DB	031H
	DB	0aaH
	DB	031H
	DB	0caH
	DB	029H
	DB	0caH
	DB	031H
	DB	0a9H
	DB	031H
	DB	0caH
	DB	031H
	DB	0caH
	DB	029H
	DB	0aaH
	DB	029H
	DB	0aaH
	DB	031H
	DB	0caH
	DB	031H
	DB	0aaH
	DB	029H
	DB	0caH
	DB	031H
	DB	0c9H
	DB	031H
	DB	0c9H
	DB	029H
	DB	0caH
	DB	031H
	DB	0c9H
	DB	031H
	DB	0caH
	DB	029H
	DB	0caH
	DB	031H
	DB	0caH
	DB	031H
	DB	0c9H
	DB	031H
	DB	0caH
	DB	031H
	DB	0caH
	DB	031H
	DB	0a9H
	DB	031H
	DB	0caH
	DB	031H
	DB	0caH
	DB	031H
	DB	0caH
	DB	031H
	DB	0caH
	DB	031H
	DB	0caH
	DB	031H
	DB	0caH
	DB	031H
	DB	0caH
	DB	031H
	DB	0caH
	DB	029H
	DB	0caH
	DB	031H
	DB	0caH
	DB	031H
	DB	0caH
	DB	029H
	DB	0caH
	DB	031H
	DB	0caH
	DB	031H
	DB	0aaH
	DB	031H
	DB	0caH
	DB	031H
	DB	0caH
	DB	029H
	DB	0caH
	DB	031H
	DB	0caH
	DB	031H
	DB	0caH
	DB	029H
	DB	0caH
	DB	031H
	DB	0aaH
	DB	031H
	DB	0caH
	DB	029H
	DB	0caH
	DB	031H
	DB	0aaH
	DB	031H
	DB	0caH
	DB	029H
	DB	0caH
	DB	031H
	DB	0caH
	DB	031H
	DB	0caH
	DB	029H
	DB	0aaH
	DB	031H
	DB	0caH
	DB	031H
	DB	0c9H
	DB	031H
	DB	0caH
	DB	031H
	DB	0caH
	DB	031H
	DB	0c9H
	DB	029H
	DB	0c9H
	DB	031H
	DB	0caH
	DB	031H
	DB	0caH
	DB	029H
	DB	0caH
	DB	031H
	DB	0aaH
	DB	031H
	DB	0c9H
	DB	029H
	DB	0caH
	DB	031H
	DB	0c9H
	DB	029H
	DB	0c9H
	DB	029H
	DB	0aaH
	DB	031H
	DB	0c9H
	DB	029H
	DB	0a9H
	DB	031H
	DB	0aaH
	DB	029H
	DB	0aaH
	DB	029H
	DB	0a9H
	DB	031H
	DB	0a9H
	DB	031H
	DB	0aaH
	DB	029H
	DB	0a9H
	DB	031H
	DB	0a9H
	DB	031H
	DB	0a9H
	DB	029H
	DB	0a9H
	DB	029H
	DB	0a9H
	DB	031H
	DB	0a9H
	DB	029H
	DB	0a9H
	DB	029H
	DB	0a9H
	DB	029H
	DB	0a9H
	DB	029H
	DB	0a9H
	DB	029H
	DB	0a9H
	DB	029H
	DB	0a9H
	DB	029H
	DB	089H
	DB	029H
	DB	0a9H
	DB	029H
	DB	0a9H
	DB	029H
	DB	0a9H
	DB	029H
	DB	089H
	DB	029H
	DB	0a9H
	DB	029H
	DB	089H
	DB	029H
	DB	088H
	DB	029H
	DB	089H
	DB	029H
	DB	089H
	DB	029H
	DB	089H
	DB	029H
	DB	089H
	DB	029H
	DB	089H
	DB	029H
	DB	069H
	DB	029H
	DB	068H
	DB	029H
	DB	088H
	DB	029H
	DB	088H
	DB	029H
	DB	088H
	DB	029H
	DB	088H
	DB	021H
	DB	088H
	DB	029H
	DB	088H
	DB	029H
	DB	068H
	DB	021H
	DB	068H
	DB	029H
	DB	068H
	DB	029H
	DB	068H
	DB	021H
	DB	068H
	DB	021H
	DB	068H
	DB	029H
	DB	068H
	DB	021H
	DB	068H
	DB	021H
	DB	068H
	DB	029H
	DB	067H
	DB	029H
	DB	068H
	DB	021H
	DB	068H
	DB	029H
	DB	048H
	DB	021H
	DB	067H
	DB	021H
	DB	047H
	DB	021H
	DB	047H
	DB	021H
	DB	047H
	DB	021H
	DB	047H
	DB	021H
	DB	047H
	DB	021H
	DB	047H
	DB	021H
	DB	047H
	DB	021H
	DB	047H
	DB	021H
	DB	047H
	DB	021H
	DB	027H
	DB	021H
	DB	027H
	DB	021H
	DB	047H
	DB	021H
	DB	026H
	DB	021H
	DB	027H
	DB	021H
	DB	027H
	DB	021H
	DB	027H
	DB	019H
	DB	026H
	DB	021H
	DB	026H
	DB	021H
	DB	026H
	DB	021H
	DB	06H
	DB	021H
	DB	026H
	DB	019H
	DB	026H
	DB	019H
	DB	06H
	DB	019H
	DB	06H
	DB	019H
	DB	06H
	DB	019H
	DB	06H
	DB	019H
	DB	06H
	DB	019H
	DB	05H
	DB	019H
	DB	0e6H
	DB	018H
	DB	06H
	DB	019H
	DB	05H
	DB	019H
	DB	0e6H
	DB	018H
	DB	05H
	DB	019H
	DB	0e5H
	DB	018H
	DB	0e5H
	DB	018H
	DB	0e5H
	DB	018H
	DB	0e5H
	DB	018H
	DB	0e5H
	DB	018H
	DB	0e5H
	DB	010H
	DB	0e5H
	DB	018H
	DB	0c5H
	DB	010H
	DB	0e4H
	DB	018H
	DB	0c5H
	DB	018H
	DB	0c5H
	DB	010H
	DB	0c4H
	DB	018H
	DB	0c4H
	DB	018H
	DB	0c4H
	DB	018H
	DB	0c4H
	DB	010H
	DB	0c4H
	DB	010H
	DB	0c4H
	DB	010H
	DB	0a4H
	DB	010H
	DB	0c4H
	DB	010H
	DB	0a4H
	DB	010H
	DB	0a4H
	DB	010H
	DB	0a4H
	DB	010H
	DB	0a4H
	DB	010H
	DB	0a3H
	DB	010H
	DB	0a4H
	DB	08H
	DB	083H
	DB	010H
	DB	0a3H
	DB	010H
	DB	083H
	DB	010H
	DB	083H
	DB	08H
	DB	083H
	DB	010H
	DB	083H
	DB	010H
	DB	083H
	DB	010H
	DB	082H
	DB	08H
	DB	083H
	DB	08H
	DB	083H
	DB	010H
	DB	062H
	DB	010H
	DB	063H
	DB	08H
	DB	062H
	DB	08H
	DB	062H
	DB	08H
	DB	062H
	DB	08H
	DB	062H
	DB	08H
	DB	062H
	DB	08H
	DB	042H
	DB	08H
	DB	062H
	DB	08H
	DB	042H
	DB	08H
	DB	041H
	DB	08H
	DB	041H
	DB	08H
	DB	042H
	DB	00H
	DB	041H
	DB	08H
	DB	041H
	DB	08H
	DB	021H
	DB	00H
	DB	021H
	DB	08H
	DB	021H
	DB	00H
	DB	021H
	DB	00H
	DB	021H
	DB	08H
	DB	021H
	DB	00H
	DB	020H
	DB	08H
	DB	021H
	DB	08H
	DB	021H
	DB	00H
	DB	020H
	DB	00H
	DB	00H
	DB	00H
	DB	00H
	DB	00H
	DB	00H
	DB	00H
	DB	00H
	DB	00H
	DB	00H
	DB	00H
	DB	00H
	DB	00H
	DB	00H
	DB	00H
	DB	00H
	DB	00H
	DB	00H
	DB	00H
	DB	00H
	DB	00H
	DB	00H
	DB	00H
	DB	00H
	DB	00H
	DB	00H
	DB	00H
	DB	00H
	DB	00H
	DB	00H
	DB	00H
	DB	00H
	DB	00H
	DB	00H
	DB	00H
	DB	00H
	DB	00H
	DB	00H
	DB	00H
	DB	00H
	DB	00H
	DB	00H
	DB	00H
	DB	00H
	DB	00H
	DB	00H
	DB	00H
	DB	00H
	DB	00H
	DB	00H
	DB	00H
	DB	00H
	DB	00H
	DB	00H
	DB	00H
	DB	00H
	DB	00H
	DB	00H
	DB	00H
	DB	00H
	DB	00H
	DB	00H
	DB	00H
	DB	00H
	DB	00H
	DB	00H
	DB	00H
	DB	00H
	DB	00H
	DB	021H
	DB	00H
	DB	00H
	DB	08H
	DB	021H
	DB	00H
	DB	020H
	DB	00H
	DB	021H
	DB	00H
	DB	021H
	DB	08H
	DB	021H
	DB	00H
	DB	021H
	DB	08H
	DB	041H
	DB	08H
	DB	041H
	DB	08H
	DB	021H
	DB	08H
	DB	042H
	DB	08H
	DB	041H
	DB	08H
	DB	042H
	DB	08H
	DB	042H
	DB	08H
	DB	062H
	DB	08H
	DB	062H
	DB	08H
	DB	042H
	DB	08H
	DB	062H
	DB	08H
	DB	062H
	DB	08H
	DB	062H
	DB	08H
	DB	062H
	DB	08H
	DB	063H
	DB	010H
	DB	083H
	DB	08H
	DB	083H
	DB	08H
	DB	082H
	DB	010H
	DB	083H
	DB	08H
	DB	082H
	DB	010H
	DB	083H
	DB	010H
	DB	083H
	DB	08H
	DB	083H
	DB	010H
	DB	083H
	DB	08H
	DB	0a3H
	DB	010H
	DB	083H
	DB	010H
	DB	0a3H
	DB	010H
	DB	0a3H
	DB	010H
	DB	0a4H
	DB	010H
	DB	0a4H
	DB	010H
	DB	0a4H
	DB	010H
	DB	0a3H
	DB	010H
	DB	0c4H
	DB	010H
	DB	0a4H
	DB	010H
	DB	0a4H
	DB	010H
	DB	0c4H
	DB	018H
	DB	0c4H
	DB	018H
	DB	0c4H
	DB	018H
	DB	0c4H
	DB	018H
	DB	0c4H
	DB	010H
	DB	0c5H
	DB	018H
	DB	0e5H
	DB	010H
	DB	0c4H
	DB	018H
	DB	0c5H
	DB	018H
	DB	0e5H
	DB	018H
	DB	0e5H
	DB	018H
	DB	0e5H
	DB	018H
	DB	0e5H
	DB	018H
	DB	0e5H
	DB	018H
	DB	0e5H
	DB	018H
	DB	05H
	DB	019H
	DB	0e5H
	DB	018H
	DB	05H
	DB	019H
	DB	0e6H
	DB	018H
	DB	06H
	DB	019H
	DB	05H
	DB	019H
	DB	06H
	DB	019H
	DB	06H
	DB	021H
	DB	06H
	DB	019H
	DB	06H
	DB	019H
	DB	06H
	DB	021H
	DB	026H
	DB	019H
	DB	06H
	DB	019H
	DB	026H
	DB	021H
	DB	026H
	DB	021H
	DB	06H
	DB	021H
	DB	026H
	DB	019H
	DB	027H
	DB	021H
	DB	027H
	DB	021H
	DB	026H
	DB	021H
	DB	026H
	DB	021H
	DB	027H
	DB	021H
	DB	047H
	DB	021H
	DB	047H
	DB	021H
	DB	027H
	DB	021H
	DB	047H
	DB	021H
	DB	047H
	DB	021H
	DB	047H
	DB	021H
	DB	047H
	DB	021H
	DB	047H
	DB	021H
	DB	047H
	DB	021H
	DB	047H
	DB	021H
	DB	067H
	DB	021H
	DB	047H
	DB	021H
	DB	068H
	DB	029H
	DB	047H
	DB	029H
	DB	068H
	DB	021H
	DB	068H
	DB	021H
	DB	068H
	DB	029H
	DB	068H
	DB	029H
	DB	067H
	DB	021H
	DB	068H
	DB	029H
	DB	068H
	DB	029H
	DB	068H
	DB	029H
	DB	068H
	DB	029H
	DB	088H
	DB	021H
	DB	068H
	DB	029H
	DB	068H
	DB	029H
	DB	088H
	DB	021H
	DB	088H
	DB	029H
	DB	088H
	DB	029H
	DB	088H
	DB	029H
	DB	088H
	DB	029H
	DB	089H
	DB	029H
	DB	089H
	DB	029H
	DB	089H
	DB	029H
	DB	088H
	DB	029H
	DB	089H
	DB	029H
	DB	089H
	DB	029H
	DB	089H
	DB	029H
	DB	088H
	DB	029H
	DB	0a9H
	DB	029H
	DB	089H
	DB	029H
	DB	0a9H
	DB	029H
	DB	0a9H
	DB	029H
	DB	089H
	DB	029H
	DB	0a9H
	DB	029H
	DB	0a9H
	DB	029H
	DB	0a9H
	DB	029H
	DB	0a9H
	DB	029H
	DB	0a9H
	DB	029H
	DB	089H
	DB	029H
	DB	0a9H
	DB	029H
	DB	0a9H
	DB	031H
	DB	0a9H
	DB	031H
	DB	0a9H
	DB	029H
	DB	0a9H
	DB	029H
	DB	0a9H
	DB	031H
	DB	0aaH
	DB	029H
	DB	0aaH
	DB	031H
	DB	0aaH
	DB	031H
	DB	0aaH
	DB	029H
	DB	0a9H
	DB	031H
	DB	0caH
	DB	029H
	DB	0caH
	DB	029H
	DB	0aaH
	DB	031H
	DB	0c9H
	DB	029H
	DB	0caH
	DB	029H
	DB	0aaH
	DB	031H
	DB	0c9H
	DB	031H
	DB	0caH
	DB	029H
	DB	0caH
	DB	031H
	DB	0c9H
	DB	031H
	DB	0c9H
	DB	029H
	DB	0caH
	DB	031H
	DB	0caH
	DB	031H
	DB	0caH
	DB	029H
	DB	0aaH
	DB	031H
	DB	0caH
	DB	031H
	DB	0caH
	DB	031H
	DB	0caH
	DB	031H
	DB	0caH
	DB	031H
	DB	0aaH
	DB	029H
	DB	0caH
	DB	031H
	DB	0aaH
	DB	031H
	DB	0caH
	DB	031H
	DB	0caH
	DB	031H
	DB	0caH
	DB	031H
	DB	0caH
	DB	031H
	DB	0caH
	DB	029H
	DB	0caH
	DB	031H
	DB	0caH
	DB	031H
	DB	0caH
	DB	031H
	DB	0caH
	DB	031H
	DB	0c9H
	DB	031H
	DB	0caH
	DB	031H
	DB	0caH
	DB	031H
	DB	0caH
	DB	031H
	DB	0caH
	DB	031H
	DB	0caH
	DB	029H
	DB	0caH
	DB	031H
	DB	0caH
	DB	031H
	DB	0caH
	DB	031H
	DB	0caH
	DB	031H
	DB	0caH
	DB	029H
	DB	0caH
	DB	031H
	DB	0caH
	DB	031H
	DB	0caH
	DB	031H
	DB	0caH
	DB	031H
	DB	0caH
	DB	029H
	DB	0caH
	DB	031H
	DB	0caH
	DB	031H
	DB	0caH
	DB	031H
	DB	0caH
	DB	031H
	DB	0caH
	DB	031H
	DB	0caH
	DB	029H
	DB	0caH
	DB	031H
	DB	0aaH
	DB	029H
	DB	0caH
	DB	031H
	DB	0caH
	DB	031H
	DB	0aaH
	DB	029H
	DB	0caH
	DB	031H
	DB	0caH
	DB	031H
	DB	0caH
	DB	029H
	DB	0caH
	DB	031H
	DB	0c9H
	DB	029H
	DB	0caH
	DB	031H
	DB	0caH
	DB	031H
	DB	0caH
	DB	031H
	DB	0caH
	DB	029H
	DB	0aaH
	DB	031H
	DB	0caH
	DB	031H
	DB	0caH
	DB	031H
	DB	0c9H
	DB	031H
	DB	0caH
	DB	029H
	DB	0aaH
	DB	031H
	DB	0aaH
	DB	031H
	DB	0a9H
	DB	029H
	DB	0aaH
	DB	031H
	DB	0a9H
	DB	031H
	DB	0caH
	DB	029H
	DB	0a9H
	DB	031H
	DB	0a9H
	DB	029H
	DB	0a9H
	DB	031H
	DB	0a9H
	DB	031H
	DB	0a9H
	DB	029H
	DB	0a9H
	DB	031H
	DB	0a9H
	DB	029H
	DB	0a9H
	DB	029H
	DB	0a9H
	DB	029H
	DB	0a9H
	DB	029H
	DB	0a9H
	DB	029H
	DB	0a9H
	DB	029H
	DB	089H
	DB	029H
	DB	0a9H
	DB	029H
	DB	0a9H
	DB	029H
	DB	0a9H
	DB	029H
	DB	0a9H
	DB	029H
	DB	089H
	DB	029H
	DB	089H
	DB	029H
	DB	088H
	DB	029H
	DB	089H
	DB	029H
	DB	089H
	DB	029H
	DB	088H
	DB	029H
	DB	089H
	DB	029H
	DB	089H
	DB	029H
	DB	089H
	DB	021H
	DB	068H
	DB	029H
	DB	088H
	DB	029H
	DB	088H
	DB	029H
	DB	068H
	DB	029H
	DB	068H
	DB	029H
	DB	088H
	DB	021H
	DB	088H
	DB	029H
	DB	068H
	DB	029H
	DB	068H
	DB	029H
	DB	068H
	DB	021H
	DB	067H
	DB	029H
	DB	068H
	DB	021H
	DB	068H
	DB	021H
	DB	068H
	DB	029H
	DB	067H
	DB	021H
	DB	048H
	DB	029H
	DB	068H
	DB	029H
	DB	068H
	DB	021H
	DB	048H
	DB	021H
	DB	048H
	DB	021H
	DB	067H
	DB	021H
	DB	047H
	DB	021H
	DB	047H
	DB	021H
	DB	047H
	DB	021H
	DB	047H
	DB	021H
	DB	047H
	DB	021H
	DB	047H
	DB	021H
	DB	047H
	DB	021H
	DB	027H
	DB	021H
	DB	046H
	DB	021H
	DB	047H
	DB	021H
	DB	026H
	DB	021H
	DB	027H
	DB	021H
	DB	026H
	DB	021H
	DB	026H
	DB	021H
	DB	027H
	DB	019H
	DB	026H
	DB	021H
	DB	026H
	DB	021H
	DB	06H
	DB	021H
	DB	026H
	DB	019H
	DB	026H
	DB	021H
	DB	06H
	DB	021H
	DB	06H
	DB	021H
	DB	06H
	DB	019H
	DB	06H
	DB	021H
	DB	06H
	DB	021H
	DB	06H
	DB	019H
	DB	05H
	DB	019H
	DB	05H
	DB	019H
	DB	0e6H
	DB	018H
	DB	05H
	DB	019H
	DB	0e5H
	DB	018H
	DB	0e6H
	DB	018H
	DB	0e5H
	DB	018H
	DB	0e5H
	DB	018H
	DB	0e5H
	DB	018H
	DB	0e5H
	DB	018H
	DB	0e5H
	DB	018H
	DB	0e5H
	DB	018H
	DB	0e4H
	DB	010H
	DB	0e5H
	DB	010H
	DB	0c5H
	DB	010H
	DB	0c5H
	DB	018H
	DB	0c4H
	DB	010H
	DB	0c5H
	DB	010H
	DB	0c4H
	DB	018H
	DB	0c4H
	DB	018H
	DB	0c4H
	DB	010H
	DB	0a4H
	DB	010H
	DB	0c4H
	DB	010H
	DB	0a4H
	DB	010H
	DB	0a4H
	DB	010H
	DB	0a3H
	DB	010H
	DB	0a3H
	DB	010H
	DB	0a4H
	DB	010H
	DB	0a4H
	DB	010H
	DB	0a3H
	DB	010H
	DB	0a3H
	DB	010H
	DB	083H
	DB	010H
	DB	083H
	DB	010H
	DB	083H
	DB	010H
	DB	083H
	DB	08H
	DB	083H
	DB	08H
	DB	083H
	DB	010H
	DB	083H
	DB	010H
	DB	063H
	DB	08H
	DB	083H
	DB	08H
	DB	062H
	DB	08H
	DB	063H
	DB	010H
	DB	062H
	DB	08H
	DB	062H
	DB	08H
	DB	062H
	DB	08H
	DB	062H
	DB	08H
	DB	062H
	DB	08H
	DB	062H
	DB	08H
	DB	042H
	DB	08H
	DB	041H
	DB	08H
	DB	042H
	DB	08H
	DB	042H
	DB	08H
	DB	041H
	DB	08H
	DB	041H
	DB	08H
	DB	021H
	DB	00H
	DB	041H
	DB	08H
	DB	041H
	DB	08H
	DB	021H
	DB	00H
	DB	021H
	DB	00H
	DB	021H
	DB	08H
	DB	020H
	DB	00H
	DB	020H
	DB	00H
	DB	01H
	DB	00H
	DB	01H
	DB	08H
	DB	00H
	DB	00H
	DB	00H
	DB	00H
	DB	00H
	DB	00H
	DB	00H
	DB	00H
	DB	00H
	DB	00H
	DB	00H
	DB	00H
	DB	00H
	DB	00H
	DB	00H
	DB	00H
	DB	00H
	DB	00H
	DB	00H
	DB	00H
	DB	00H
	DB	00H
	DB	00H
	DB	00H
	DB	00H
	DB	00H
	DB	00H
	DB	00H
	DB	00H
	DB	00H
	DB	00H
	DB	00H
	DB	00H
	DB	00H
	DB	00H
	DB	00H
	DB	00H
	DB	00H
	DB	00H
	DB	00H
	DB	00H
	DB	00H
	DB	00H
	DB	00H
	DB	00H
	DB	00H
	DB	00H
	DB	00H
	DB	00H
	DB	00H
	DB	00H
	DB	00H
	DB	00H
	DB	00H
	DB	00H
	DB	00H
	DB	00H
	DB	00H
	DB	00H
	DB	00H
	DB	00H
	DB	00H
	DB	00H
	DB	00H
	DB	01H
	DB	00H
	DB	021H
	DB	00H
	DB	020H
	DB	00H
	DB	021H
	DB	00H
	DB	021H
	DB	00H
	DB	021H
	DB	08H
	DB	021H
	DB	08H
	DB	021H
	DB	00H
	DB	041H
	DB	08H
	DB	041H
	DB	08H
	DB	041H
	DB	00H
	DB	041H
	DB	08H
	DB	042H
	DB	08H
	DB	042H
	DB	08H
	DB	041H
	DB	08H
	DB	041H
	DB	08H
	DB	042H
	DB	08H
	DB	041H
	DB	08H
	DB	062H
	DB	08H
	DB	062H
	DB	08H
	DB	062H
	DB	08H
	DB	062H
	DB	08H
	DB	062H
	DB	08H
	DB	062H
	DB	08H
	DB	082H
	DB	010H
	DB	063H
	DB	010H
	DB	083H
	DB	010H
	DB	082H
	DB	010H
	DB	083H
	DB	08H
	DB	083H
	DB	010H
	DB	083H
	DB	010H
	DB	083H
	DB	010H
	DB	0a3H
	DB	08H
	DB	0a3H
	DB	010H
	DB	083H
	DB	010H
	DB	0a3H
	DB	010H
	DB	0a4H
	DB	010H
	DB	0a4H
	DB	010H
	DB	0a3H
	DB	010H
	DB	0a4H
	DB	010H
	DB	0a4H
	DB	010H
	DB	0a4H
	DB	010H
	DB	0c4H
	DB	010H
	DB	0c4H
	DB	018H
	DB	0c4H
	DB	018H
	DB	0c4H
	DB	010H
	DB	0c4H
	DB	010H
	DB	0c4H
	DB	010H
	DB	0c5H
	DB	018H
	DB	0c5H
	DB	018H
	DB	0c5H
	DB	018H
	DB	0e4H
	DB	018H
	DB	0e5H
	DB	018H
	DB	0e5H
	DB	010H
	DB	0e5H
	DB	018H
	DB	0e5H
	DB	018H
	DB	0e5H
	DB	018H
	DB	0e5H
	DB	018H
	DB	0e5H
	DB	018H
	DB	0e5H
	DB	018H
	DB	05H
	DB	019H
	DB	06H
	DB	019H
	DB	0e6H
	DB	018H
	DB	06H
	DB	019H
	DB	06H
	DB	019H
	DB	06H
	DB	019H
	DB	06H
	DB	019H
	DB	06H
	DB	021H
	DB	06H
	DB	019H
	DB	06H
	DB	021H
	DB	026H
	DB	021H
	DB	026H
	DB	021H
	DB	06H
	DB	021H
	DB	026H
	DB	021H
	DB	026H
	DB	019H
	DB	026H
	DB	021H
	DB	027H
	DB	021H
	DB	027H
	DB	019H
	DB	027H
	DB	021H
	DB	047H
	DB	021H
	DB	047H
	DB	019H
	DB	027H
	DB	021H
	DB	047H
	DB	021H
	DB	047H
	DB	021H
	DB	047H
	DB	021H
	DB	047H
	DB	021H
	DB	047H
	DB	021H
	DB	047H
	DB	021H
	DB	047H
	DB	021H
	DB	047H
	DB	021H
	DB	067H
	DB	021H
	DB	067H
	DB	021H
	DB	068H
	DB	021H
	DB	048H
	DB	029H
	DB	067H
	DB	021H
	DB	068H
	DB	021H
	DB	068H
	DB	029H
	DB	067H
	DB	029H
	DB	068H
	DB	021H
	DB	068H
	DB	029H
	DB	068H
	DB	021H
	DB	068H
	DB	029H
	DB	068H
	DB	021H
	DB	068H
	DB	021H
	DB	088H
	DB	029H
	DB	068H
	DB	029H
	DB	088H
	DB	029H
	DB	088H
	DB	029H
	DB	088H
	DB	029H
	DB	088H
	DB	021H
	DB	089H
	DB	029H
	DB	088H
	DB	029H
	DB	089H
	DB	029H
	DB	089H
	DB	029H
	DB	088H
	DB	029H
	DB	088H
	DB	029H
	DB	089H
	DB	029H
	DB	089H
	DB	029H
	DB	089H
	DB	029H
	DB	0a9H
	DB	029H
	DB	0a9H
	DB	029H
	DB	089H
	DB	029H
	DB	089H
	DB	029H
	DB	0a9H
	DB	029H
	DB	0a9H
	DB	029H
	DB	0a9H
	DB	029H
	DB	0a9H
	DB	029H
	DB	0a9H
	DB	029H
	DB	0a9H
	DB	031H
	DB	0a9H
	DB	029H
	DB	0a9H
	DB	031H
	DB	0a9H
	DB	031H
	DB	0a9H
	DB	029H
	DB	0a9H
	DB	031H
	DB	0aaH
	DB	029H
	DB	0aaH
	DB	031H
	DB	0aaH
	DB	029H
	DB	0a9H
	DB	029H
	DB	0aaH
	DB	031H
	DB	0c9H
	DB	031H
	DB	0aaH
	DB	029H
	DB	0c9H
	DB	031H
	DB	0caH
	DB	031H
	DB	0aaH
	DB	031H
	DB	0caH
	DB	029H
	DB	0c9H
	DB	031H
	DB	0caH
	DB	031H
	DB	0caH
	DB	029H
	DB	0caH
	DB	029H
	DB	0caH
	DB	031H
	DB	0caH
	DB	031H
	DB	0caH
	DB	031H
	DB	0caH
	DB	029H
	DB	0caH
	DB	031H
	DB	0caH
	DB	031H
	DB	0caH
	DB	031H
	DB	0caH
	DB	031H
	DB	0caH
	DB	031H
	DB	0caH
	DB	031H
	DB	0caH
	DB	029H
	DB	0caH
	DB	031H
	DB	0caH
	DB	031H
	DB	0caH
	DB	031H
	DB	0caH
	DB	031H
	DB	0caH
	DB	029H
	DB	0caH
	DB	029H
	DB	0caH
	DB	031H
	DB	0caH
	DB	029H
	DB	0caH
	DB	031H
	DB	0caH
	DB	031H
	DB	0caH
	DB	031H
	DB	0caH
	DB	029H
	DB	0caH
	DB	031H
	DB	0eaH
	DB	031H
	DB	0caH
	DB	031H
	DB	0caH
	DB	031H
	DB	0caH
	DB	031H
	DB	0caH
	DB	029H
	DB	0caH
	DB	031H
	DB	0eaH
	DB	031H
	DB	0caH
	DB	031H
	DB	0caH
	DB	029H
	DB	0caH
	DB	031H
	DB	0caH
	DB	031H
	DB	0caH
	DB	031H
	DB	0caH
	DB	031H
	DB	0caH
	DB	031H
	DB	0caH
	DB	031H
	DB	0caH
	DB	031H
	DB	0eaH
	DB	031H
	DB	0caH
	DB	031H
	DB	0caH
	DB	031H
	DB	0caH
	DB	031H
	DB	0caH
	DB	029H
	DB	0caH
	DB	031H
	DB	0caH
	DB	031H
	DB	0caH
	DB	031H
	DB	0caH
	DB	031H
	DB	0caH
	DB	029H
	DB	0caH
	DB	031H
	DB	0caH
	DB	031H
	DB	0caH
	DB	031H
	DB	0caH
	DB	029H
	DB	0caH
	DB	031H
	DB	0caH
	DB	031H
	DB	0caH
	DB	031H
	DB	0caH
	DB	029H
	DB	0caH
	DB	031H
	DB	0caH
	DB	031H
	DB	0caH
	DB	031H
	DB	0caH
	DB	029H
	DB	0aaH
	DB	031H
	DB	0caH
	DB	029H
	DB	0c9H
	DB	031H
	DB	0aaH
	DB	031H
	DB	0caH
	DB	029H
	DB	0caH
	DB	031H
	DB	0c9H
	DB	029H
	DB	0caH
	DB	029H
	DB	0caH
	DB	029H
	DB	0a9H
	DB	031H
	DB	0caH
	DB	029H
	DB	0aaH
	DB	031H
	DB	0aaH
	DB	029H
	DB	0aaH
	DB	029H
	DB	0c9H
	DB	029H
	DB	0a9H
	DB	031H
	DB	0a9H
	DB	029H
	DB	0a9H
	DB	031H
	DB	0a9H
	DB	029H
	DB	0a9H
	DB	029H
	DB	0a9H
	DB	029H
	DB	0a9H
	DB	029H
	DB	0a9H
	DB	029H
	DB	0a9H
	DB	029H
	DB	0a9H
	DB	029H
	DB	0a9H
	DB	029H
	DB	089H
	DB	029H
	DB	0a9H
	DB	029H
	DB	089H
	DB	029H
	DB	0a9H
	DB	029H
	DB	089H
	DB	029H
	DB	089H
	DB	029H
	DB	089H
	DB	029H
	DB	088H
	DB	029H
	DB	089H
	DB	029H
	DB	089H
	DB	029H
	DB	088H
	DB	029H
	DB	089H
	DB	029H
	DB	089H
	DB	029H
	DB	088H
	DB	029H
	DB	088H
	DB	029H
	DB	088H
	DB	029H
	DB	068H
	DB	029H
	DB	088H
	DB	021H
	DB	068H
	DB	029H
	DB	068H
	DB	029H
	DB	068H
	DB	029H
	DB	068H
	DB	029H
	DB	068H
	DB	021H
	DB	068H
	DB	029H
	DB	068H
	DB	021H
	DB	068H
	DB	021H
	DB	067H
	DB	029H
	DB	067H
	DB	029H
	DB	068H
	DB	021H
	DB	048H
	DB	029H
	DB	067H
	DB	021H
	DB	067H
	DB	021H
	DB	047H
	DB	021H
	DB	047H
	DB	021H
	DB	047H
	DB	021H
	DB	047H
	DB	021H
	DB	047H
	DB	021H
	DB	047H
	DB	021H
	DB	047H
	DB	021H
	DB	047H
	DB	021H
	DB	027H
	DB	021H
	DB	027H
	DB	021H
	DB	047H
	DB	021H
	DB	027H
	DB	021H
	DB	026H
	DB	021H
	DB	027H
	DB	021H
	DB	027H
	DB	019H
	DB	026H
	DB	019H
	DB	026H
	DB	021H
	DB	026H
	DB	021H
	DB	026H
	DB	021H
	DB	026H
	DB	019H
	DB	06H
	DB	021H
	DB	06H
	DB	021H
	DB	06H
	DB	019H
	DB	06H
	DB	019H
	DB	06H
	DB	021H
	DB	06H
	DB	019H
	DB	06H
	DB	019H
	DB	05H
	DB	019H
	DB	06H
	DB	019H
	DB	0e5H
	DB	018H
	DB	05H
	DB	019H
	DB	05H
	DB	019H
	DB	0e5H
	DB	018H
	DB	0e5H
	DB	018H
	DB	0e5H
	DB	018H
	DB	0e5H
	DB	018H
	DB	0e5H
	DB	018H
	DB	0e5H
	DB	018H
	DB	0c5H
	DB	018H
	DB	0e4H
	DB	018H
	DB	0e4H
	DB	018H
	DB	0c5H
	DB	010H
	DB	0c4H
	DB	018H
	DB	0c5H
	DB	018H
	DB	0c4H
	DB	010H
	DB	0c4H
	DB	018H
	DB	0c4H
	DB	018H
	DB	0c4H
	DB	010H
	DB	0c4H
	DB	010H
	DB	0a4H
	DB	010H
	DB	0a4H
	DB	010H
	DB	0a4H
	DB	010H
	DB	0a3H
	DB	010H
	DB	0a4H
	DB	010H
	DB	0a4H
	DB	010H
	DB	083H
	DB	010H
	DB	0a3H
	DB	010H
	DB	0a3H
	DB	08H
	DB	083H
	DB	010H
	DB	083H
	DB	010H
	DB	083H
	DB	010H
	DB	083H
	DB	010H
	DB	082H
	DB	010H
	DB	083H
	DB	08H
	DB	082H
	DB	010H
	DB	082H
	DB	010H
	DB	083H
	DB	08H
	DB	062H
	DB	010H
	DB	062H
	DB	010H
	DB	062H
	DB	08H
	DB	062H
	DB	08H
	DB	062H
	DB	08H
	DB	042H
	DB	08H
	DB	062H
	DB	08H
	DB	062H
	DB	08H
	DB	042H
	DB	08H
	DB	041H
	DB	08H
	DB	042H
	DB	08H
	DB	042H
	DB	08H
	DB	041H
	DB	08H
	DB	041H
	DB	00H
	DB	041H
	DB	08H
	DB	041H
	DB	08H
	DB	021H
	DB	08H
	DB	021H
	DB	00H
	DB	021H
	DB	00H
	DB	020H
	DB	00H
	DB	021H
	DB	08H
	DB	020H
	DB	00H
	DB	01H
	DB	08H
	DB	01H
	DB	00H
	DB	020H
	DB	00H
	DB	00H
	DB	00H
	DB	00H
	DB	00H
	DB	00H
	DB	00H
	DB	00H
	DB	00H
	DB	00H
	DB	00H
	DB	00H
	DB	00H
	DB	00H
	DB	00H
	DB	00H
	DB	00H
	DB	00H
	DB	00H
	DB	00H
	DB	00H
	DB	00H
	DB	00H
	DB	00H
	DB	00H
	DB	00H
	DB	00H
	DB	00H
	DB	00H
	DB	00H
	DB	00H
	DB	00H
	DB	00H
	DB	00H
	DB	00H
	DB	00H
	DB	00H
	DB	00H
	DB	00H
	DB	00H
	DB	00H
	DB	00H
	DB	00H
	DB	00H
	DB	00H
	DB	00H
	DB	00H
	DB	00H
	DB	00H
	DB	00H
	DB	00H
	DB	00H
	DB	00H
	DB	00H
	DB	00H
	DB	00H
	DB	00H
	DB	020H
	DB	00H
	DB	021H
	DB	00H
	DB	00H
	DB	08H
	DB	021H
	DB	08H
	DB	021H
	DB	00H
	DB	021H
	DB	08H
	DB	021H
	DB	08H
	DB	041H
	DB	00H
	DB	041H
	DB	08H
	DB	041H
	DB	08H
	DB	041H
	DB	00H
	DB	041H
	DB	08H
	DB	042H
	DB	08H
	DB	041H
	DB	08H
	DB	042H
	DB	08H
	DB	062H
	DB	08H
	DB	042H
	DB	08H
	DB	062H
	DB	08H
	DB	062H
	DB	08H
	DB	062H
	DB	08H
	DB	062H
	DB	08H
	DB	062H
	DB	08H
	DB	062H
	DB	010H
	DB	082H
	DB	08H
	DB	083H
	DB	08H
	DB	062H
	DB	010H
	DB	083H
	DB	08H
	DB	082H
	DB	08H
	DB	063H
	DB	010H
	DB	083H
	DB	010H
	DB	083H
	DB	010H
	DB	083H
	DB	010H
	DB	0a3H
	DB	010H
	DB	083H
	DB	010H
	DB	0a3H
	DB	010H
	DB	0a4H
	DB	010H
	DB	0a3H
	DB	010H
	DB	0a4H
	DB	010H
	DB	0a4H
	DB	010H
	DB	0a3H
	DB	010H
	DB	0a4H
	DB	010H
	DB	0c4H
	DB	010H
	DB	0c4H
	DB	018H
	DB	0a4H
	DB	018H
	DB	0c4H
	DB	010H
	DB	0c4H
	DB	018H
	DB	0c4H
	DB	018H
	DB	0c5H
	DB	010H
	DB	0c5H
	DB	010H
	DB	0c5H
	DB	018H
	DB	0c5H
	DB	010H
	DB	0e5H
	DB	018H
	DB	0e5H
	DB	018H
	DB	0e5H
	DB	018H
	DB	0e5H
	DB	018H
	DB	0e5H
	DB	018H
	DB	0e5H
	DB	018H
	DB	0e5H
	DB	018H
	DB	0e5H
	DB	018H
	DB	0e5H
	DB	018H
	DB	05H
	DB	019H
	DB	05H
	DB	019H
	DB	06H
	DB	019H
	DB	05H
	DB	019H
	DB	05H
	DB	019H
	DB	06H
	DB	019H
	DB	06H
	DB	021H
	DB	06H
	DB	019H
	DB	025H
	DB	019H
	DB	026H
	DB	021H
	DB	06H
	DB	019H
	DB	026H
	DB	019H
	DB	026H
	DB	019H
	DB	026H
	DB	021H
	DB	026H
	DB	021H
	DB	027H
	DB	019H
	DB	027H
	DB	021H
	DB	026H
	DB	021H
	DB	047H
	DB	021H
	DB	027H
	DB	021H
	DB	026H
	DB	021H
	DB	047H
	DB	021H
	DB	047H
	DB	021H
	DB	047H
	DB	021H
	DB	047H
	DB	021H
	DB	047H
	DB	021H
	DB	047H
	DB	021H
	DB	047H
	DB	021H
	DB	047H
	DB	021H
	DB	047H
	DB	021H
	DB	067H
	DB	021H
	DB	048H
	DB	021H
	DB	048H
	DB	021H
	DB	068H
	DB	021H
	DB	068H
	DB	021H
	DB	068H
	DB	021H
	DB	067H
	DB	029H
	DB	068H
	DB	021H
	DB	068H
	DB	029H
	DB	068H
	DB	021H
	DB	068H
	DB	029H
	DB	068H
	DB	029H
	DB	088H
	DB	021H
	DB	068H
	DB	029H
	DB	088H
	DB	029H
	DB	068H
	DB	029H
	DB	088H
	DB	021H
	DB	088H
	DB	029H
	DB	088H
	DB	029H
	DB	089H
	DB	029H
	DB	089H
	DB	029H
	DB	068H
	DB	029H
	DB	089H
	DB	029H
	DB	089H
	DB	029H
	DB	088H
	DB	029H
	DB	089H
	DB	029H
	DB	089H
	DB	029H
	DB	0a9H
	DB	029H
	DB	0a9H
	DB	029H
	DB	0a9H
	DB	029H
	DB	089H
	DB	029H
	DB	0a9H
	DB	029H
	DB	0a9H
	DB	029H
	DB	0a9H
	DB	029H
	DB	0a9H
	DB	029H
	DB	0a9H
	DB	029H
	DB	0a9H
	DB	029H
	DB	0a9H
	DB	031H
	DB	0a9H
	DB	029H
	DB	0a9H
	DB	029H
	DB	0a9H
	DB	031H
	DB	0a9H
	DB	029H
	DB	0aaH
	DB	031H
	DB	0c9H
	DB	029H
	DB	0aaH
	DB	029H
	DB	0aaH
	DB	031H
	DB	0c9H
	DB	029H
	DB	0caH
	DB	031H
	DB	0c9H
	DB	031H
	DB	0caH
	DB	029H
	DB	0aaH
	DB	029H
	DB	0caH
	DB	029H
	DB	0caH
	DB	031H
	DB	0c9H
	DB	031H
	DB	0caH
	DB	029H
	DB	0caH
	DB	031H
	DB	0caH
	DB	031H
	DB	0caH
	DB	031H
	DB	0caH
	DB	031H
	DB	0caH
	DB	031H
	DB	0caH
	DB	031H
	DB	0caH
	DB	029H
	DB	0caH
	DB	031H
	DB	0caH
	DB	031H
	DB	0caH
	DB	031H
	DB	0caH
	DB	029H
	DB	0caH
	DB	031H
	DB	0caH
	DB	031H
	DB	0caH
	DB	029H
	DB	0caH
	DB	031H
	DB	0caH
	DB	031H
	DB	0caH
	DB	031H
	DB	0caH
	DB	031H
	DB	0caH
	DB	031H
	DB	0eaH
	DB	031H
	DB	0eaH
	DB	031H
	DB	0caH
	DB	031H
	DB	0caH
	DB	031H
	DB	0caH
	DB	031H
	DB	0eaH
	DB	031H
	DB	0eaH
	DB	031H
	DB	0caH
	DB	031H
	DB	0eaH
	DB	031H
	DB	0eaH
	DB	031H
	DB	0caH
	DB	031H
	DB	0eaH
	DB	029H
	DB	0eaH
	DB	031H
	DB	0eaH
	DB	031H
	DB	0caH
	DB	031H
	DB	0eaH
	DB	031H
	DB	0eaH
	DB	031H
	DB	0eaH
	DB	031H
	DB	0caH
	DB	031H
	DB	0eaH
	DB	031H
	DB	0eaH
	DB	031H
	DB	0eaH
	DB	031H
	DB	0caH
	DB	031H
	DB	0eaH
	DB	031H
	DB	0eaH
	DB	031H
	DB	0caH
	DB	031H
	DB	0eaH
	DB	031H
	DB	0caH
	DB	031H
	DB	0caH
	DB	031H
	DB	0eaH
	DB	031H
	DB	0caH
	DB	031H
	DB	0eaH
	DB	031H
	DB	0caH
	DB	031H
	DB	0eaH
	DB	031H
	DB	0eaH
	DB	031H
	DB	0caH
	DB	031H
	DB	0caH
	DB	031H
	DB	0caH
	DB	031H
	DB	0caH
	DB	031H
	DB	0caH
	DB	031H
	DB	0caH
	DB	031H
	DB	0caH
	DB	031H
	DB	0caH
	DB	031H
	DB	0caH
	DB	031H
	DB	0caH
	DB	031H
	DB	0caH
	DB	031H
	DB	0caH
	DB	031H
	DB	0caH
	DB	031H
	DB	0caH
	DB	029H
	DB	0c9H
	DB	031H
	DB	0caH
	DB	031H
	DB	0caH
	DB	029H
	DB	0caH
	DB	031H
	DB	0caH
	DB	031H
	DB	0c9H
	DB	031H
	DB	0caH
	DB	031H
	DB	0caH
	DB	029H
	DB	0aaH
	DB	031H
	DB	0caH
	DB	031H
	DB	0caH
	DB	029H
	DB	0a9H
	DB	031H
	DB	0caH
	DB	031H
	DB	0aaH
	DB	029H
	DB	0aaH
	DB	031H
	DB	0aaH
	DB	031H
	DB	0aaH
	DB	029H
	DB	0a9H
	DB	031H
	DB	0a9H
	DB	029H
	DB	0a9H
	DB	031H
	DB	0a9H
	DB	031H
	DB	0a9H
	DB	029H
	DB	089H
	DB	031H
	DB	0a9H
	DB	029H
	DB	0a9H
	DB	029H
	DB	0a9H
	DB	029H
	DB	089H
	DB	029H
	DB	0a9H
	DB	029H
	DB	0a9H
	DB	029H
	DB	0a9H
	DB	029H
	DB	089H
	DB	029H
	DB	0a9H
	DB	029H
	DB	089H
	DB	029H
	DB	089H
	DB	029H
	DB	088H
	DB	029H
	DB	089H
	DB	029H
	DB	088H
	DB	029H
	DB	088H
	DB	029H
	DB	089H
	DB	029H
	DB	089H
	DB	021H
	DB	088H
	DB	029H
	DB	068H
	DB	029H
	DB	088H
	DB	029H
	DB	088H
	DB	021H
	DB	088H
	DB	029H
	DB	088H
	DB	029H
	DB	088H
	DB	029H
	DB	068H
	DB	029H
	DB	068H
	DB	029H
	DB	068H
	DB	021H
	DB	068H
	DB	021H
	DB	068H
	DB	029H
	DB	068H
	DB	021H
	DB	067H
	DB	021H
	DB	068H
	DB	029H
	DB	048H
	DB	021H
	DB	068H
	DB	021H
	DB	048H
	DB	021H
	DB	068H
	DB	021H
	DB	047H
	DB	021H
	DB	047H
	DB	021H
	DB	047H
	DB	021H
	DB	047H
	DB	021H
	DB	047H
	DB	021H
	DB	047H
	DB	021H
	DB	047H
	DB	021H
	DB	047H
	DB	021H
	DB	047H
	DB	019H
	DB	047H
	DB	021H
	DB	047H
	DB	021H
	DB	027H
	DB	021H
	DB	027H
	DB	021H
	DB	027H
	DB	021H
	DB	026H
	DB	021H
	DB	026H
	DB	021H
	DB	026H
	DB	019H
	DB	026H
	DB	019H
	DB	026H
	DB	019H
	DB	026H
	DB	021H
	DB	026H
	DB	019H
	DB	026H
	DB	019H
	DB	06H
	DB	021H
	DB	06H
	DB	019H
	DB	05H
	DB	019H
	DB	06H
	DB	021H
	DB	06H
	DB	019H
	DB	0e6H
	DB	018H
	DB	05H
	DB	019H
	DB	05H
	DB	019H
	DB	0e5H
	DB	018H
	DB	0e5H
	DB	018H
	DB	0e5H
	DB	018H
	DB	0e5H
	DB	018H
	DB	0e5H
	DB	010H
	DB	0e5H
	DB	018H
	DB	0e5H
	DB	018H
	DB	0e5H
	DB	018H
	DB	0c5H
	DB	018H
	DB	0e5H
	DB	018H
	DB	0c4H
	DB	010H
	DB	0c4H
	DB	010H
	DB	0c5H
	DB	018H
	DB	0c4H
	DB	010H
	DB	0c4H
	DB	010H
	DB	0c4H
	DB	018H
	DB	0c4H
	DB	010H
	DB	0c4H
	DB	018H
	DB	0c4H
	DB	010H
	DB	0a4H
	DB	010H
	DB	0a3H
	DB	010H
	DB	0a4H
	DB	010H
	DB	0a3H
	DB	010H
	DB	0a4H
	DB	010H
	DB	084H
	DB	010H
	DB	0a3H
	DB	010H
	DB	0a3H
	DB	010H
	DB	083H
	DB	010H
	DB	083H
	DB	010H
	DB	083H
	DB	010H
	DB	083H
	DB	08H
	DB	083H
	DB	010H
	DB	083H
	DB	010H
	DB	083H
	DB	08H
	DB	062H
	DB	08H
	DB	063H
	DB	010H
	DB	082H
	DB	08H
	DB	062H
	DB	08H
	DB	062H
	DB	010H
	DB	062H
	DB	08H
	DB	062H
	DB	08H
	DB	062H
	DB	08H
	DB	062H
	DB	08H
	DB	042H
	DB	08H
	DB	041H
	DB	08H
	DB	042H
	DB	00H
	DB	042H
	DB	08H
	DB	041H
	DB	08H
	DB	041H
	DB	08H
	DB	041H
	DB	00H
	DB	041H
	DB	08H
	DB	021H
	DB	08H
	DB	021H
	DB	08H
	DB	021H
	DB	08H
	DB	021H
	DB	00H
	DB	021H
	DB	08H
	DB	020H
	DB	00H
	DB	020H
	DB	00H
	DB	020H
	DB	00H
	DB	020H
	DB	00H
	DB	00H
	DB	00H
	DB	00H
	DB	00H
	DB	00H
	DB	00H
	DB	00H
	DB	00H
	DB	00H
	DB	00H
	DB	00H
	DB	00H
	DB	00H
	DB	00H
	DB	00H
	DB	00H
	DB	00H
	DB	00H
	DB	00H
	DB	00H
	DB	00H
	DB	00H
	DB	00H
	DB	00H
	DB	00H
	DB	00H
	DB	00H
	DB	00H
	DB	00H
	DB	00H
	DB	00H
	DB	00H
	DB	00H
	DB	00H
	DB	00H
	DB	00H
	DB	00H
	DB	00H
	DB	00H
	DB	00H
	DB	00H
	DB	00H
	DB	00H
	DB	00H
	DB	00H
	DB	00H
	DB	00H
	DB	00H
	DB	00H
	DB	00H
	DB	00H
	DB	00H
	DB	00H
	DB	00H
	DB	01H
	DB	00H
	DB	020H
	DB	00H
	DB	021H
	DB	00H
	DB	020H
	DB	00H
	DB	021H
	DB	08H
	DB	021H
	DB	00H
	DB	020H
	DB	08H
	DB	021H
	DB	00H
	DB	041H
	DB	08H
	DB	041H
	DB	08H
	DB	021H
	DB	08H
	DB	041H
	DB	08H
	DB	041H
	DB	08H
	DB	042H
	DB	08H
	DB	042H
	DB	08H
	DB	042H
	DB	00H
	DB	042H
	DB	08H
	DB	062H
	DB	08H
	DB	062H
	DB	08H
	DB	062H
	DB	08H
	DB	062H
	DB	08H
	DB	062H
	DB	08H
	DB	062H
	DB	010H
	DB	063H
	DB	08H
	DB	083H
	DB	010H
	DB	063H
	DB	08H
	DB	083H
	DB	010H
	DB	083H
	DB	010H
	DB	083H
	DB	08H
	DB	083H
	DB	010H
	DB	083H
	DB	08H
	DB	083H
	DB	08H
	DB	083H
	DB	010H
	DB	0a3H
	DB	010H
	DB	083H
	DB	010H
	DB	0a3H
	DB	010H
	DB	0a4H
	DB	010H
	DB	0a4H
	DB	010H
	DB	0a3H
	DB	010H
	DB	0a4H
	DB	010H
	DB	0c4H
	DB	010H
	DB	0a4H
	DB	010H
	DB	0c4H
	DB	010H
	DB	0a4H
	DB	010H
	DB	0c4H
	DB	010H
	DB	0c4H
	DB	010H
	DB	0c4H
	DB	010H
	DB	0c4H
	DB	018H
	DB	0c4H
	DB	018H
	DB	0e4H
	DB	018H
	DB	0e5H
	DB	018H
	DB	0e5H
	DB	018H
	DB	0e4H
	DB	010H
	DB	0e5H
	DB	018H
	DB	0e5H
	DB	018H
	DB	0e5H
	DB	018H
	DB	0e5H
	DB	018H
	DB	0e5H
	DB	018H
	DB	05H
	DB	019H
	DB	0e5H
	DB	018H
	DB	06H
	DB	019H
	DB	0e6H
	DB	018H
	DB	06H
	DB	019H
	DB	06H
	DB	019H
	DB	05H
	DB	019H
	DB	06H
	DB	019H
	DB	06H
	DB	021H
	DB	026H
	DB	021H
	DB	06H
	DB	021H
	DB	06H
	DB	021H
	DB	026H
	DB	019H
	DB	026H
	DB	021H
	DB	026H
	DB	021H
	DB	026H
	DB	019H
	DB	026H
	DB	021H
	DB	027H
	DB	021H
	DB	027H
	DB	021H
	DB	026H
	DB	021H
	DB	047H
	DB	021H
	DB	047H
	DB	021H
	DB	026H
	DB	021H
	DB	047H
	DB	021H
	DB	047H
	DB	021H
	DB	047H
	DB	021H
	DB	047H
	DB	021H
	DB	047H
	DB	021H
	DB	047H
	DB	021H
	DB	047H
	DB	021H
	DB	047H
	DB	021H
	DB	067H
	DB	021H
	DB	068H
	DB	021H
	DB	068H
	DB	021H
	DB	047H
	DB	029H
	DB	067H
	DB	029H
	DB	068H
	DB	021H
	DB	068H
	DB	029H
	DB	068H
	DB	029H
	DB	068H
	DB	021H
	DB	068H
	DB	029H
	DB	068H
	DB	029H
	DB	068H
	DB	021H
	DB	068H
	DB	029H
	DB	068H
	DB	029H
	DB	088H
	DB	029H
	DB	088H
	DB	029H
	DB	088H
	DB	029H
	DB	088H
	DB	029H
	DB	089H
	DB	029H
	DB	089H
	DB	029H
	DB	088H
	DB	029H
	DB	089H
	DB	029H
	DB	089H
	DB	029H
	DB	088H
	DB	029H
	DB	089H
	DB	029H
	DB	089H
	DB	029H
	DB	0a9H
	DB	029H
	DB	089H
	DB	029H
	DB	0a9H
	DB	029H
	DB	089H
	DB	029H
	DB	0a9H
	DB	029H
	DB	0a9H
	DB	029H
	DB	0a9H
	DB	029H
	DB	0a9H
	DB	029H
	DB	0a9H
	DB	029H
	DB	0a9H
	DB	031H
	DB	0a9H
	DB	029H
	DB	0a9H
	DB	031H
	DB	0a9H
	DB	029H
	DB	0a9H
	DB	031H
	DB	0a9H
	DB	029H
	DB	0aaH
	DB	029H
	DB	0a9H
	DB	031H
	DB	0aaH
	DB	029H
	DB	0caH
	DB	029H
	DB	0a9H
	DB	031H
	DB	0caH
	DB	031H
	DB	0c9H
	DB	029H
	DB	0caH
	DB	029H
	DB	0caH
	DB	031H
	DB	0caH
	DB	031H
	DB	0caH
	DB	031H
	DB	0caH
	DB	031H
	DB	0caH
	DB	031H
	DB	0caH
	DB	029H
	DB	0caH
	DB	031H
	DB	0caH
	DB	031H
	DB	0caH
	DB	029H
	DB	0caH
	DB	031H
	DB	0caH
	DB	029H
	DB	0caH
	DB	031H
	DB	0caH
	DB	031H
	DB	0caH
	DB	031H
	DB	0caH
	DB	031H
	DB	0caH
	DB	031H
	DB	0caH
	DB	031H
	DB	0caH
	DB	031H
	DB	0caH
	DB	031H
	DB	0caH
	DB	031H
	DB	0eaH
	DB	031H
	DB	0caH
	DB	031H
	DB	0caH
	DB	031H
	DB	0eaH
	DB	031H
	DB	0eaH
	DB	031H
	DB	0eaH
	DB	031H
	DB	0caH
	DB	031H
	DB	0eaH
	DB	031H
	DB	0caH
	DB	031H
	DB	0eaH
	DB	031H
	DB	0eaH
	DB	031H
	DB	0caH
	DB	031H
	DB	0eaH
	DB	031H
	DB	0ebH
	DB	031H
	DB	0eaH
	DB	031H
	DB	0eaH
	DB	031H
	DB	0cbH
	DB	031H
	DB	0eaH
	DB	031H
	DB	0eaH
	DB	031H
	DB	0ebH
	DB	031H
	DB	0caH
	DB	031H
	DB	0ebH
	DB	031H
	DB	0eaH
	DB	031H
	DB	0caH
	DB	031H
	DB	0ebH
	DB	031H
	DB	0eaH
	DB	031H
	DB	0eaH
	DB	031H
	DB	0ebH
	DB	031H
	DB	0cbH
	DB	031H
	DB	0eaH
	DB	031H
	DB	0ebH
	DB	031H
	DB	0eaH
	DB	029H
	DB	0eaH
	DB	031H
	DB	0eaH
	DB	031H
	DB	0caH
	DB	029H
	DB	0eaH
	DB	031H
	DB	0eaH
	DB	031H
	DB	0caH
	DB	031H
	DB	0eaH
	DB	031H
	DB	0caH
	DB	031H
	DB	0caH
	DB	031H
	DB	0eaH
	DB	031H
	DB	0caH
	DB	031H
	DB	0eaH
	DB	031H
	DB	0eaH
	DB	031H
	DB	0caH
	DB	031H
	DB	0caH
	DB	031H
	DB	0eaH
	DB	031H
	DB	0caH
	DB	031H
	DB	0caH
	DB	031H
	DB	0caH
	DB	031H
	DB	0caH
	DB	029H
	DB	0caH
	DB	031H
	DB	0caH
	DB	031H
	DB	0caH
	DB	031H
	DB	0caH
	DB	031H
	DB	0caH
	DB	031H
	DB	0caH
	DB	031H
	DB	0caH
	DB	031H
	DB	0caH
	DB	031H
	DB	0caH
	DB	029H
	DB	0caH
	DB	031H
	DB	0caH
	DB	031H
	DB	0caH
	DB	031H
	DB	0c9H
	DB	031H
	DB	0caH
	DB	029H
	DB	0aaH
	DB	031H
	DB	0c9H
	DB	031H
	DB	0a9H
	DB	029H
	DB	0caH
	DB	031H
	DB	0aaH
	DB	031H
	DB	0c9H
	DB	029H
	DB	0aaH
	DB	029H
	DB	0c9H
	DB	031H
	DB	0aaH
	DB	029H
	DB	0a9H
	DB	029H
	DB	0a9H
	DB	031H
	DB	0a9H
	DB	029H
	DB	0a9H
	DB	031H
	DB	0a9H
	DB	029H
	DB	0a9H
	DB	029H
	DB	0a9H
	DB	031H
	DB	0a9H
	DB	029H
	DB	0a9H
	DB	029H
	DB	0a9H
	DB	029H
	DB	0a9H
	DB	029H
	DB	0a9H
	DB	029H
	DB	0a9H
	DB	029H
	DB	0a9H
	DB	029H
	DB	0a8H
	DB	029H
	DB	089H
	DB	029H
	DB	089H
	DB	029H
	DB	089H
	DB	029H
	DB	089H
	DB	029H
	DB	088H
	DB	029H
	DB	089H
	DB	029H
	DB	088H
	DB	021H
	DB	089H
	DB	029H
	DB	089H
	DB	029H
	DB	088H
	DB	029H
	DB	088H
	DB	029H
	DB	088H
	DB	021H
	DB	068H
	DB	029H
	DB	068H
	DB	029H
	DB	088H
	DB	021H
	DB	068H
	DB	029H
	DB	068H
	DB	029H
	DB	068H
	DB	029H
	DB	068H
	DB	021H
	DB	068H
	DB	029H
	DB	068H
	DB	021H
	DB	067H
	DB	029H
	DB	068H
	DB	029H
	DB	047H
	DB	029H
	DB	067H
	DB	021H
	DB	048H
	DB	021H
	DB	048H
	DB	021H
	DB	067H
	DB	021H
	DB	047H
	DB	021H
	DB	047H
	DB	021H
	DB	047H
	DB	021H
	DB	047H
	DB	021H
	DB	047H
	DB	021H
	DB	047H
	DB	021H
	DB	047H
	DB	021H
	DB	027H
	DB	021H
	DB	046H
	DB	021H
	DB	027H
	DB	021H
	DB	027H
	DB	019H
	DB	027H
	DB	019H
	DB	026H
	DB	021H
	DB	027H
	DB	021H
	DB	027H
	DB	021H
	DB	026H
	DB	019H
	DB	026H
	DB	021H
	DB	06H
	DB	021H
	DB	026H
	DB	021H
	DB	026H
	DB	019H
	DB	06H
	DB	019H
	DB	06H
	DB	021H
	DB	05H
	DB	019H
	DB	06H
	DB	021H
	DB	06H
	DB	019H
	DB	06H
	DB	019H
	DB	06H
	DB	019H
	DB	0e5H
	DB	018H
	DB	05H
	DB	019H
	DB	05H
	DB	019H
	DB	0e5H
	DB	018H
	DB	0e5H
	DB	018H
	DB	0e5H
	DB	018H
	DB	0e5H
	DB	018H
	DB	0e5H
	DB	010H
	DB	0c5H
	DB	018H
	DB	0e5H
	DB	018H
	DB	0e5H
	DB	018H
	DB	0c4H
	DB	018H
	DB	0c5H
	DB	018H
	DB	0c4H
	DB	010H
	DB	0c4H
	DB	018H
	DB	0c4H
	DB	018H
	DB	0c4H
	DB	010H
	DB	0c4H
	DB	010H
	DB	0a4H
	DB	018H
	DB	0c4H
	DB	010H
	DB	0a4H
	DB	010H
	DB	0a4H
	DB	010H
	DB	0a3H
	DB	010H
	DB	0a3H
	DB	010H
	DB	0a4H
	DB	010H
	DB	0a3H
	DB	010H
	DB	0a3H
	DB	010H
	DB	0a3H
	DB	010H
	DB	0a3H
	DB	08H
	DB	083H
	DB	010H
	DB	083H
	DB	08H
	DB	083H
	DB	010H
	DB	083H
	DB	010H
	DB	083H
	DB	010H
	DB	083H
	DB	08H
	DB	082H
	DB	08H
	DB	063H
	DB	010H
	DB	063H
	DB	010H
	DB	062H
	DB	08H
	DB	062H
	DB	010H
	DB	062H
	DB	08H
	DB	062H
	DB	08H
	DB	062H
	DB	08H
	DB	042H
	DB	08H
	DB	062H
	DB	08H
	DB	042H
	DB	08H
	DB	041H
	DB	08H
	DB	041H
	DB	08H
	DB	042H
	DB	08H
	DB	041H
	DB	08H
	DB	021H
	DB	00H
	DB	041H
	DB	00H
	DB	041H
	DB	08H
	DB	021H
	DB	00H
	DB	021H
	DB	08H
	DB	021H
	DB	00H
	DB	021H
	DB	00H
	DB	021H
	DB	08H
	DB	01H
	DB	00H
	DB	020H
	DB	00H
	DB	021H
	DB	00H
	DB	00H
	DB	00H
	DB	00H
	DB	00H
	DB	00H
	DB	00H
	DB	00H
	DB	00H
	DB	00H
	DB	00H
	DB	00H
	DB	00H
	DB	00H
	DB	00H
	DB	00H
	DB	00H
	DB	00H
	DB	00H
	DB	00H
	DB	00H
	DB	00H
	DB	00H
	DB	00H
	DB	00H
	DB	00H
	DB	00H
	DB	00H
	DB	00H
	DB	00H
	DB	00H
	DB	00H
	DB	00H
	DB	00H
	DB	00H
	DB	00H
	DB	00H
	DB	00H
	DB	00H
	DB	00H
	DB	00H
	DB	00H
	DB	00H
	DB	00H
	DB	00H
	DB	00H
	DB	00H
	DB	00H
	DB	00H
	DB	020H
	DB	00H
	DB	00H
	DB	00H
	DB	021H
	DB	00H
	DB	01H
	DB	08H
	DB	020H
	DB	08H
	DB	021H
	DB	00H
	DB	021H
	DB	00H
	DB	020H
	DB	08H
	DB	021H
	DB	00H
	DB	021H
	DB	00H
	DB	041H
	DB	08H
	DB	041H
	DB	08H
	DB	041H
	DB	00H
	DB	042H
	DB	08H
	DB	042H
	DB	00H
	DB	041H
	DB	08H
	DB	042H
	DB	08H
	DB	061H
	DB	08H
	DB	042H
	DB	08H
	DB	062H
	DB	08H
	DB	062H
	DB	08H
	DB	062H
	DB	08H
	DB	062H
	DB	08H
	DB	062H
	DB	08H
	DB	062H
	DB	08H
	DB	082H
	DB	010H
	DB	083H
	DB	08H
	DB	063H
	DB	010H
	DB	082H
	DB	010H
	DB	083H
	DB	08H
	DB	083H
	DB	010H
	DB	083H
	DB	010H
	DB	083H
	DB	010H
	DB	0a3H
	DB	010H
	DB	0a3H
	DB	010H
	DB	0a3H
	DB	010H
	DB	0a4H
	DB	010H
	DB	0a3H
	DB	010H
	DB	0a4H
	DB	010H
	DB	0a4H
	DB	010H
	DB	0a4H
	DB	010H
	DB	0a4H
	DB	010H
	DB	0c4H
	DB	018H
	DB	0c4H
	DB	010H
	DB	0a4H
	DB	018H
	DB	0c4H
	DB	018H
	DB	0c4H
	DB	010H
	DB	0c4H
	DB	018H
	DB	0c5H
	DB	018H
	DB	0e5H
	DB	010H
	DB	0c5H
	DB	018H
	DB	0e4H
	DB	018H
	DB	0e5H
	DB	018H
	DB	0e5H
	DB	018H
	DB	0e5H
	DB	010H
	DB	0e5H
	DB	018H
	DB	0e5H
	DB	018H
	DB	0e5H
	DB	018H
	DB	0e5H
	DB	010H
	DB	0e5H
	DB	018H
	DB	05H
	DB	019H
	DB	05H
	DB	019H
	DB	0e6H
	DB	018H
	DB	06H
	DB	019H
	DB	06H
	DB	019H
	DB	06H
	DB	021H
	DB	06H
	DB	021H
	DB	06H
	DB	019H
	DB	06H
	DB	021H
	DB	026H
	DB	019H
	DB	026H
	DB	019H
	DB	026H
	DB	021H
	DB	026H
	DB	019H
	DB	026H
	DB	021H
	DB	026H
	DB	021H
	DB	027H
	DB	021H
	DB	027H
	DB	021H
	DB	027H
	DB	019H
	DB	026H
	DB	021H
	DB	027H
	DB	021H
	DB	047H
	DB	021H
	DB	047H
	DB	021H
	DB	047H
	DB	021H
	DB	047H
	DB	021H
	DB	047H
	DB	021H
	DB	047H
	DB	021H
	DB	047H
	DB	021H
	DB	047H
	DB	021H
	DB	047H
	DB	021H
	DB	067H
	DB	021H
	DB	068H
	DB	021H
	DB	048H
	DB	029H
	DB	067H
	DB	029H
	DB	048H
	DB	021H
	DB	068H
	DB	021H
	DB	068H
	DB	029H
	DB	068H
	DB	029H
	DB	067H
	DB	021H
	DB	068H
	DB	029H
	DB	068H
	DB	021H
	DB	068H
	DB	029H
	DB	088H
	DB	029H
	DB	068H
	DB	021H
	DB	088H
	DB	029H
	DB	088H
	DB	029H
	DB	088H
	DB	021H
	DB	088H
	DB	029H
	DB	069H
	DB	029H
	DB	088H
	DB	029H
	DB	089H
	DB	029H
	DB	088H
	DB	029H
	DB	089H
	DB	029H
	DB	089H
	DB	029H
	DB	089H
	DB	029H
	DB	089H
	DB	029H
	DB	089H
	DB	029H
	DB	0a8H
	DB	029H
	DB	089H
	DB	029H
	DB	0a9H
	DB	029H
	DB	0a9H
	DB	029H
	DB	089H
	DB	029H
	DB	0a9H
	DB	029H
	DB	0a9H
	DB	029H
	DB	0a9H
	DB	031H
	DB	0a9H
	DB	029H
	DB	0a9H
	DB	029H
	DB	0a9H
	DB	029H
	DB	0a9H
	DB	031H
	DB	0a9H
	DB	029H
	DB	0aaH
	DB	031H
	DB	0aaH
	DB	031H
	DB	0caH
	DB	029H
	DB	0c9H
	DB	031H
	DB	0aaH
	DB	031H
	DB	0caH
	DB	029H
	DB	0c9H
	DB	031H
	DB	0caH
	DB	031H
	DB	0caH
	DB	031H
	DB	0caH
	DB	031H
	DB	0aaH
	DB	031H
	DB	0caH
	DB	031H
	DB	0caH
	DB	029H
	DB	0caH
	DB	031H
	DB	0c9H
	DB	031H
	DB	0caH
	DB	031H
	DB	0caH
	DB	029H
	DB	0caH
	DB	031H
	DB	0caH
	DB	031H
	DB	0caH
	DB	031H
	DB	0caH
	DB	031H
	DB	0caH
	DB	031H
	DB	0caH
	DB	031H
	DB	0caH
	DB	031H
	DB	0caH
	DB	031H
	DB	0eaH
	DB	031H
	DB	0eaH
	DB	031H
	DB	0caH
	DB	031H
	DB	0eaH
	DB	031H
	DB	0eaH
	DB	031H
	DB	0caH
	DB	031H
	DB	0eaH
	DB	031H
	DB	0eaH
	DB	031H
	DB	0eaH
	DB	031H
	DB	0ebH
	DB	031H
	DB	0eaH
	DB	031H
	DB	0eaH
	DB	031H
	DB	0ebH
	DB	031H
	DB	0caH
	DB	031H
	DB	0cbH
	DB	031H
	DB	0ebH
	DB	031H
	DB	0ebH
	DB	031H
	DB	0eaH
	DB	031H
	DB	0ebH
	DB	031H
	DB	0cbH
	DB	031H
	DB	0eaH
	DB	031H
	DB	0ebH
	DB	031H
	DB	0ebH
	DB	031H
	DB	0eaH
	DB	031H
	DB	0ebH
	DB	031H
	DB	0ebH
	DB	031H
	DB	0eaH
	DB	031H
	DB	0ebH
	DB	031H
	DB	0ebH
	DB	031H
	DB	0eaH
	DB	031H
	DB	0ebH
	DB	031H
	DB	0ebH
	DB	031H
	DB	0cbH
	DB	031H
	DB	0eaH
	DB	031H
	DB	0ebH
	DB	031H
	DB	0eaH
	DB	031H
	DB	0ebH
	DB	031H
	DB	0cbH
	DB	031H
	DB	0ebH
	DB	031H
	DB	0ebH
	DB	031H
	DB	0ebH
	DB	031H
	DB	0ebH
	DB	031H
	DB	0eaH
	DB	031H
	DB	0ebH
	DB	031H
	DB	0cbH
	DB	031H
	DB	0ebH
	DB	031H
	DB	0eaH
	DB	031H
	DB	0caH
	DB	031H
	DB	0ebH
	DB	031H
	DB	0eaH
	DB	031H
	DB	0eaH
	DB	031H
	DB	0ebH
	DB	031H
	DB	0eaH
	DB	031H
	DB	0eaH
	DB	029H
	DB	0eaH
	DB	031H
	DB	0caH
	DB	031H
	DB	0eaH
	DB	031H
	DB	0eaH
	DB	031H
	DB	0caH
	DB	031H
	DB	0caH
	DB	031H
	DB	0eaH
	DB	029H
	DB	0caH
	DB	031H
	DB	0caH
	DB	031H
	DB	0caH
	DB	029H
	DB	0caH
	DB	031H
	DB	0caH
	DB	031H
	DB	0caH
	DB	029H
	DB	0caH
	DB	031H
	DB	0caH
	DB	031H
	DB	0caH
	DB	029H
	DB	0caH
	DB	031H
	DB	0caH
	DB	031H
	DB	0caH
	DB	031H
	DB	0caH
	DB	029H
	DB	0caH
	DB	031H
	DB	0caH
	DB	031H
	DB	0c9H
	DB	029H
	DB	0aaH
	DB	031H
	DB	0caH
	DB	031H
	DB	0aaH
	DB	031H
	DB	0caH
	DB	029H
	DB	0caH
	DB	029H
	DB	0aaH
	DB	031H
	DB	0aaH
	DB	031H
	DB	0aaH
	DB	029H
	DB	0a9H
	DB	029H
	DB	0a9H
	DB	031H
	DB	0a9H
	DB	031H
	DB	0a9H
	DB	029H
	DB	089H
	DB	031H
	DB	0a9H
	DB	029H
	DB	0a9H
	DB	029H
	DB	0a9H
	DB	029H
	DB	089H
	DB	029H
	DB	0a9H
	DB	029H
	DB	089H
	DB	029H
	DB	0a9H
	DB	029H
	DB	0a9H
	DB	029H
	DB	089H
	DB	029H
	DB	089H
	DB	029H
	DB	089H
	DB	029H
	DB	089H
	DB	029H
	DB	089H
	DB	029H
	DB	089H
	DB	029H
	DB	088H
	DB	029H
	DB	089H
	DB	029H
	DB	089H
	DB	029H
	DB	088H
	DB	021H
	DB	068H
	DB	029H
	DB	088H
	DB	029H
	DB	088H
	DB	021H
	DB	068H
	DB	029H
	DB	068H
	DB	029H
	DB	068H
	DB	021H
	DB	068H
	DB	029H
	DB	068H
	DB	029H
	DB	068H
	DB	021H
	DB	068H
	DB	021H
	DB	068H
	DB	029H
	DB	068H
	DB	021H
	DB	067H
	DB	029H
	DB	047H
	DB	029H
	DB	068H
	DB	021H
	DB	067H
	DB	021H
	DB	048H
	DB	021H
	DB	047H
	DB	021H
	DB	047H
	DB	021H
	DB	047H
	DB	021H
	DB	047H
	DB	021H
	DB	047H
	DB	021H
	DB	047H
	DB	021H
	DB	047H
	DB	021H
	DB	047H
	DB	021H
	DB	046H
	DB	021H
	DB	047H
	DB	021H
	DB	046H
	DB	021H
	DB	027H
	DB	021H
	DB	027H
	DB	021H
	DB	026H
	DB	021H
	DB	026H
	DB	021H
	DB	026H
	DB	019H
	DB	026H
	DB	021H
	DB	026H
	DB	019H
	DB	06H
	DB	021H
	DB	026H
	DB	021H
	DB	06H
	DB	019H
	DB	06H
	DB	019H
	DB	06H
	DB	019H
	DB	05H
	DB	021H
	DB	06H
	DB	019H
	DB	06H
	DB	019H
	DB	06H
	DB	019H
	DB	05H
	DB	019H
	DB	0e6H
	DB	018H
	DB	0e5H
	DB	018H
	DB	0e5H
	DB	018H
	DB	0e5H
	DB	018H
	DB	0e5H
	DB	018H
	DB	0e5H
	DB	018H
	DB	0e5H
	DB	010H
	DB	0c5H
	DB	018H
	DB	0e5H
	DB	018H
	DB	0e5H
	DB	010H
	DB	0e4H
	DB	018H
	DB	0c5H
	DB	018H
	DB	0c4H
	DB	010H
	DB	0c4H
	DB	018H
	DB	0c4H
	DB	010H
	DB	0c4H
	DB	010H
	DB	0c4H
	DB	010H
	DB	0a4H
	DB	018H
	DB	0c4H
	DB	010H
	DB	0c4H
	DB	010H
	DB	0a4H
	DB	010H
	DB	0a4H
	DB	010H
	DB	0a4H
	DB	010H
	DB	0a4H
	DB	010H
	DB	0a3H
	DB	010H
	DB	084H
	DB	010H
	DB	0a3H
	DB	010H
	DB	0a3H
	DB	010H
	DB	083H
	DB	010H
	DB	083H
	DB	010H
	DB	083H
	DB	08H
	DB	082H
	DB	010H
	DB	083H
	DB	010H
	DB	083H
	DB	010H
	DB	083H
	DB	08H
	DB	062H
	DB	08H
	DB	082H
	DB	08H
	DB	063H
	DB	08H
	DB	062H
	DB	010H
	DB	062H
	DB	08H
	DB	062H
	DB	08H
	DB	062H
	DB	08H
	DB	062H
	DB	08H
	DB	062H
	DB	08H
	DB	041H
	DB	08H
	DB	042H
	DB	08H
	DB	042H
	DB	08H
	DB	041H
	DB	08H
	DB	041H
	DB	08H
	DB	021H
	DB	08H
	DB	041H
	DB	00H
	DB	041H
	DB	08H
	DB	021H
	DB	08H
	DB	021H
	DB	00H
	DB	021H
	DB	08H
	DB	020H
	DB	08H
	DB	021H
	DB	00H
	DB	01H
	DB	08H
	DB	020H
	DB	00H
	DB	020H
	DB	00H
	DB	00H
	DB	00H
	DB	00H
	DB	00H
	DB	00H
	DB	00H
	DB	00H
	DB	00H
	DB	00H
	DB	00H
	DB	00H
	DB	00H
	DB	00H
	DB	00H
	DB	00H
	DB	00H
	DB	00H
	DB	00H
	DB	00H
	DB	00H
	DB	00H
	DB	00H
	DB	00H
	DB	00H
	DB	00H
	DB	00H
	DB	00H
	DB	00H
	DB	00H
	DB	00H
	DB	00H
	DB	00H
	DB	00H
	DB	00H
	DB	00H
	DB	00H
	DB	00H
	DB	00H
	DB	00H
	DB	00H
	DB	00H
	DB	00H
	DB	00H
	DB	00H
	DB	00H
	DB	00H
	DB	020H
	DB	00H
	DB	020H
	DB	00H
	DB	020H
	DB	00H
	DB	021H
	DB	00H
	DB	021H
	DB	08H
	DB	021H
	DB	08H
	DB	021H
	DB	00H
	DB	041H
	DB	08H
	DB	021H
	DB	08H
	DB	041H
	DB	08H
	DB	021H
	DB	08H
	DB	041H
	DB	08H
	DB	041H
	DB	08H
	DB	042H
	DB	08H
	DB	041H
	DB	08H
	DB	042H
	DB	08H
	DB	062H
	DB	08H
	DB	062H
	DB	08H
	DB	062H
	DB	08H
	DB	062H
	DB	08H
	DB	062H
	DB	08H
	DB	062H
	DB	010H
	DB	062H
	DB	010H
	DB	063H
	DB	08H
	DB	082H
	DB	010H
	DB	083H
	DB	010H
	DB	083H
	DB	08H
	DB	083H
	DB	010H
	DB	082H
	DB	08H
	DB	083H
	DB	010H
	DB	083H
	DB	010H
	DB	0a3H
	DB	010H
	DB	0a3H
	DB	010H
	DB	083H
	DB	010H
	DB	0a4H
	DB	010H
	DB	0a4H
	DB	010H
	DB	0a4H
	DB	010H
	DB	0a4H
	DB	010H
	DB	0a3H
	DB	010H
	DB	0c4H
	DB	010H
	DB	0c4H
	DB	010H
	DB	0c4H
	DB	010H
	DB	0a4H
	DB	010H
	DB	0c4H
	DB	010H
	DB	0c4H
	DB	018H
	DB	0c4H
	DB	018H
	DB	0c4H
	DB	010H
	DB	0c5H
	DB	018H
	DB	0e4H
	DB	018H
	DB	0c5H
	DB	010H
	DB	0c5H
	DB	010H
	DB	0e5H
	DB	018H
	DB	0e5H
	DB	010H
	DB	0e5H
	DB	018H
	DB	0e5H
	DB	018H
	DB	0e5H
	DB	018H
	DB	0e5H
	DB	018H
	DB	0e5H
	DB	018H
	DB	05H
	DB	019H
	DB	05H
	DB	019H
	DB	06H
	DB	019H
	DB	06H
	DB	019H
	DB	05H
	DB	019H
	DB	06H
	DB	019H
	DB	05H
	DB	019H
	DB	06H
	DB	019H
	DB	06H
	DB	019H
	DB	026H
	DB	021H
	DB	06H
	DB	021H
	DB	06H
	DB	019H
	DB	026H
	DB	021H
	DB	026H
	DB	021H
	DB	026H
	DB	019H
	DB	027H
	DB	021H
	DB	027H
	DB	021H
	DB	026H
	DB	021H
	DB	026H
	DB	021H
	DB	027H
	DB	021H
	DB	047H
	DB	019H
	DB	047H
	DB	021H
	DB	047H
	DB	021H
	DB	047H
	DB	021H
	DB	047H
	DB	021H
	DB	047H
	DB	021H
	DB	047H
	DB	021H
	DB	047H
	DB	021H
	DB	047H
	DB	021H
	DB	047H
	DB	021H
	DB	067H
	DB	021H
	DB	048H
	DB	029H
	DB	067H
	DB	021H
	DB	068H
	DB	029H
	DB	068H
	DB	021H
	DB	068H
	DB	029H
	DB	068H
	DB	021H
	DB	068H
	DB	021H
	DB	068H
	DB	029H
	DB	068H
	DB	029H
	DB	068H
	DB	021H
	DB	068H
	DB	029H
	DB	088H
	DB	029H
	DB	068H
	DB	029H
	DB	088H
	DB	029H
	DB	088H
	DB	029H
	DB	089H
	DB	029H
	DB	089H
	DB	029H
	DB	089H
	DB	029H
	DB	089H
	DB	021H
	DB	088H
	DB	029H
	DB	089H
	DB	029H
	DB	089H
	DB	029H
	DB	089H
	DB	029H
	DB	088H
	DB	029H
	DB	089H
	DB	029H
	DB	0a9H
	DB	029H
	DB	0a9H
	DB	029H
	DB	0a9H
	DB	029H
	DB	0a9H
	DB	029H
	DB	0a9H
	DB	029H
	DB	0a9H
	DB	029H
	DB	0a9H
	DB	031H
	DB	0a9H
	DB	029H
	DB	0a9H
	DB	029H
	DB	0a9H
	DB	031H
	DB	0a9H
	DB	029H
	DB	0a9H
	DB	031H
	DB	0aaH
	DB	031H
	DB	0caH
	DB	029H
	DB	0c9H
	DB	029H
	DB	0aaH
	DB	031H
	DB	0caH
	DB	029H
	DB	0c9H
	DB	029H
	DB	0caH
	DB	031H
	DB	0aaH
	DB	031H
	DB	0caH
	DB	031H
	DB	0caH
	DB	031H
	DB	0caH
	DB	029H
	DB	0caH
	DB	029H
	DB	0caH
	DB	031H
	DB	0caH
	DB	031H
	DB	0caH
	DB	029H
	DB	0caH
	DB	031H
	DB	0caH
	DB	031H
	DB	0caH
	DB	031H
	DB	0caH
	DB	029H
	DB	0caH
	DB	031H
	DB	0caH
	DB	031H
	DB	0caH
	DB	031H
	DB	0caH
	DB	031H
	DB	0caH
	DB	031H
	DB	0eaH
	DB	031H
	DB	0eaH
	DB	031H
	DB	0eaH
	DB	031H
	DB	0caH
	DB	031H
	DB	0eaH
	DB	031H
	DB	0caH
	DB	031H
	DB	0ebH
	DB	029H
	DB	0caH
	DB	031H
	DB	0ebH
	DB	031H
	DB	0ebH
	DB	031H
	DB	0eaH
	DB	031H
	DB	0ebH
	DB	031H
	DB	0ebH
	DB	031H
	DB	0cbH
	DB	031H
	DB	0eaH
	DB	031H
	DB	0ebH
	DB	031H
	DB	0ebH
	DB	031H
	DB	0ebH
	DB	031H
	DB	0eaH
	DB	031H
	DB	0eaH
	DB	031H
	DB	0ebH
	DB	031H
	DB	0ebH
	DB	031H
	DB	0ebH
	DB	031H
	DB	0eaH
	DB	031H
	DB	0ebH
	DB	031H
	DB	0ebH
	DB	031H
	DB	0ebH
	DB	031H
	DB	0eaH
	DB	031H
	DB	0ebH
	DB	031H
	DB	0eaH
	DB	031H
	DB	0ebH
	DB	031H
	DB	0ebH
	DB	031H
	DB	0ebH
	DB	031H
	DB	0ebH
	DB	031H
	DB	0eaH
	DB	031H
	DB	0ebH
	DB	031H
	DB	0ebH
	DB	031H
	DB	0eaH
	DB	031H
	DB	0ebH
	DB	031H
	DB	0ebH
	DB	031H
	DB	0eaH
	DB	031H
	DB	0eaH
	DB	031H
	DB	0ebH
	DB	031H
	DB	0ebH
	DB	031H
	DB	0eaH
	DB	031H
	DB	0ebH
	DB	031H
	DB	0ebH
	DB	031H
	DB	0ebH
	DB	031H
	DB	0eaH
	DB	031H
	DB	0ebH
	DB	031H
	DB	0ebH
	DB	031H
	DB	0ebH
	DB	031H
	DB	0ebH
	DB	031H
	DB	0ebH
	DB	031H
	DB	0caH
	DB	031H
	DB	0ebH
	DB	031H
	DB	0eaH
	DB	031H
	DB	0ebH
	DB	031H
	DB	0caH
	DB	031H
	DB	0eaH
	DB	031H
	DB	0ebH
	DB	031H
	DB	0ebH
	DB	031H
	DB	0eaH
	DB	031H
	DB	0eaH
	DB	031H
	DB	0caH
	DB	031H
	DB	0eaH
	DB	031H
	DB	0eaH
	DB	031H
	DB	0caH
	DB	031H
	DB	0eaH
	DB	031H
	DB	0caH
	DB	031H
	DB	0caH
	DB	031H
	DB	0caH
	DB	031H
	DB	0caH
	DB	031H
	DB	0caH
	DB	031H
	DB	0caH
	DB	031H
	DB	0caH
	DB	031H
	DB	0caH
	DB	029H
	DB	0caH
	DB	031H
	DB	0caH
	DB	031H
	DB	0caH
	DB	029H
	DB	0caH
	DB	031H
	DB	0caH
	DB	031H
	DB	0c9H
	DB	031H
	DB	0c9H
	DB	031H
	DB	0caH
	DB	031H
	DB	0aaH
	DB	031H
	DB	0c9H
	DB	029H
	DB	0caH
	DB	031H
	DB	0aaH
	DB	029H
	DB	0c9H
	DB	029H
	DB	0aaH
	DB	031H
	DB	0caH
	DB	029H
	DB	0a9H
	DB	029H
	DB	0a9H
	DB	031H
	DB	0a9H
	DB	031H
	DB	0a9H
	DB	029H
	DB	0a9H
	DB	031H
	DB	0a9H
	DB	029H
	DB	0a9H
	DB	029H
	DB	0a9H
	DB	029H
	DB	0a9H
	DB	029H
	DB	0a9H
	DB	029H
	DB	0a9H
	DB	029H
	DB	0a8H
	DB	029H
	DB	0a9H
	DB	029H
	DB	0a9H
	DB	029H
	DB	0a8H
	DB	029H
	DB	088H
	DB	029H
	DB	089H
	DB	029H
	DB	088H
	DB	029H
	DB	089H
	DB	029H
	DB	089H
	DB	029H
	DB	088H
	DB	029H
	DB	089H
	DB	029H
	DB	088H
	DB	029H
	DB	068H
	DB	029H
	DB	088H
	DB	021H
	DB	088H
	DB	029H
	DB	068H
	DB	029H
	DB	068H
	DB	021H
	DB	068H
	DB	029H
	DB	068H
	DB	029H
	DB	068H
	DB	021H
	DB	068H
	DB	021H
	DB	068H
	DB	021H
	DB	068H
	DB	029H
	DB	068H
	DB	029H
	DB	048H
	DB	021H
	DB	067H
	DB	021H
	DB	067H
	DB	021H
	DB	047H
	DB	021H
	DB	047H
	DB	021H
	DB	047H
	DB	021H
	DB	047H
	DB	021H
	DB	047H
	DB	021H
	DB	027H
	DB	021H
	DB	047H
	DB	021H
	DB	027H
	DB	021H
	DB	027H
	DB	021H
	DB	047H
	DB	021H
	DB	047H
	DB	021H
	DB	026H
	DB	019H
	DB	026H
	DB	019H
	DB	027H
	DB	021H
	DB	026H
	DB	021H
	DB	026H
	DB	019H
	DB	026H
	DB	019H
	DB	06H
	DB	021H
	DB	026H
	DB	021H
	DB	026H
	DB	019H
	DB	026H
	DB	019H
	DB	026H
	DB	021H
	DB	06H
	DB	019H
	DB	05H
	DB	019H
	DB	06H
	DB	019H
	DB	05H
	DB	019H
	DB	06H
	DB	019H
	DB	05H
	DB	019H
	DB	05H
	DB	019H
	DB	0e6H
	DB	018H
	DB	0e5H
	DB	018H
	DB	0e5H
	DB	018H
	DB	0e5H
	DB	018H
	DB	0e5H
	DB	018H
	DB	0e5H
	DB	018H
	DB	0e4H
	DB	018H
	DB	0c5H
	DB	018H
	DB	0e5H
	DB	018H
	DB	0e5H
	DB	010H
	DB	0e4H
	DB	010H
	DB	0c5H
	DB	018H
	DB	0c5H
	DB	018H
	DB	0c4H
	DB	010H
	DB	0c4H
	DB	010H
	DB	0c4H
	DB	018H
	DB	0c4H
	DB	018H
	DB	0a4H
	DB	010H
	DB	0c4H
	DB	010H
	DB	0a4H
	DB	010H
	DB	0a3H
	DB	010H
	DB	0a4H
	DB	010H
	DB	0a4H
	DB	010H
	DB	0a3H
	DB	010H
	DB	0a3H
	DB	010H
	DB	083H
	DB	010H
	DB	0a3H
	DB	010H
	DB	083H
	DB	010H
	DB	083H
	DB	010H
	DB	083H
	DB	08H
	DB	083H
	DB	010H
	DB	083H
	DB	08H
	DB	083H
	DB	010H
	DB	082H
	DB	08H
	DB	063H
	DB	010H
	DB	062H
	DB	08H
	DB	062H
	DB	08H
	DB	062H
	DB	08H
	DB	062H
	DB	08H
	DB	062H
	DB	08H
	DB	042H
	DB	08H
	DB	062H
	DB	08H
	DB	042H
	DB	08H
	DB	062H
	DB	08H
	DB	041H
	DB	08H
	DB	042H
	DB	08H
	DB	042H
	DB	08H
	DB	041H
	DB	08H
	DB	041H
	DB	00H
	DB	021H
	DB	08H
	DB	041H
	DB	08H
	DB	041H
	DB	00H
	DB	021H
	DB	00H
	DB	020H
	DB	00H
	DB	021H
	DB	08H
	DB	021H
	DB	00H
	DB	00H
	DB	00H
	DB	01H
	DB	00H
	DB	020H
	DB	00H
	DB	020H
	DB	00H
	DB	00H
	DB	00H
	DB	00H
	DB	00H
	DB	00H
	DB	00H
	DB	00H
	DB	00H
	DB	00H
	DB	00H
	DB	00H
	DB	00H
	DB	00H
	DB	00H
	DB	00H
	DB	00H
	DB	00H
	DB	00H
	DB	00H
	DB	00H
	DB	00H
	DB	00H
	DB	00H
	DB	00H
	DB	00H
	DB	00H
	DB	00H
	DB	00H
	DB	00H
	DB	00H
	DB	00H
	DB	00H
	DB	00H
	DB	00H
	DB	00H
	DB	00H
	DB	00H
	DB	00H
	DB	00H
	DB	00H
	DB	00H
	DB	00H
	DB	01H
	DB	08H
	DB	021H
	DB	00H
	DB	021H
	DB	08H
	DB	020H
	DB	00H
	DB	021H
	DB	00H
	DB	021H
	DB	08H
	DB	021H
	DB	00H
	DB	041H
	DB	00H
	DB	041H
	DB	08H
	DB	041H
	DB	08H
	DB	042H
	DB	00H
	DB	041H
	DB	08H
	DB	042H
	DB	08H
	DB	042H
	DB	08H
	DB	041H
	DB	08H
	DB	062H
	DB	08H
	DB	062H
	DB	08H
	DB	062H
	DB	08H
	DB	042H
	DB	08H
	DB	062H
	DB	08H
	DB	062H
	DB	08H
	DB	062H
	DB	08H
	DB	083H
	DB	08H
	DB	063H
	DB	010H
	DB	063H
	DB	08H
	DB	082H
	DB	010H
	DB	083H
	DB	08H
	DB	083H
	DB	010H
	DB	083H
	DB	010H
	DB	083H
	DB	010H
	DB	0a3H
	DB	08H
	DB	083H
	DB	010H
	DB	083H
	DB	010H
	DB	0a4H
	DB	010H
	DB	0a3H
	DB	010H
	DB	0a4H
	DB	010H
	DB	0a3H
	DB	010H
	DB	0a4H
	DB	010H
	DB	0a4H
	DB	010H
	DB	0c4H
	DB	010H
	DB	0a4H
	DB	018H
	DB	0c4H
	DB	010H
	DB	0c4H
	DB	010H
	DB	0c4H
	DB	018H
	DB	0c4H
	DB	010H
	DB	0c4H
	DB	010H
	DB	0e5H
	DB	018H
	DB	0e5H
	DB	010H
	DB	0c4H
	DB	018H
	DB	0e4H
	DB	018H
	DB	0e5H
	DB	018H
	DB	0e5H
	DB	018H
	DB	0c5H
	DB	018H
	DB	0e5H
	DB	018H
	DB	0e5H
	DB	018H
	DB	0e5H
	DB	018H
	DB	05H
	DB	019H
	DB	0e5H
	DB	018H
	DB	06H
	DB	019H
	DB	0e6H
	DB	018H
	DB	05H
	DB	019H
	DB	06H
	DB	019H
	DB	06H
	DB	019H
	DB	06H
	DB	021H
	DB	06H
	DB	019H
	DB	06H
	DB	019H
	DB	026H
	DB	021H
	DB	026H
	DB	019H
	DB	026H
	DB	021H
	DB	026H
	DB	021H
	DB	026H
	DB	019H
	DB	026H
	DB	021H
	DB	027H
	DB	021H
	DB	026H
	DB	021H
	DB	027H
	DB	019H
	DB	047H
	DB	019H
	DB	047H
	DB	021H
	DB	027H
	DB	021H
	DB	047H
	DB	021H
	DB	047H
	DB	021H
	DB	047H
	DB	021H
	DB	047H
	DB	021H
	DB	047H
	DB	021H
	DB	047H
	DB	021H
	DB	047H
	DB	021H
	DB	047H
	DB	021H
	DB	048H
	DB	021H
	DB	067H
	DB	021H
	DB	068H
	DB	021H
	DB	068H
	DB	029H
	DB	068H
	DB	029H
	DB	068H
	DB	021H
	DB	067H
	DB	021H
	DB	068H
	DB	029H
	DB	068H
	DB	029H
	DB	068H
	DB	029H
	DB	068H
	DB	021H
	DB	068H
	DB	029H
	DB	088H
	DB	029H
	DB	088H
	DB	029H
	DB	068H
	DB	021H
	DB	088H
	DB	029H
	DB	088H
	DB	029H
	DB	088H
	DB	029H
	DB	089H
	DB	029H
	DB	088H
	DB	029H
	DB	089H
	DB	029H
	DB	088H
	DB	029H
	DB	089H
	DB	029H
	DB	0a8H
	DB	029H
	DB	0a9H
	DB	029H
	DB	0a9H
	DB	029H
	DB	0a9H
	DB	029H
	DB	0a9H
	DB	029H
	DB	0a9H
	DB	029H
	DB	0a9H
	DB	029H
	DB	0a9H
	DB	029H
	DB	0a9H
	DB	029H
	DB	0a9H
	DB	029H
	DB	0a9H
	DB	031H
	DB	0a9H
	DB	029H
	DB	0a9H
	DB	029H
	DB	0a9H
	DB	029H
	DB	0aaH
	DB	031H
	DB	0aaH
	DB	029H
	DB	0a9H
	DB	031H
	DB	0caH
	DB	029H
	DB	0aaH
	DB	031H
	DB	0a9H
	DB	031H
	DB	0caH
	DB	029H
	DB	0caH
	DB	031H
	DB	0caH
	DB	031H
	DB	0caH
	DB	029H
	DB	0caH
	DB	029H
	DB	0caH
	DB	031H
	DB	0caH
	DB	031H
	DB	0caH
	DB	031H
	DB	0caH
	DB	031H
	DB	0caH
	DB	031H
	DB	0caH
	DB	029H
	DB	0caH
	DB	031H
	DB	0caH
	DB	031H
	DB	0caH
	DB	031H
	DB	0caH
	DB	031H
	DB	0caH
	DB	031H
	DB	0caH
	DB	031H
	DB	0eaH
	DB	031H
	DB	0caH
	DB	031H
	DB	0eaH
	DB	031H
	DB	0eaH
	DB	031H
	DB	0caH
	DB	031H
	DB	0eaH
	DB	029H
	DB	0caH
	DB	031H
	DB	0ebH
	DB	031H
	DB	0eaH
	DB	031H
	DB	0ebH
	DB	031H
	DB	0ebH
	DB	031H
	DB	0eaH
	DB	031H
	DB	0ebH
	DB	031H
	DB	0ebH
	DB	031H
	DB	0ebH
	DB	031H
	DB	0ebH
	DB	031H
	DB	0cbH
	DB	031H
	DB	0eaH
	DB	031H
	DB	0ebH
	DB	031H
	DB	0ebH
	DB	031H
	DB	0eaH
	DB	031H
	DB	0ebH
	DB	031H
	DB	0ebH
	DB	031H
	DB	0eaH
	DB	031H
	DB	0ebH
	DB	031H
	DB	0ebH
	DB	031H
	DB	0eaH
	DB	031H
	DB	0ebH
	DB	031H
	DB	0ebH
	DB	031H
	DB	0ebH
	DB	031H
	DB	0ebH
	DB	031H
	DB	0ebH
	DB	031H
	DB	0ebH
	DB	031H
	DB	0ebH
	DB	031H
	DB	0ebH
	DB	031H
	DB	0eaH
	DB	031H
	DB	0ebH
	DB	031H
	DB	0ebH
	DB	031H
	DB	0ebH
	DB	031H
	DB	0ebH
	DB	031H
	DB	0ebH
	DB	031H
	DB	0ebH
	DB	031H
	DB	0ebH
	DB	031H
	DB	0ebH
	DB	031H
	DB	0ebH
	DB	031H
	DB	0ebH
	DB	031H
	DB	0ebH
	DB	031H
	DB	0eaH
	DB	031H
	DB	0eaH
	DB	031H
	DB	0ebH
	DB	031H
	DB	0ebH
	DB	031H
	DB	0ebH
	DB	031H
	DB	0eaH
	DB	031H
	DB	0eaH
	DB	031H
	DB	0ebH
	DB	031H
	DB	0eaH
	DB	031H
	DB	0ebH
	DB	031H
	DB	0ebH
	DB	031H
	DB	0ebH
	DB	031H
	DB	0eaH
	DB	031H
	DB	0ebH
	DB	031H
	DB	0ebH
	DB	031H
	DB	0ebH
	DB	031H
	DB	0eaH
	DB	031H
	DB	0ebH
	DB	031H
	DB	0eaH
	DB	031H
	DB	0eaH
	DB	031H
	DB	0ebH
	DB	031H
	DB	0ebH
	DB	031H
	DB	0eaH
	DB	031H
	DB	0ebH
	DB	031H
	DB	0cbH
	DB	031H
	DB	0eaH
	DB	031H
	DB	0eaH
	DB	031H
	DB	0caH
	DB	031H
	DB	0caH
	DB	031H
	DB	0caH
	DB	031H
	DB	0caH
	DB	031H
	DB	0caH
	DB	031H
	DB	0caH
	DB	031H
	DB	0caH
	DB	031H
	DB	0caH
	DB	031H
	DB	0caH
	DB	031H
	DB	0caH
	DB	031H
	DB	0caH
	DB	031H
	DB	0caH
	DB	029H
	DB	0caH
	DB	029H
	DB	0caH
	DB	029H
	DB	0caH
	DB	031H
	DB	0caH
	DB	031H
	DB	0c9H
	DB	029H
	DB	0aaH
	DB	031H
	DB	0caH
	DB	031H
	DB	0c9H
	DB	031H
	DB	0caH
	DB	029H
	DB	0a9H
	DB	031H
	DB	0caH
	DB	029H
	DB	0aaH
	DB	031H
	DB	0a9H
	DB	029H
	DB	0a9H
	DB	029H
	DB	0a9H
	DB	031H
	DB	0a9H
	DB	029H
	DB	0a9H
	DB	029H
	DB	0a9H
	DB	031H
	DB	0a9H
	DB	029H
	DB	0a9H
	DB	029H
	DB	0a9H
	DB	029H
	DB	0a9H
	DB	029H
	DB	0a9H
	DB	029H
	DB	089H
	DB	029H
	DB	089H
	DB	029H
	DB	089H
	DB	029H
	DB	0a9H
	DB	029H
	DB	089H
	DB	029H
	DB	088H
	DB	029H
	DB	089H
	DB	029H
	DB	089H
	DB	029H
	DB	088H
	DB	029H
	DB	088H
	DB	029H
	DB	088H
	DB	029H
	DB	088H
	DB	029H
	DB	088H
	DB	029H
	DB	088H
	DB	029H
	DB	088H
	DB	029H
	DB	068H
	DB	021H
	DB	068H
	DB	029H
	DB	068H
	DB	029H
	DB	068H
	DB	029H
	DB	068H
	DB	021H
	DB	068H
	DB	021H
	DB	068H
	DB	029H
	DB	067H
	DB	021H
	DB	068H
	DB	029H
	DB	068H
	DB	029H
	DB	068H
	DB	021H
	DB	067H
	DB	021H
	DB	047H
	DB	021H
	DB	047H
	DB	021H
	DB	047H
	DB	021H
	DB	047H
	DB	021H
	DB	047H
	DB	021H
	DB	047H
	DB	021H
	DB	047H
	DB	021H
	DB	027H
	DB	021H
	DB	027H
	DB	021H
	DB	047H
	DB	021H
	DB	027H
	DB	021H
	DB	027H
	DB	021H
	DB	027H
	DB	021H
	DB	026H
	DB	021H
	DB	026H
	DB	021H
	DB	026H
	DB	019H
	DB	026H
	DB	019H
	DB	026H
	DB	021H
	DB	06H
	DB	021H
	DB	026H
	DB	019H
	DB	06H
	DB	021H
	DB	06H
	DB	021H
	DB	06H
	DB	019H
	DB	06H
	DB	019H
	DB	06H
	DB	019H
	DB	06H
	DB	019H
	DB	05H
	DB	019H
	DB	05H
	DB	019H
	DB	05H
	DB	019H
	DB	05H
	DB	019H
	DB	0e5H
	DB	018H
	DB	0e5H
	DB	018H
	DB	0e5H
	DB	018H
	DB	0e5H
	DB	018H
	DB	0e5H
	DB	018H
	DB	0e5H
	DB	018H
	DB	0e4H
	DB	018H
	DB	0c5H
	DB	018H
	DB	0c5H
	DB	010H
	DB	0c4H
	DB	018H
	DB	0c4H
	DB	018H
	DB	0c4H
	DB	010H
	DB	0c4H
	DB	010H
	DB	0c4H
	DB	018H
	DB	0c4H
	DB	010H
	DB	0a4H
	DB	010H
	DB	0c4H
	DB	010H
	DB	0a3H
	DB	010H
	DB	0a4H
	DB	010H
	DB	0a4H
	DB	010H
	DB	0a3H
	DB	010H
	DB	0a4H
	DB	010H
	DB	0a4H
	DB	010H
	DB	083H
	DB	010H
	DB	0a3H
	DB	08H
	DB	083H
	DB	010H
	DB	083H
	DB	010H
	DB	083H
	DB	08H
	DB	083H
	DB	010H
	DB	082H
	DB	010H
	DB	083H
	DB	010H
	DB	063H
	DB	08H
	DB	082H
	DB	010H
	DB	062H
	DB	010H
	DB	063H
	DB	08H
	DB	062H
	DB	08H
	DB	062H
	DB	08H
	DB	062H
	DB	08H
	DB	062H
	DB	08H
	DB	042H
	DB	08H
	DB	042H
	DB	08H
	DB	061H
	DB	08H
	DB	042H
	DB	08H
	DB	041H
	DB	08H
	DB	042H
	DB	08H
	DB	041H
	DB	08H
	DB	041H
	DB	00H
	DB	021H
	DB	08H
	DB	021H
	DB	08H
	DB	021H
	DB	00H
	DB	021H
	DB	08H
	DB	021H
	DB	08H
	DB	020H
	DB	00H
	DB	021H
	DB	00H
	DB	00H
	DB	08H
	DB	020H
	DB	00H
	DB	01H
	DB	00H
	DB	00H
	DB	00H
	DB	00H
	DB	00H
	DB	00H
	DB	00H
	DB	00H
	DB	00H
	DB	00H
	DB	00H
	DB	00H
	DB	00H
	DB	00H
	DB	00H
	DB	00H
	DB	00H
	DB	00H
	DB	00H
	DB	00H
	DB	00H
	DB	00H
	DB	00H
	DB	00H
	DB	00H
	DB	00H
	DB	00H
	DB	00H
	DB	00H
	DB	00H
	DB	00H
	DB	00H
	DB	00H
	DB	00H
	DB	00H
	DB	00H
	DB	00H
	DB	020H
	DB	00H
	DB	00H
	DB	00H
	DB	020H
	DB	00H
	DB	00H
	DB	00H
	DB	021H
	DB	08H
	DB	020H
	DB	08H
	DB	021H
	DB	08H
	DB	021H
	DB	00H
	DB	021H
	DB	08H
	DB	041H
	DB	08H
	DB	021H
	DB	08H
	DB	021H
	DB	08H
	DB	041H
	DB	08H
	DB	041H
	DB	00H
	DB	042H
	DB	08H
	DB	042H
	DB	08H
	DB	042H
	DB	08H
	DB	042H
	DB	08H
	DB	062H
	DB	08H
	DB	062H
	DB	08H
	DB	042H
	DB	08H
	DB	062H
	DB	08H
	DB	062H
	DB	010H
	DB	062H
	DB	08H
	DB	062H
	DB	08H
	DB	082H
	DB	010H
	DB	063H
	DB	010H
	DB	083H
	DB	010H
	DB	083H
	DB	08H
	DB	083H
	DB	010H
	DB	083H
	DB	010H
	DB	083H
	DB	010H
	DB	083H
	DB	08H
	DB	0a3H
	DB	010H
	DB	083H
	DB	010H
	DB	0a4H
	DB	010H
	DB	0a3H
	DB	010H
	DB	0a3H
	DB	010H
	DB	0a4H
	DB	010H
	DB	0a4H
	DB	010H
	DB	0c3H
	DB	010H
	DB	0c4H
	DB	010H
	DB	0c4H
	DB	010H
	DB	0a4H
	DB	010H
	DB	0c4H
	DB	018H
	DB	0c4H
	DB	018H
	DB	0c4H
	DB	018H
	DB	0c5H
	DB	018H
	DB	0c5H
	DB	018H
	DB	0e4H
	DB	018H
	DB	0c5H
	DB	010H
	DB	0e5H
	DB	018H
	DB	0e5H
	DB	018H
	DB	0e5H
	DB	018H
	DB	0e5H
	DB	018H
	DB	0e5H
	DB	018H
	DB	0e5H
	DB	018H
	DB	0e5H
	DB	018H
	DB	05H
	DB	019H
	DB	05H
	DB	019H
	DB	0e6H
	DB	018H
	DB	0e5H
	DB	018H
	DB	06H
	DB	019H
	DB	06H
	DB	019H
	DB	05H
	DB	019H
	DB	06H
	DB	019H
	DB	026H
	DB	021H
	DB	026H
	DB	021H
	DB	06H
	DB	021H
	DB	026H
	DB	019H
	DB	026H
	DB	019H
	DB	026H
	DB	021H
	DB	026H
	DB	021H
	DB	026H
	DB	021H
	DB	027H
	DB	019H
	DB	027H
	DB	021H
	DB	026H
	DB	021H
	DB	027H
	DB	021H
	DB	047H
	DB	021H
	DB	047H
	DB	021H
	DB	047H
	DB	021H
	DB	047H
	DB	021H
	DB	047H
	DB	021H
	DB	047H
	DB	021H
	DB	047H
	DB	021H
	DB	047H
	DB	021H
	DB	047H
	DB	021H
	DB	067H
	DB	021H
	DB	068H
	DB	021H
	DB	068H
	DB	029H
	DB	048H
	DB	029H
	DB	067H
	DB	021H
	DB	068H
	DB	021H
	DB	048H
	DB	029H
	DB	068H
	DB	021H
	DB	068H
	DB	029H
	DB	068H
	DB	021H
	DB	088H
	DB	029H
	DB	068H
	DB	029H
	DB	088H
	DB	029H
	DB	088H
	DB	029H
	DB	088H
	DB	029H
	DB	088H
	DB	021H
	DB	089H
	DB	029H
	DB	089H
	DB	029H
	DB	089H
	DB	029H
	DB	089H
	DB	021H
	DB	088H
	DB	029H
	DB	089H
	DB	029H
	DB	089H
	DB	029H
	DB	089H
	DB	029H
	DB	089H
	DB	029H
	DB	0a9H
	DB	029H
	DB	089H
	DB	029H
	DB	0a9H
	DB	029H
	DB	0a9H
	DB	029H
	DB	0a9H
	DB	029H
	DB	089H
	DB	029H
	DB	0a9H
	DB	029H
	DB	0a9H
	DB	029H
	DB	0a9H
	DB	029H
	DB	0a9H
	DB	031H
	DB	0a9H
	DB	029H
	DB	0aaH
	DB	031H
	DB	0aaH
	DB	031H
	DB	0c9H
	DB	031H
	DB	0caH
	DB	029H
	DB	0aaH
	DB	031H
	DB	0c9H
	DB	031H
	DB	0caH
	DB	029H
	DB	0aaH
	DB	031H
	DB	0caH
	DB	031H
	DB	0caH
	DB	031H
	DB	0c9H
	DB	031H
	DB	0caH
	DB	031H
	DB	0caH
	DB	031H
	DB	0caH
	DB	031H
	DB	0caH
	DB	029H
	DB	0caH
	DB	031H
	DB	0caH
	DB	031H
	DB	0caH
	DB	031H
	DB	0caH
	DB	031H
	DB	0caH
	DB	031H
	DB	0caH
	DB	031H
	DB	0caH
	DB	031H
	DB	0eaH
	DB	031H
	DB	0eaH
	DB	031H
	DB	0eaH
	DB	031H
	DB	0eaH
	DB	031H
	DB	0eaH
	DB	031H
	DB	0eaH
	DB	031H
	DB	0ebH
	DB	031H
	DB	0eaH
	DB	031H
	DB	0ebH
	DB	031H
	DB	0cbH
	DB	031H
	DB	0ebH
	DB	031H
	DB	0ebH
	DB	031H
	DB	0ebH
	DB	031H
	DB	0eaH
	DB	031H
	DB	0ebH
	DB	031H
	DB	0ebH
	DB	031H
	DB	0eaH
	DB	031H
	DB	0ebH
	DB	031H
	DB	0eaH
	DB	031H
	DB	0eaH
	DB	031H
	DB	0ebH
	DB	031H
	DB	0ebH
	DB	031H
	DB	0eaH
	DB	031H
	DB	0ebH
	DB	031H
	DB	0ebH
	DB	031H
	DB	0ebH
	DB	031H
	DB	0ebH
	DB	031H
	DB	0ebH
	DB	031H
	DB	0ebH
	DB	031H
	DB	0ebH
	DB	031H
	DB	0ebH
	DB	031H
	DB	0bH
	DB	032H
	DB	0ebH
	DB	039H
	DB	0eaH
	DB	031H
	DB	0bH
	DB	032H
	DB	0ebH
	DB	031H
	DB	0ebH
	DB	039H
	DB	0ebH
	DB	031H
	DB	0ebH
	DB	031H
	DB	0ebH
	DB	039H
	DB	0ebH
	DB	031H
	DB	0ebH
	DB	039H
	DB	0bH
	DB	032H
	DB	0ebH
	DB	031H
	DB	0bH
	DB	032H
	DB	0bH
	DB	032H
	DB	0ebH
	DB	031H
	DB	0ebH
	DB	039H
	DB	0bH
	DB	032H
	DB	0ebH
	DB	031H
	DB	0ebH
	DB	031H
	DB	0bH
	DB	032H
	DB	0ebH
	DB	031H
	DB	0ebH
	DB	031H
	DB	0bH
	DB	032H
	DB	0ebH
	DB	031H
	DB	0bH
	DB	032H
	DB	0ebH
	DB	031H
	DB	0ebH
	DB	031H
	DB	0ebH
	DB	031H
	DB	0eaH
	DB	031H
	DB	0ebH
	DB	031H
	DB	0ebH
	DB	031H
	DB	0eaH
	DB	031H
	DB	0ebH
	DB	031H
	DB	0ebH
	DB	031H
	DB	0ebH
	DB	031H
	DB	0ebH
	DB	031H
	DB	0eaH
	DB	031H
	DB	0ebH
	DB	031H
	DB	0eaH
	DB	031H
	DB	0cbH
	DB	031H
	DB	0ebH
	DB	031H
	DB	0eaH
	DB	031H
	DB	0ebH
	DB	031H
	DB	0eaH
	DB	031H
	DB	0eaH
	DB	031H
	DB	0ebH
	DB	031H
	DB	0ebH
	DB	031H
	DB	0ebH
	DB	031H
	DB	0eaH
	DB	031H
	DB	0caH
	DB	031H
	DB	0caH
	DB	031H
	DB	0caH
	DB	031H
	DB	0eaH
	DB	031H
	DB	0caH
	DB	031H
	DB	0caH
	DB	031H
	DB	0caH
	DB	031H
	DB	0caH
	DB	029H
	DB	0caH
	DB	031H
	DB	0caH
	DB	031H
	DB	0caH
	DB	031H
	DB	0caH
	DB	029H
	DB	0caH
	DB	031H
	DB	0caH
	DB	031H
	DB	0caH
	DB	031H
	DB	0caH
	DB	031H
	DB	0c9H
	DB	029H
	DB	0caH
	DB	031H
	DB	0caH
	DB	029H
	DB	0a9H
	DB	031H
	DB	0caH
	DB	031H
	DB	0aaH
	DB	029H
	DB	0a9H
	DB	031H
	DB	0caH
	DB	031H
	DB	0aaH
	DB	031H
	DB	0aaH
	DB	029H
	DB	0a9H
	DB	031H
	DB	0a9H
	DB	031H
	DB	0a9H
	DB	029H
	DB	0a9H
	DB	029H
	DB	0a9H
	DB	029H
	DB	0a9H
	DB	029H
	DB	0a9H
	DB	029H
	DB	0a9H
	DB	029H
	DB	0a9H
	DB	029H
	DB	089H
	DB	029H
	DB	089H
	DB	029H
	DB	089H
	DB	029H
	DB	0a9H
	DB	029H
	DB	089H
	DB	029H
	DB	089H
	DB	029H
	DB	089H
	DB	021H
	DB	089H
	DB	029H
	DB	089H
	DB	029H
	DB	088H
	DB	021H
	DB	088H
	DB	029H
	DB	068H
	DB	029H
	DB	088H
	DB	029H
	DB	088H
	DB	021H
	DB	068H
	DB	029H
	DB	068H
	DB	029H
	DB	068H
	DB	029H
	DB	068H
	DB	021H
	DB	067H
	DB	029H
	DB	068H
	DB	021H
	DB	068H
	DB	021H
	DB	068H
	DB	029H
	DB	048H
	DB	029H
	DB	067H
	DB	021H
	DB	068H
	DB	021H
	DB	048H
	DB	021H
	DB	047H
	DB	021H
	DB	047H
	DB	021H
	DB	047H
	DB	021H
	DB	047H
	DB	021H
	DB	047H
	DB	021H
	DB	047H
	DB	021H
	DB	047H
	DB	021H
	DB	027H
	DB	021H
	DB	026H
	DB	021H
	DB	047H
	DB	021H
	DB	027H
	DB	021H
	DB	027H
	DB	021H
	DB	027H
	DB	021H
	DB	027H
	DB	021H
	DB	026H
	DB	021H
	DB	06H
	DB	021H
	DB	06H
	DB	021H
	DB	06H
	DB	019H
	DB	026H
	DB	021H
	DB	06H
	DB	021H
	DB	06H
	DB	019H
	DB	06H
	DB	019H
	DB	06H
	DB	021H
	DB	06H
	DB	019H
	DB	06H
	DB	019H
	DB	05H
	DB	019H
	DB	06H
	DB	019H
	DB	0e5H
	DB	018H
	DB	0e5H
	DB	018H
	DB	05H
	DB	019H
	DB	0e5H
	DB	018H
	DB	0e5H
	DB	010H
	DB	0e5H
	DB	018H
	DB	0e5H
	DB	018H
	DB	0c5H
	DB	018H
	DB	0e4H
	DB	010H
	DB	0e5H
	DB	018H
	DB	0c4H
	DB	018H
	DB	0c5H
	DB	010H
	DB	0c5H
	DB	018H
	DB	0c4H
	DB	010H
	DB	0c4H
	DB	010H
	DB	0c4H
	DB	018H
	DB	0c4H
	DB	010H
	DB	0c4H
	DB	018H
	DB	0a4H
	DB	010H
	DB	0c4H
	DB	010H
	DB	0a4H
	DB	010H
	DB	0a3H
	DB	010H
	DB	0a3H
	DB	010H
	DB	0a4H
	DB	010H
	DB	0a3H
	DB	010H
	DB	0a3H
	DB	010H
	DB	0a3H
	DB	010H
	DB	083H
	DB	010H
	DB	083H
	DB	010H
	DB	083H
	DB	010H
	DB	083H
	DB	08H
	DB	082H
	DB	08H
	DB	083H
	DB	08H
	DB	083H
	DB	08H
	DB	083H
	DB	010H
	DB	062H
	DB	08H
	DB	062H
	DB	08H
	DB	062H
	DB	010H
	DB	062H
	DB	08H
	DB	062H
	DB	08H
	DB	062H
	DB	08H
	DB	042H
	DB	08H
	DB	042H
	DB	08H
	DB	041H
	DB	08H
	DB	042H
	DB	00H
	DB	042H
	DB	08H
	DB	041H
	DB	08H
	DB	041H
	DB	08H
	DB	041H
	DB	08H
	DB	041H
	DB	08H
	DB	021H
	DB	08H
	DB	041H
	DB	00H
	DB	021H
	DB	08H
	DB	021H
	DB	00H
	DB	021H
	DB	08H
	DB	020H
	DB	00H
	DB	00H
	DB	00H
	DB	021H
	DB	00H
	DB	00H
	DB	00H
	DB	00H
	DB	00H
	DB	00H
	DB	00H
	DB	00H
	DB	00H
	DB	00H
	DB	00H
	DB	00H
	DB	00H
	DB	00H
	DB	00H
	DB	00H
	DB	00H
	DB	00H
	DB	00H
	DB	00H
	DB	00H
	DB	00H
	DB	00H
	DB	00H
	DB	00H
	DB	00H
	DB	00H
	DB	00H
	DB	00H
	DB	00H
	DB	00H
	DB	00H
	DB	00H
	DB	00H
	DB	00H
	DB	00H
	DB	00H
	DB	00H
	DB	00H
	DB	021H
	DB	00H
	DB	021H
	DB	00H
	DB	021H
	DB	08H
	DB	020H
	DB	00H
	DB	021H
	DB	00H
	DB	021H
	DB	08H
	DB	021H
	DB	00H
	DB	041H
	DB	00H
	DB	041H
	DB	08H
	DB	041H
	DB	08H
	DB	041H
	DB	00H
	DB	042H
	DB	08H
	DB	042H
	DB	08H
	DB	041H
	DB	08H
	DB	042H
	DB	08H
	DB	061H
	DB	08H
	DB	062H
	DB	08H
	DB	042H
	DB	08H
	DB	062H
	DB	08H
	DB	062H
	DB	08H
	DB	062H
	DB	08H
	DB	062H
	DB	08H
	DB	082H
	DB	010H
	DB	083H
	DB	010H
	DB	083H
	DB	08H
	DB	082H
	DB	08H
	DB	083H
	DB	08H
	DB	083H
	DB	010H
	DB	083H
	DB	010H
	DB	083H
	DB	010H
	DB	083H
	DB	08H
	DB	0a3H
	DB	010H
	DB	084H
	DB	010H
	DB	0a3H
	DB	010H
	DB	0a4H
	DB	010H
	DB	0a4H
	DB	010H
	DB	0a4H
	DB	010H
	DB	0a4H
	DB	010H
	DB	0a4H
	DB	010H
	DB	0c4H
	DB	010H
	DB	0c4H
	DB	010H
	DB	0c4H
	DB	010H
	DB	0c4H
	DB	018H
	DB	0c4H
	DB	010H
	DB	0c4H
	DB	010H
	DB	0c5H
	DB	018H
	DB	0e4H
	DB	010H
	DB	0c5H
	DB	010H
	DB	0e4H
	DB	018H
	DB	0e5H
	DB	018H
	DB	0e5H
	DB	018H
	DB	0e5H
	DB	018H
	DB	0e5H
	DB	018H
	DB	0e5H
	DB	018H
	DB	0e5H
	DB	018H
	DB	0e5H
	DB	018H
	DB	0e5H
	DB	018H
	DB	05H
	DB	019H
	DB	06H
	DB	019H
	DB	05H
	DB	019H
	DB	05H
	DB	019H
	DB	06H
	DB	019H
	DB	06H
	DB	021H
	DB	06H
	DB	021H
	DB	06H
	DB	019H
	DB	026H
	DB	019H
	DB	06H
	DB	021H
	DB	026H
	DB	019H
	DB	026H
	DB	021H
	DB	026H
	DB	021H
	DB	026H
	DB	019H
	DB	027H
	DB	021H
	DB	027H
	DB	021H
	DB	027H
	DB	021H
	DB	026H
	DB	019H
	DB	047H
	DB	021H
	DB	047H
	DB	021H
	DB	027H
	DB	021H
	DB	047H
	DB	021H
	DB	047H
	DB	021H
	DB	047H
	DB	021H
	DB	047H
	DB	021H
	DB	047H
	DB	021H
	DB	047H
	DB	021H
	DB	047H
	DB	021H
	DB	068H
	DB	021H
	DB	048H
	DB	029H
	DB	067H
	DB	021H
	DB	067H
	DB	021H
	DB	068H
	DB	029H
	DB	068H
	DB	021H
	DB	067H
	DB	021H
	DB	068H
	DB	029H
	DB	068H
	DB	029H
	DB	068H
	DB	029H
	DB	068H
	DB	029H
	DB	088H
	DB	021H
	DB	088H
	DB	021H
	DB	088H
	DB	021H
	DB	088H
	DB	029H
	DB	088H
	DB	029H
	DB	088H
	DB	029H
	DB	089H
	DB	029H
	DB	089H
	DB	029H
	DB	088H
	DB	029H
	DB	089H
	DB	029H
	DB	089H
	DB	029H
	DB	089H
	DB	029H
	DB	089H
	DB	029H
	DB	0a9H
	DB	029H
	DB	0a9H
	DB	029H
	DB	0a9H
	DB	029H
	DB	089H
	DB	029H
	DB	0a9H
	DB	029H
	DB	0a9H
	DB	029H
	DB	089H
	DB	029H
	DB	0a9H
	DB	029H
	DB	0a9H
	DB	031H
	DB	0a9H
	DB	031H
	DB	0aaH
	DB	029H
	DB	0aaH
	DB	031H
	DB	0a9H
	DB	029H
	DB	0caH
	DB	029H
	DB	0a9H
	DB	031H
	DB	0caH
	DB	029H
	DB	0aaH
	DB	029H
	DB	0c9H
	DB	031H
	DB	0caH
	DB	031H
	DB	0caH
	DB	029H
	DB	0c9H
	DB	031H
	DB	0caH
	DB	029H
	DB	0caH
	DB	031H
	DB	0caH
	DB	031H
	DB	0caH
	DB	029H
	DB	0caH
	DB	031H
	DB	0caH
	DB	031H
	DB	0caH
	DB	031H
	DB	0caH
	DB	031H
	DB	0caH
	DB	031H
	DB	0caH
	DB	029H
	DB	0eaH
	DB	031H
	DB	0eaH
	DB	031H
	DB	0caH
	DB	031H
	DB	0eaH
	DB	031H
	DB	0eaH
	DB	031H
	DB	0cbH
	DB	031H
	DB	0eaH
	DB	031H
	DB	0ebH
	DB	031H
	DB	0ebH
	DB	031H
	DB	0ebH
	DB	031H
	DB	0eaH
	DB	031H
	DB	0ebH
	DB	031H
	DB	0ebH
	DB	031H
	DB	0ebH
	DB	031H
	DB	0eaH
	DB	031H
	DB	0eaH
	DB	031H
	DB	0ebH
	DB	031H
	DB	0ebH
	DB	031H
	DB	0ebH
	DB	031H
	DB	0ebH
	DB	031H
	DB	0ebH
	DB	031H
	DB	0ebH
	DB	031H
	DB	0ebH
	DB	031H
	DB	0ebH
	DB	031H
	DB	0bH
	DB	032H
	DB	0bH
	DB	032H
	DB	0ebH
	DB	031H
	DB	0bH
	DB	032H
	DB	0bH
	DB	032H
	DB	0ebH
	DB	031H
	DB	0bH
	DB	032H
	DB	0bH
	DB	032H
	DB	0ebH
	DB	039H
	DB	0ebH
	DB	031H
	DB	0bH
	DB	03aH
	DB	0bH
	DB	032H
	DB	0ebH
	DB	031H
	DB	0bH
	DB	03aH
	DB	0bH
	DB	03aH
	DB	0ebH
	DB	031H
	DB	0bH
	DB	03aH
	DB	0ebH
	DB	031H
	DB	0bH
	DB	03aH
	DB	0bH
	DB	032H
	DB	0bH
	DB	032H
	DB	0bH
	DB	032H
	DB	0ebH
	DB	039H
	DB	0bH
	DB	03aH
	DB	0bH
	DB	032H
	DB	0ebH
	DB	031H
	DB	0bH
	DB	03aH
	DB	0bH
	DB	032H
	DB	0bH
	DB	032H
	DB	0ebH
	DB	039H
	DB	0bH
	DB	03aH
	DB	0bH
	DB	03aH
	DB	0bH
	DB	03aH
	DB	0bH
	DB	032H
	DB	0ebH
	DB	039H
	DB	0ebH
	DB	031H
	DB	0bH
	DB	032H
	DB	0bH
	DB	03aH
	DB	0ebH
	DB	031H
	DB	0ebH
	DB	031H
	DB	0bH
	DB	032H
	DB	0ebH
	DB	031H
	DB	0ebH
	DB	031H
	DB	0ebH
	DB	031H
	DB	0ebH
	DB	031H
	DB	0eaH
	DB	031H
	DB	0ebH
	DB	031H
	DB	0ebH
	DB	031H
	DB	0ebH
	DB	031H
	DB	0ebH
	DB	031H
	DB	0ebH
	DB	031H
	DB	0ebH
	DB	031H
	DB	0eaH
	DB	031H
	DB	0ebH
	DB	031H
	DB	0ebH
	DB	031H
	DB	0ebH
	DB	031H
	DB	0ebH
	DB	031H
	DB	0eaH
	DB	031H
	DB	0eaH
	DB	031H
	DB	0ebH
	DB	031H
	DB	0ebH
	DB	031H
	DB	0ebH
	DB	031H
	DB	0ebH
	DB	031H
	DB	0eaH
	DB	029H
	DB	0eaH
	DB	031H
	DB	0caH
	DB	031H
	DB	0eaH
	DB	031H
	DB	0eaH
	DB	031H
	DB	0caH
	DB	031H
	DB	0caH
	DB	031H
	DB	0eaH
	DB	031H
	DB	0caH
	DB	031H
	DB	0caH
	DB	031H
	DB	0caH
	DB	031H
	DB	0caH
	DB	029H
	DB	0caH
	DB	031H
	DB	0caH
	DB	031H
	DB	0caH
	DB	029H
	DB	0caH
	DB	031H
	DB	0caH
	DB	031H
	DB	0aaH
	DB	029H
	DB	0c9H
	DB	031H
	DB	0caH
	DB	031H
	DB	0caH
	DB	029H
	DB	0a9H
	DB	031H
	DB	0aaH
	DB	029H
	DB	0a9H
	DB	029H
	DB	0a9H
	DB	029H
	DB	0aaH
	DB	029H
	DB	0a9H
	DB	031H
	DB	0a9H
	DB	031H
	DB	0a9H
	DB	029H
	DB	0a9H
	DB	029H
	DB	0a9H
	DB	029H
	DB	0a9H
	DB	029H
	DB	0a9H
	DB	029H
	DB	0a9H
	DB	029H
	DB	0a9H
	DB	029H
	DB	089H
	DB	029H
	DB	088H
	DB	029H
	DB	089H
	DB	029H
	DB	088H
	DB	029H
	DB	089H
	DB	029H
	DB	089H
	DB	029H
	DB	089H
	DB	029H
	DB	088H
	DB	029H
	DB	088H
	DB	029H
	DB	089H
	DB	029H
	DB	068H
	DB	029H
	DB	088H
	DB	029H
	DB	088H
	DB	021H
	DB	068H
	DB	029H
	DB	068H
	DB	029H
	DB	068H
	DB	029H
	DB	068H
	DB	021H
	DB	068H
	DB	029H
	DB	067H
	DB	021H
	DB	067H
	DB	021H
	DB	068H
	DB	021H
	DB	068H
	DB	029H
	DB	068H
	DB	029H
	DB	047H
	DB	021H
	DB	067H
	DB	021H
	DB	048H
	DB	021H
	DB	047H
	DB	021H
	DB	047H
	DB	021H
	DB	047H
	DB	021H
	DB	047H
	DB	021H
	DB	047H
	DB	021H
	DB	047H
	DB	021H
	DB	047H
	DB	021H
	DB	046H
	DB	021H
	DB	027H
	DB	021H
	DB	026H
	DB	019H
	DB	027H
	DB	021H
	DB	026H
	DB	021H
	DB	026H
	DB	019H
	DB	027H
	DB	021H
	DB	026H
	DB	019H
	DB	026H
	DB	021H
	DB	026H
	DB	019H
	DB	06H
	DB	019H
	DB	06H
	DB	021H
	DB	06H
	DB	021H
	DB	05H
	DB	019H
	DB	06H
	DB	021H
	DB	06H
	DB	019H
	DB	06H
	DB	019H
	DB	0e5H
	DB	018H
	DB	0e6H
	DB	018H
	DB	05H
	DB	019H
	DB	05H
	DB	019H
	DB	0e5H
	DB	018H
	DB	0e5H
	DB	018H
	DB	0e5H
	DB	018H
	DB	0e5H
	DB	018H
	DB	0e5H
	DB	010H
	DB	0e5H
	DB	018H
	DB	0e5H
	DB	018H
	DB	0e5H
	DB	010H
	DB	0c5H
	DB	018H
	DB	0c4H
	DB	018H
	DB	0c4H
	DB	018H
	DB	0c5H
	DB	010H
	DB	0c4H
	DB	018H
	DB	0c4H
	DB	010H
	DB	0c4H
	DB	018H
	DB	0a4H
	DB	010H
	DB	0c4H
	DB	010H
	DB	0a4H
	DB	010H
	DB	0a4H
	DB	010H
	DB	0a4H
	DB	010H
	DB	0a3H
	DB	010H
	DB	0a4H
	DB	010H
	DB	083H
	DB	010H
	DB	0a3H
	DB	010H
	DB	0a3H
	DB	010H
	DB	083H
	DB	010H
	DB	083H
	DB	08H
	DB	083H
	DB	010H
	DB	083H
	DB	010H
	DB	083H
	DB	010H
	DB	082H
	DB	08H
	DB	063H
	DB	010H
	DB	082H
	DB	08H
	DB	062H
	DB	010H
	DB	063H
	DB	08H
	DB	062H
	DB	08H
	DB	062H
	DB	08H
	DB	062H
	DB	08H
	DB	062H
	DB	08H
	DB	062H
	DB	08H
	DB	041H
	DB	08H
	DB	042H
	DB	08H
	DB	041H
	DB	08H
	DB	042H
	DB	08H
	DB	042H
	DB	00H
	DB	041H
	DB	08H
	DB	041H
	DB	08H
	DB	041H
	DB	00H
	DB	021H
	DB	00H
	DB	021H
	DB	08H
	DB	021H
	DB	08H
	DB	021H
	DB	00H
	DB	020H
	DB	08H
	DB	021H
	DB	00H
	DB	01H
	DB	08H
	DB	00H
	DB	00H
	DB	020H
	DB	00H
	DB	00H
	DB	00H
	DB	00H
	DB	00H
	DB	00H
	DB	00H
	DB	00H
	DB	00H
	DB	00H
	DB	00H
	DB	00H
	DB	00H
	DB	00H
	DB	00H
	DB	00H
	DB	00H
	DB	00H
	DB	00H
	DB	00H
	DB	00H
	DB	00H
	DB	00H
	DB	00H
	DB	00H
	DB	00H
	DB	00H
	DB	00H
	DB	00H
	DB	00H
	DB	00H
	DB	00H
	DB	00H
	DB	00H
	DB	00H
	DB	020H
	DB	08H
	DB	01H
	DB	08H
	DB	021H
	DB	00H
	DB	021H
	DB	00H
	DB	021H
	DB	08H
	DB	021H
	DB	00H
	DB	041H
	DB	08H
	DB	041H
	DB	08H
	DB	021H
	DB	00H
	DB	041H
	DB	08H
	DB	041H
	DB	08H
	DB	042H
	DB	08H
	DB	041H
	DB	08H
	DB	042H
	DB	08H
	DB	042H
	DB	08H
	DB	062H
	DB	08H
	DB	042H
	DB	08H
	DB	062H
	DB	08H
	DB	062H
	DB	08H
	DB	062H
	DB	08H
	DB	062H
	DB	08H
	DB	083H
	DB	010H
	DB	063H
	DB	08H
	DB	082H
	DB	010H
	DB	083H
	DB	08H
	DB	083H
	DB	010H
	DB	083H
	DB	010H
	DB	083H
	DB	08H
	DB	083H
	DB	010H
	DB	083H
	DB	010H
	DB	0a3H
	DB	010H
	DB	0a3H
	DB	010H
	DB	0a3H
	DB	010H
	DB	0a4H
	DB	010H
	DB	0a3H
	DB	010H
	DB	0a4H
	DB	010H
	DB	0a3H
	DB	010H
	DB	0a4H
	DB	010H
	DB	0a4H
	DB	010H
	DB	0c4H
	DB	010H
	DB	0c4H
	DB	018H
	DB	0c4H
	DB	018H
	DB	0c4H
	DB	010H
	DB	0c4H
	DB	018H
	DB	0c4H
	DB	018H
	DB	0c5H
	DB	010H
	DB	0e5H
	DB	018H
	DB	0c4H
	DB	018H
	DB	0c5H
	DB	010H
	DB	0e5H
	DB	018H
	DB	0e5H
	DB	018H
	DB	0e5H
	DB	010H
	DB	0e5H
	DB	018H
	DB	0e5H
	DB	018H
	DB	0e5H
	DB	018H
	DB	05H
	DB	019H
	DB	05H
	DB	019H
	DB	06H
	DB	019H
	DB	06H
	DB	019H
	DB	05H
	DB	019H
	DB	06H
	DB	019H
	DB	06H
	DB	021H
	DB	06H
	DB	019H
	DB	026H
	DB	019H
	DB	026H
	DB	021H
	DB	026H
	DB	021H
	DB	026H
	DB	019H
	DB	026H
	DB	021H
	DB	026H
	DB	021H
	DB	026H
	DB	021H
	DB	027H
	DB	021H
	DB	026H
	DB	021H
	DB	026H
	DB	021H
	DB	027H
	DB	021H
	DB	047H
	DB	021H
	DB	047H
	DB	021H
	DB	047H
	DB	021H
	DB	047H
	DB	021H
	DB	047H
	DB	021H
	DB	047H
	DB	021H
	DB	047H
	DB	021H
	DB	047H
	DB	021H
	DB	047H
	DB	021H
	DB	068H
	DB	021H
	DB	047H
	DB	021H
	DB	068H
	DB	029H
	DB	068H
	DB	021H
	DB	067H
	DB	021H
	DB	068H
	DB	029H
	DB	068H
	DB	029H
	DB	068H
	DB	021H
	DB	068H
	DB	029H
	DB	068H
	DB	021H
	DB	088H
	DB	029H
	DB	088H
	DB	029H
	DB	068H
	DB	029H
	DB	068H
	DB	029H
	DB	068H
	DB	029H
	DB	088H
	DB	029H
	DB	089H
	DB	029H
	DB	088H
	DB	029H
	DB	089H
	DB	029H
	DB	089H
	DB	029H
	DB	088H
	DB	029H
	DB	088H
	DB	029H
	DB	089H
	DB	029H
	DB	0a9H
	DB	029H
	DB	0a9H
	DB	029H
	DB	089H
	DB	029H
	DB	0a9H
	DB	029H
	DB	0a9H
	DB	029H
	DB	0a9H
	DB	029H
	DB	0a9H
	DB	029H
	DB	0a9H
	DB	029H
	DB	0a9H
	DB	029H
	DB	0a9H
	DB	031H
	DB	0a9H
	DB	029H
	DB	0a9H
	DB	031H
	DB	0aaH
	DB	031H
	DB	0aaH
	DB	029H
	DB	0a9H
	DB	031H
	DB	0caH
	DB	031H
	DB	0aaH
	DB	031H
	DB	0c9H
	DB	031H
	DB	0caH
	DB	031H
	DB	0caH
	DB	029H
	DB	0caH
	DB	031H
	DB	0caH
	DB	031H
	DB	0caH
	DB	031H
	DB	0caH
	DB	031H
	DB	0caH
	DB	031H
	DB	0caH
	DB	031H
	DB	0caH
	DB	031H
	DB	0caH
	DB	031H
	DB	0caH
	DB	031H
	DB	0eaH
	DB	029H
	DB	0eaH
	DB	031H
	DB	0caH
	DB	031H
	DB	0eaH
	DB	031H
	DB	0caH
	DB	031H
	DB	0eaH
	DB	031H
	DB	0eaH
	DB	031H
	DB	0ebH
	DB	031H
	DB	0eaH
	DB	031H
	DB	0ebH
	DB	031H
	DB	0ebH
	DB	031H
	DB	0eaH
	DB	031H
	DB	0ebH
	DB	031H
	DB	0ebH
	DB	031H
	DB	0ebH
	DB	031H
	DB	0ebH
	DB	031H
	DB	0ebH
	DB	031H
	DB	0ebH
	DB	031H
	DB	0ebH
	DB	031H
	DB	0ebH
	DB	031H
	DB	0ebH
	DB	031H
	DB	0ebH
	DB	031H
	DB	0ebH
	DB	031H
	DB	0ebH
	DB	031H
	DB	0aH
	DB	032H
	DB	0ebH
	DB	031H
	DB	0ebH
	DB	039H
	DB	0ebH
	DB	031H
	DB	0ebH
	DB	039H
	DB	0bH
	DB	032H
	DB	0ebH
	DB	031H
	DB	0ebH
	DB	039H
	DB	0bH
	DB	032H
	DB	0bH
	DB	03aH
	DB	0bH
	DB	03aH
	DB	0ebH
	DB	031H
	DB	0bH
	DB	03aH
	DB	0bH
	DB	03aH
	DB	0bH
	DB	032H
	DB	0bH
	DB	03aH
	DB	0bH
	DB	03aH
	DB	0bH
	DB	032H
	DB	0ebH
	DB	031H
	DB	0bH
	DB	03aH
	DB	0bH
	DB	03aH
	DB	0bH
	DB	032H
	DB	0bH
	DB	032H
	DB	0bH
	DB	03aH
	DB	0bH
	DB	03aH
	DB	0bH
	DB	032H
	DB	0bH
	DB	03aH
	DB	0bH
	DB	03aH
	DB	0ebH
	DB	031H
	DB	0ebH
	DB	039H
	DB	0bH
	DB	03aH
	DB	0bH
	DB	032H
	DB	0bH
	DB	03aH
	DB	0bH
	DB	032H
	DB	0bH
	DB	032H
	DB	0bH
	DB	032H
	DB	0ebH
	DB	039H
	DB	0bH
	DB	032H
	DB	0bH
	DB	032H
	DB	0bH
	DB	03aH
	DB	0bH
	DB	032H
	DB	0ebH
	DB	039H
	DB	0bH
	DB	032H
	DB	0bH
	DB	032H
	DB	0ebH
	DB	039H
	DB	0bH
	DB	032H
	DB	0bH
	DB	03aH
	DB	0bH
	DB	03aH
	DB	0ebH
	DB	031H
	DB	0ebH
	DB	039H
	DB	0bH
	DB	032H
	DB	0bH
	DB	032H
	DB	0ebH
	DB	031H
	DB	0ebH
	DB	031H
	DB	0ebH
	DB	031H
	DB	0ebH
	DB	031H
	DB	0ebH
	DB	031H
	DB	0ebH
	DB	031H
	DB	0ebH
	DB	031H
	DB	0ebH
	DB	031H
	DB	0ebH
	DB	031H
	DB	0ebH
	DB	031H
	DB	0eaH
	DB	031H
	DB	0ebH
	DB	031H
	DB	0ebH
	DB	031H
	DB	0eaH
	DB	031H
	DB	0ebH
	DB	031H
	DB	0ebH
	DB	031H
	DB	0ebH
	DB	031H
	DB	0ebH
	DB	031H
	DB	0ebH
	DB	031H
	DB	0eaH
	DB	031H
	DB	0cbH
	DB	031H
	DB	0eaH
	DB	031H
	DB	0eaH
	DB	031H
	DB	0caH
	DB	031H
	DB	0eaH
	DB	031H
	DB	0caH
	DB	031H
	DB	0caH
	DB	031H
	DB	0caH
	DB	031H
	DB	0caH
	DB	031H
	DB	0caH
	DB	031H
	DB	0caH
	DB	031H
	DB	0caH
	DB	031H
	DB	0caH
	DB	029H
	DB	0caH
	DB	031H
	DB	0caH
	DB	031H
	DB	0caH
	DB	029H
	DB	0caH
	DB	031H
	DB	0aaH
	DB	031H
	DB	0c9H
	DB	029H
	DB	0caH
	DB	031H
	DB	0caH
	DB	031H
	DB	0a9H
	DB	029H
	DB	0aaH
	DB	029H
	DB	0a9H
	DB	031H
	DB	0a9H
	DB	029H
	DB	0a9H
	DB	031H
	DB	0a9H
	DB	031H
	DB	0a9H
	DB	029H
	DB	0a9H
	DB	029H
	DB	0a9H
	DB	029H
	DB	0a9H
	DB	029H
	DB	089H
	DB	029H
	DB	0a9H
	DB	029H
	DB	0a9H
	DB	029H
	DB	089H
	DB	029H
	DB	088H
	DB	029H
	DB	0a9H
	DB	029H
	DB	088H
	DB	029H
	DB	089H
	DB	029H
	DB	089H
	DB	029H
	DB	088H
	DB	029H
	DB	088H
	DB	029H
	DB	088H
	DB	021H
	DB	088H
	DB	029H
	DB	068H
	DB	029H
	DB	088H
	DB	029H
	DB	088H
	DB	021H
	DB	068H
	DB	029H
	DB	068H
	DB	029H
	DB	068H
	DB	029H
	DB	068H
	DB	029H
	DB	068H
	DB	021H
	DB	067H
	DB	021H
	DB	068H
	DB	029H
	DB	068H
	DB	029H
	DB	067H
	DB	021H
	DB	048H
	DB	021H
	DB	067H
	DB	029H
	DB	067H
	DB	021H
	DB	047H
	DB	021H
	DB	047H
	DB	021H
	DB	047H
	DB	021H
	DB	047H
	DB	021H
	DB	047H
	DB	021H
	DB	047H
	DB	021H
	DB	047H
	DB	021H
	DB	027H
	DB	021H
	DB	046H
	DB	021H
	DB	047H
	DB	019H
	DB	027H
	DB	021H
	DB	026H
	DB	021H
	DB	026H
	DB	021H
	DB	027H
	DB	019H
	DB	026H
	DB	021H
	DB	026H
	DB	019H
	DB	026H
	DB	021H
	DB	026H
	DB	019H
	DB	06H
	DB	019H
	DB	05H
	DB	019H
	DB	06H
	DB	021H
	DB	06H
	DB	019H
	DB	05H
	DB	019H
	DB	06H
	DB	019H
	DB	0e6H
	DB	018H
	DB	0e6H
	DB	018H
	DB	0e5H
	DB	018H
	DB	05H
	DB	019H
	DB	0e5H
	DB	018H
	DB	0e5H
	DB	018H
	DB	0e5H
	DB	018H
	DB	0e5H
	DB	018H
	DB	0e4H
	DB	018H
	DB	0c5H
	DB	018H
	DB	0e5H
	DB	018H
	DB	0e4H
	DB	010H
	DB	0c5H
	DB	010H
	DB	0c5H
	DB	018H
	DB	0c4H
	DB	010H
	DB	0c4H
	DB	010H
	DB	0c4H
	DB	018H
	DB	0c4H
	DB	010H
	DB	0a4H
	DB	010H
	DB	0c4H
	DB	018H
	DB	0a4H
	DB	010H
	DB	0a3H
	DB	010H
	DB	0a4H
	DB	010H
	DB	0a4H
	DB	010H
	DB	0a4H
	DB	010H
	DB	0a3H
	DB	010H
	DB	0a3H
	DB	010H
	DB	083H
	DB	010H
	DB	083H
	DB	010H
	DB	083H
	DB	010H
	DB	083H
	DB	010H
	DB	083H
	DB	010H
	DB	083H
	DB	08H
	DB	083H
	DB	010H
	DB	082H
	DB	08H
	DB	082H
	DB	08H
	DB	063H
	DB	010H
	DB	062H
	DB	010H
	DB	062H
	DB	08H
	DB	062H
	DB	08H
	DB	062H
	DB	08H
	DB	062H
	DB	08H
	DB	062H
	DB	08H
	DB	042H
	DB	08H
	DB	042H
	DB	08H
	DB	041H
	DB	08H
	DB	042H
	DB	08H
	DB	041H
	DB	00H
	DB	041H
	DB	08H
	DB	041H
	DB	08H
	DB	021H
	DB	00H
	DB	021H
	DB	08H
	DB	021H
	DB	00H
	DB	021H
	DB	08H
	DB	020H
	DB	00H
	DB	021H
	DB	08H
	DB	021H
	DB	00H
	DB	020H
	DB	00H
	DB	020H
	DB	08H
	DB	00H
	DB	00H
	DB	00H
	DB	00H
	DB	00H
	DB	00H
	DB	00H
	DB	00H
	DB	00H
	DB	00H
	DB	00H
	DB	00H
	DB	00H
	DB	00H
	DB	00H
	DB	00H
	DB	00H
	DB	00H
	DB	00H
	DB	00H
	DB	00H
	DB	00H
	DB	00H
	DB	00H
	DB	00H
	DB	00H
	DB	00H
	DB	00H
	DB	020H
	DB	00H
	DB	021H
	DB	00H
	DB	00H
	DB	00H
	DB	021H
	DB	00H
	DB	020H
	DB	00H
	DB	021H
	DB	00H
	DB	021H
	DB	08H
	DB	021H
	DB	08H
	DB	021H
	DB	00H
	DB	041H
	DB	08H
	DB	021H
	DB	08H
	DB	041H
	DB	08H
	DB	041H
	DB	08H
	DB	042H
	DB	08H
	DB	042H
	DB	08H
	DB	041H
	DB	08H
	DB	062H
	DB	08H
	DB	062H
	DB	08H
	DB	062H
	DB	08H
	DB	062H
	DB	08H
	DB	062H
	DB	08H
	DB	062H
	DB	08H
	DB	062H
	DB	08H
	DB	082H
	DB	010H
	DB	063H
	DB	08H
	DB	062H
	DB	010H
	DB	083H
	DB	08H
	DB	082H
	DB	010H
	DB	083H
	DB	010H
	DB	083H
	DB	010H
	DB	083H
	DB	010H
	DB	0a3H
	DB	08H
	DB	0a3H
	DB	010H
	DB	083H
	DB	010H
	DB	083H
	DB	010H
	DB	0a4H
	DB	010H
	DB	0a4H
	DB	010H
	DB	0a4H
	DB	010H
	DB	0a3H
	DB	010H
	DB	0a4H
	DB	010H
	DB	0c4H
	DB	010H
	DB	0c4H
	DB	010H
	DB	0c4H
	DB	010H
	DB	0c4H
	DB	010H
	DB	0c4H
	DB	010H
	DB	0c4H
	DB	018H
	DB	0c5H
	DB	018H
	DB	0c5H
	DB	010H
	DB	0c5H
	DB	018H
	DB	0e5H
	DB	018H
	DB	0e5H
	DB	018H
	DB	0e5H
	DB	018H
	DB	0e5H
	DB	018H
	DB	0e5H
	DB	018H
	DB	0e5H
	DB	018H
	DB	0e5H
	DB	018H
	DB	0e5H
	DB	018H
	DB	05H
	DB	019H
	DB	06H
	DB	019H
	DB	06H
	DB	019H
	DB	06H
	DB	019H
	DB	06H
	DB	019H
	DB	06H
	DB	021H
	DB	06H
	DB	021H
	DB	026H
	DB	019H
	DB	06H
	DB	019H
	DB	026H
	DB	021H
	DB	026H
	DB	021H
	DB	06H
	DB	019H
	DB	026H
	DB	021H
	DB	026H
	DB	021H
	DB	027H
	DB	019H
	DB	027H
	DB	021H
	DB	027H
	DB	021H
	DB	026H
	DB	019H
	DB	027H
	DB	021H
	DB	047H
	DB	021H
	DB	047H
	DB	021H
	DB	047H
	DB	021H
	DB	047H
	DB	021H
	DB	047H
	DB	021H
	DB	047H
	DB	021H
	DB	047H
	DB	021H
	DB	047H
	DB	021H
	DB	047H
	DB	029H
	DB	068H
	DB	021H
	DB	067H
	DB	021H
	DB	068H
	DB	029H
	DB	068H
	DB	021H
	DB	068H
	DB	021H
	DB	068H
	DB	029H
	DB	068H
	DB	029H
	DB	068H
	DB	021H
	DB	068H
	DB	029H
	DB	068H
	DB	029H
	DB	088H
	DB	021H
	DB	088H
	DB	021H
	DB	088H
	DB	029H
	DB	088H
	DB	029H
	DB	088H
	DB	029H
	DB	089H
	DB	029H
	DB	089H
	DB	029H
	DB	088H
	DB	029H
	DB	089H
	DB	029H
	DB	088H
	DB	029H
	DB	089H
	DB	029H
	DB	0a9H
	DB	029H
	DB	0a9H
	DB	029H
	DB	089H
	DB	029H
	DB	0a9H
	DB	029H
	DB	0a9H
	DB	029H
	DB	0a9H
	DB	029H
	DB	0a9H
	DB	029H
	DB	0a9H
	DB	029H
	DB	0a9H
	DB	029H
	DB	0a9H
	DB	031H
	DB	0a9H
	DB	029H
	DB	0a9H
	DB	031H
	DB	0aaH
	DB	029H
	DB	0caH
	DB	029H
	DB	0c9H
	DB	031H
	DB	0caH
	DB	029H
	DB	0c9H
	DB	029H
	DB	0c9H
	DB	031H
	DB	0caH
	DB	029H
	DB	0aaH
	DB	029H
	DB	0caH
	DB	031H
	DB	0caH
	DB	031H
	DB	0caH
	DB	029H
	DB	0caH
	DB	031H
	DB	0caH
	DB	031H
	DB	0caH
	DB	029H
	DB	0caH
	DB	031H
	DB	0caH
	DB	031H
	DB	0caH
	DB	031H
	DB	0caH
	DB	029H
	DB	0caH
	DB	031H
	DB	0eaH
	DB	031H
	DB	0eaH
	DB	031H
	DB	0caH
	DB	031H
	DB	0ebH
	DB	031H
	DB	0eaH
	DB	031H
	DB	0ebH
	DB	031H
	DB	0ebH
	DB	031H
	DB	0cbH
	DB	031H
	DB	0ebH
	DB	031H
	DB	0eaH
	DB	031H
	DB	0ebH
	DB	031H
	DB	0ebH
	DB	031H
	DB	0eaH
	DB	031H
	DB	0eaH
	DB	031H
	DB	0ebH
	DB	031H
	DB	0ebH
	DB	031H
	DB	0ebH
	DB	031H
	DB	0ebH
	DB	031H
	DB	0ebH
	DB	031H
	DB	0ebH
	DB	031H
	DB	0bH
	DB	032H
	DB	0bH
	DB	03aH
	DB	0ebH
	DB	031H
	DB	0ebH
	DB	039H
	DB	0bH
	DB	03aH
	DB	0bH
	DB	032H
	DB	0bH
	DB	03aH
	DB	0ebH
	DB	031H
	DB	0bH
	DB	032H
	DB	0bH
	DB	03aH
	DB	0bH
	DB	03aH
	DB	0bH
	DB	032H
	DB	0bH
	DB	03aH
	DB	0bH
	DB	032H
	DB	0bH
	DB	03aH
	DB	0bH
	DB	032H
	DB	0bH
	DB	03aH
	DB	0bH
	DB	032H
	DB	0bH
	DB	032H
	DB	0bH
	DB	032H
	DB	0bH
	DB	03aH
	DB	0ebH
	DB	031H
	DB	0bH
	DB	03aH
	DB	0bH
	DB	03aH
	DB	0bH
	DB	032H
	DB	0bH
	DB	032H
	DB	0bH
	DB	03aH
	DB	0bH
	DB	032H
	DB	0bH
	DB	032H
	DB	0bH
	DB	03aH
	DB	0bH
	DB	032H
	DB	0bH
	DB	03aH
	DB	0bH
	DB	032H
	DB	0bH
	DB	032H
	DB	0bH
	DB	03aH
	DB	0bH
	DB	032H
	DB	0bH
	DB	03aH
	DB	0bH
	DB	032H
	DB	0bH
	DB	03aH
	DB	0bH
	DB	03aH
	DB	0bH
	DB	032H
	DB	0bH
	DB	032H
	DB	0bH
	DB	032H
	DB	0bH
	DB	03aH
	DB	0bH
	DB	03aH
	DB	0bH
	DB	03aH
	DB	0bH
	DB	032H
	DB	0bH
	DB	032H
	DB	0bH
	DB	03aH
	DB	0bH
	DB	03aH
	DB	0bH
	DB	032H
	DB	0bH
	DB	032H
	DB	0bH
	DB	032H
	DB	0bH
	DB	03aH
	DB	0bH
	DB	032H
	DB	0bH
	DB	03aH
	DB	0bH
	DB	032H
	DB	0bH
	DB	03aH
	DB	0bH
	DB	03aH
	DB	0ebH
	DB	031H
	DB	0bH
	DB	03aH
	DB	0bH
	DB	032H
	DB	0ebH
	DB	031H
	DB	0bH
	DB	032H
	DB	0eaH
	DB	031H
	DB	0ebH
	DB	031H
	DB	0ebH
	DB	031H
	DB	0ebH
	DB	031H
	DB	0ebH
	DB	031H
	DB	0ebH
	DB	031H
	DB	0eaH
	DB	031H
	DB	0eaH
	DB	031H
	DB	0ebH
	DB	031H
	DB	0eaH
	DB	031H
	DB	0ebH
	DB	031H
	DB	0eaH
	DB	031H
	DB	0ebH
	DB	031H
	DB	0ebH
	DB	031H
	DB	0ebH
	DB	031H
	DB	0caH
	DB	031H
	DB	0ebH
	DB	031H
	DB	0eaH
	DB	031H
	DB	0caH
	DB	031H
	DB	0eaH
	DB	031H
	DB	0caH
	DB	031H
	DB	0eaH
	DB	029H
	DB	0caH
	DB	031H
	DB	0caH
	DB	031H
	DB	0caH
	DB	029H
	DB	0caH
	DB	031H
	DB	0caH
	DB	031H
	DB	0caH
	DB	031H
	DB	0caH
	DB	031H
	DB	0caH
	DB	029H
	DB	0caH
	DB	031H
	DB	0caH
	DB	031H
	DB	0aaH
	DB	031H
	DB	0caH
	DB	031H
	DB	0caH
	DB	029H
	DB	0aaH
	DB	031H
	DB	0caH
	DB	029H
	DB	0caH
	DB	029H
	DB	0aaH
	DB	031H
	DB	0a9H
	DB	029H
	DB	0a9H
	DB	031H
	DB	0a9H
	DB	031H
	DB	0a9H
	DB	029H
	DB	0a9H
	DB	029H
	DB	0a9H
	DB	029H
	DB	0a9H
	DB	029H
	DB	0a9H
	DB	029H
	DB	0a9H
	DB	029H
	DB	0a9H
	DB	029H
	DB	089H
	DB	029H
	DB	089H
	DB	029H
	DB	089H
	DB	029H
	DB	089H
	DB	029H
	DB	089H
	DB	029H
	DB	089H
	DB	029H
	DB	089H
	DB	029H
	DB	088H
	DB	029H
	DB	088H
	DB	029H
	DB	088H
	DB	021H
	DB	088H
	DB	029H
	DB	068H
	DB	029H
	DB	088H
	DB	029H
	DB	068H
	DB	021H
	DB	068H
	DB	029H
	DB	068H
	DB	029H
	DB	068H
	DB	021H
	DB	068H
	DB	021H
	DB	067H
	DB	029H
	DB	068H
	DB	021H
	DB	068H
	DB	021H
	DB	048H
	DB	029H
	DB	047H
	DB	021H
	DB	048H
	DB	021H
	DB	047H
	DB	021H
	DB	047H
	DB	021H
	DB	047H
	DB	021H
	DB	047H
	DB	021H
	DB	047H
	DB	021H
	DB	047H
	DB	021H
	DB	047H
	DB	021H
	DB	027H
	DB	021H
	DB	027H
	DB	021H
	DB	027H
	DB	021H
	DB	027H
	DB	021H
	DB	026H
	DB	019H
	DB	027H
	DB	021H
	DB	026H
	DB	021H
	DB	026H
	DB	021H
	DB	026H
	DB	019H
	DB	026H
	DB	021H
	DB	026H
	DB	019H
	DB	06H
	DB	019H
	DB	06H
	DB	021H
	DB	06H
	DB	021H
	DB	06H
	DB	019H
	DB	05H
	DB	019H
	DB	06H
	DB	019H
	DB	05H
	DB	019H
	DB	05H
	DB	019H
	DB	05H
	DB	019H
	DB	0e5H
	DB	018H
	DB	0e5H
	DB	018H
	DB	0e5H
	DB	018H
	DB	0e5H
	DB	018H
	DB	0e5H
	DB	018H
	DB	0e5H
	DB	018H
	DB	0c5H
	DB	018H
	DB	0e4H
	DB	010H
	DB	0e4H
	DB	018H
	DB	0c5H
	DB	018H
	DB	0c4H
	DB	018H
	DB	0c4H
	DB	018H
	DB	0c4H
	DB	010H
	DB	0c4H
	DB	010H
	DB	0c4H
	DB	018H
	DB	0a4H
	DB	010H
	DB	0a4H
	DB	010H
	DB	0a4H
	DB	010H
	DB	0a3H
	DB	010H
	DB	0a3H
	DB	010H
	DB	0a4H
	DB	010H
	DB	0a4H
	DB	010H
	DB	0a3H
	DB	010H
	DB	0a3H
	DB	08H
	DB	0a3H
	DB	010H
	DB	0a3H
	DB	08H
	DB	083H
	DB	010H
	DB	083H
	DB	08H
	DB	083H
	DB	010H
	DB	083H
	DB	010H
	DB	083H
	DB	010H
	DB	063H
	DB	08H
	DB	082H
	DB	08H
	DB	082H
	DB	010H
	DB	062H
	DB	08H
	DB	062H
	DB	08H
	DB	062H
	DB	08H
	DB	062H
	DB	08H
	DB	062H
	DB	08H
	DB	062H
	DB	08H
	DB	062H
	DB	08H
	DB	041H
	DB	08H
	DB	041H
	DB	08H
	DB	042H
	DB	08H
	DB	041H
	DB	08H
	DB	041H
	DB	08H
	DB	041H
	DB	08H
	DB	041H
	DB	00H
	DB	041H
	DB	00H
	DB	021H
	DB	08H
	DB	021H
	DB	00H
	DB	020H
	DB	00H
	DB	021H
	DB	08H
	DB	021H
	DB	00H
	DB	00H
	DB	00H
	DB	021H
	DB	00H
	DB	00H
	DB	00H
	DB	00H
	DB	00H
	DB	00H
	DB	00H
	DB	00H
	DB	00H
	DB	00H
	DB	00H
	DB	00H
	DB	00H
	DB	00H
	DB	00H
	DB	00H
	DB	00H
	DB	00H
	DB	00H
	DB	00H
	DB	00H
	DB	00H
	DB	00H
	DB	00H
	DB	00H
	DB	00H
	DB	00H
	DB	00H
	DB	00H
	DB	021H
	DB	00H
	DB	021H
	DB	00H
	DB	020H
	DB	08H
	DB	021H
	DB	00H
	DB	021H
	DB	08H
	DB	021H
	DB	08H
	DB	041H
	DB	00H
	DB	041H
	DB	00H
	DB	041H
	DB	08H
	DB	041H
	DB	08H
	DB	041H
	DB	00H
	DB	042H
	DB	08H
	DB	042H
	DB	08H
	DB	041H
	DB	08H
	DB	042H
	DB	08H
	DB	062H
	DB	08H
	DB	042H
	DB	08H
	DB	062H
	DB	08H
	DB	062H
	DB	08H
	DB	062H
	DB	010H
	DB	062H
	DB	08H
	DB	082H
	DB	010H
	DB	083H
	DB	010H
	DB	082H
	DB	08H
	DB	083H
	DB	08H
	DB	083H
	DB	010H
	DB	083H
	DB	08H
	DB	083H
	DB	08H
	DB	083H
	DB	010H
	DB	0a3H
	DB	010H
	DB	083H
	DB	010H
	DB	0a3H
	DB	010H
	DB	0a4H
	DB	010H
	DB	0a4H
	DB	010H
	DB	0a3H
	DB	010H
	DB	0a4H
	DB	010H
	DB	0a4H
	DB	010H
	DB	0c4H
	DB	010H
	DB	0c4H
	DB	010H
	DB	0c4H
	DB	010H
	DB	0c4H
	DB	018H
	DB	0c4H
	DB	018H
	DB	0c4H
	DB	010H
	DB	0c4H
	DB	018H
	DB	0c4H
	DB	018H
	DB	0e5H
	DB	010H
	DB	0c4H
	DB	018H
	DB	0e4H
	DB	018H
	DB	0e5H
	DB	010H
	DB	0e5H
	DB	018H
	DB	0e5H
	DB	018H
	DB	0e5H
	DB	018H
	DB	0e5H
	DB	018H
	DB	0e5H
	DB	018H
	DB	05H
	DB	019H
	DB	05H
	DB	019H
	DB	05H
	DB	019H
	DB	06H
	DB	019H
	DB	05H
	DB	019H
	DB	05H
	DB	019H
	DB	06H
	DB	019H
	DB	06H
	DB	019H
	DB	05H
	DB	021H
	DB	026H
	DB	019H
	DB	06H
	DB	019H
	DB	026H
	DB	021H
	DB	026H
	DB	021H
	DB	026H
	DB	019H
	DB	026H
	DB	021H
	DB	026H
	DB	021H
	DB	027H
	DB	019H
	DB	027H
	DB	021H
	DB	047H
	DB	021H
	DB	047H
	DB	021H
	DB	047H
	DB	021H
	DB	027H
	DB	021H
	DB	047H
	DB	021H
	DB	047H
	DB	021H
	DB	047H
	DB	021H
	DB	047H
	DB	021H
	DB	047H
	DB	021H
	DB	047H
	DB	021H
	DB	047H
	DB	021H
	DB	068H
	DB	021H
	DB	048H
	DB	029H
	DB	067H
	DB	021H
	DB	068H
	DB	029H
	DB	068H
	DB	029H
	DB	068H
	DB	021H
	DB	067H
	DB	029H
	DB	068H
	DB	029H
	DB	068H
	DB	021H
	DB	068H
	DB	029H
	DB	088H
	DB	029H
	DB	068H
	DB	029H
	DB	068H
	DB	029H
	DB	088H
	DB	029H
	DB	088H
	DB	029H
	DB	089H
	DB	021H
	DB	089H
	DB	029H
	DB	089H
	DB	029H
	DB	088H
	DB	029H
	DB	089H
	DB	029H
	DB	089H
	DB	029H
	DB	0a9H
	DB	029H
	DB	089H
	DB	029H
	DB	0a9H
	DB	029H
	DB	0a9H
	DB	029H
	DB	0a9H
	DB	029H
	DB	0a9H
	DB	029H
	DB	0a9H
	DB	029H
	DB	0a9H
	DB	031H
	DB	0a9H
	DB	031H
	DB	0a9H
	DB	031H
	DB	0a9H
	DB	029H
	DB	0aaH
	DB	029H
	DB	0aaH
	DB	031H
	DB	0c9H
	DB	031H
	DB	0aaH
	DB	031H
	DB	0aaH
	DB	029H
	DB	0caH
	DB	031H
	DB	0caH
	DB	031H
	DB	0caH
	DB	031H
	DB	0caH
	DB	029H
	DB	0caH
	DB	031H
	DB	0caH
	DB	031H
	DB	0caH
	DB	031H
	DB	0c9H
	DB	031H
	DB	0caH
	DB	031H
	DB	0caH
	DB	031H
	DB	0caH
	DB	029H
	DB	0eaH
	DB	031H
	DB	0caH
	DB	031H
	DB	0eaH
	DB	031H
	DB	0eaH
	DB	031H
	DB	0caH
	DB	031H
	DB	0ebH
	DB	031H
	DB	0ebH
	DB	031H
	DB	0eaH
	DB	031H
	DB	0eaH
	DB	031H
	DB	0ebH
	DB	031H
	DB	0eaH
	DB	031H
	DB	0eaH
	DB	031H
	DB	0ebH
	DB	031H
	DB	0ebH
	DB	031H
	DB	0ebH
	DB	031H
	DB	0ebH
	DB	031H
	DB	0ebH
	DB	031H
	DB	0ebH
	DB	031H
	DB	0ebH
	DB	031H
	DB	0bH
	DB	032H
	DB	0ebH
	DB	031H
	DB	0aH
	DB	03aH
	DB	0ebH
	DB	039H
	DB	0bH
	DB	032H
	DB	0bH
	DB	03aH
	DB	0ebH
	DB	031H
	DB	0bH
	DB	03aH
	DB	0bH
	DB	032H
	DB	0bH
	DB	032H
	DB	0ebH
	DB	039H
	DB	0bH
	DB	032H
	DB	0bH
	DB	03aH
	DB	0bH
	DB	032H
	DB	0bH
	DB	03aH
	DB	0bH
	DB	032H
	DB	0bH
	DB	03aH
	DB	0bH
	DB	032H
	DB	0bH
	DB	03aH
	DB	0bH
	DB	03aH
	DB	0bH
	DB	032H
	DB	0ebH
	DB	039H
	DB	0bH
	DB	032H
	DB	0bH
	DB	03aH
	DB	0bH
	DB	03aH
	DB	0bH
	DB	03aH
	DB	0cH
	DB	032H
	DB	0bH
	DB	03aH
	DB	0bH
	DB	032H
	DB	0cH
	DB	03aH
	DB	0cH
	DB	032H
	DB	0bH
	DB	03aH
	DB	0bH
	DB	03aH
	DB	0cH
	DB	03aH
	DB	0bH
	DB	032H
	DB	0cH
	DB	03aH
	DB	0bH
	DB	032H
	DB	0bH
	DB	032H
	DB	0cH
	DB	03aH
	DB	0bH
	DB	03aH
	DB	0bH
	DB	03aH
	DB	0cH
	DB	032H
	DB	0bH
	DB	03aH
	DB	0cH
	DB	03aH
	DB	0bH
	DB	03aH
	DB	0bH
	DB	03aH
	DB	0bH
	DB	03aH
	DB	0cH
	DB	03aH
	DB	0bH
	DB	03aH
	DB	0bH
	DB	03aH
	DB	0bH
	DB	032H
	DB	0cH
	DB	03aH
	DB	0ebH
	DB	039H
	DB	0bH
	DB	032H
	DB	0bH
	DB	03aH
	DB	0bH
	DB	03aH
	DB	0ebH
	DB	031H
	DB	0bH
	DB	03aH
	DB	0bH
	DB	03aH
	DB	0bH
	DB	032H
	DB	0bH
	DB	03aH
	DB	0bH
	DB	03aH
	DB	0bH
	DB	032H
	DB	0bH
	DB	032H
	DB	0bH
	DB	03aH
	DB	0bH
	DB	032H
	DB	0ebH
	DB	039H
	DB	0bH
	DB	03aH
	DB	0bH
	DB	032H
	DB	0ebH
	DB	039H
	DB	0ebH
	DB	039H
	DB	0bH
	DB	032H
	DB	0bH
	DB	032H
	DB	0ebH
	DB	039H
	DB	0ebH
	DB	031H
	DB	0ebH
	DB	031H
	DB	0ebH
	DB	031H
	DB	0bH
	DB	032H
	DB	0ebH
	DB	031H
	DB	0ebH
	DB	031H
	DB	0ebH
	DB	031H
	DB	0eaH
	DB	031H
	DB	0ebH
	DB	031H
	DB	0ebH
	DB	031H
	DB	0eaH
	DB	031H
	DB	0ebH
	DB	031H
	DB	0eaH
	DB	031H
	DB	0ebH
	DB	031H
	DB	0ebH
	DB	031H
	DB	0eaH
	DB	031H
	DB	0cbH
	DB	031H
	DB	0eaH
	DB	031H
	DB	0eaH
	DB	031H
	DB	0caH
	DB	031H
	DB	0caH
	DB	031H
	DB	0caH
	DB	031H
	DB	0caH
	DB	031H
	DB	0caH
	DB	029H
	DB	0caH
	DB	031H
	DB	0caH
	DB	031H
	DB	0caH
	DB	031H
	DB	0caH
	DB	029H
	DB	0caH
	DB	031H
	DB	0c9H
	DB	031H
	DB	0caH
	DB	029H
	DB	0aaH
	DB	031H
	DB	0a9H
	DB	031H
	DB	0c9H
	DB	029H
	DB	0aaH
	DB	029H
	DB	0aaH
	DB	031H
	DB	0a9H
	DB	029H
	DB	0a9H
	DB	029H
	DB	0a9H
	DB	031H
	DB	0a9H
	DB	031H
	DB	0a9H
	DB	029H
	DB	0a9H
	DB	029H
	DB	0a9H
	DB	029H
	DB	0a9H
	DB	029H
	DB	0a9H
	DB	029H
	DB	0a9H
	DB	029H
	DB	089H
	DB	029H
	DB	0a8H
	DB	029H
	DB	088H
	DB	029H
	DB	089H
	DB	029H
	DB	088H
	DB	029H
	DB	089H
	DB	029H
	DB	089H
	DB	029H
	DB	088H
	DB	029H
	DB	089H
	DB	029H
	DB	088H
	DB	029H
	DB	068H
	DB	029H
	DB	088H
	DB	021H
	DB	068H
	DB	029H
	DB	068H
	DB	029H
	DB	068H
	DB	029H
	DB	068H
	DB	021H
	DB	068H
	DB	029H
	DB	048H
	DB	029H
	DB	067H
	DB	021H
	DB	068H
	DB	021H
	DB	067H
	DB	029H
	DB	068H
	DB	021H
	DB	067H
	DB	021H
	DB	067H
	DB	021H
	DB	047H
	DB	021H
	DB	047H
	DB	021H
	DB	047H
	DB	021H
	DB	047H
	DB	021H
	DB	047H
	DB	021H
	DB	047H
	DB	021H
	DB	047H
	DB	021H
	DB	027H
	DB	021H
	DB	047H
	DB	021H
	DB	046H
	DB	021H
	DB	027H
	DB	021H
	DB	026H
	DB	021H
	DB	027H
	DB	019H
	DB	026H
	DB	021H
	DB	026H
	DB	021H
	DB	026H
	DB	019H
	DB	026H
	DB	021H
	DB	06H
	DB	021H
	DB	026H
	DB	019H
	DB	06H
	DB	019H
	DB	06H
	DB	021H
	DB	06H
	DB	021H
	DB	05H
	DB	019H
	DB	06H
	DB	019H
	DB	06H
	DB	019H
	DB	0e5H
	DB	018H
	DB	0e6H
	DB	018H
	DB	05H
	DB	019H
	DB	0e5H
	DB	018H
	DB	0e5H
	DB	018H
	DB	0e5H
	DB	010H
	DB	0e5H
	DB	018H
	DB	0e5H
	DB	018H
	DB	0c5H
	DB	018H
	DB	0e5H
	DB	018H
	DB	0e4H
	DB	010H
	DB	0c4H
	DB	010H
	DB	0c5H
	DB	018H
	DB	0c4H
	DB	010H
	DB	0c4H
	DB	018H
	DB	0c4H
	DB	018H
	DB	0c4H
	DB	010H
	DB	0c4H
	DB	010H
	DB	0c4H
	DB	010H
	DB	0c4H
	DB	010H
	DB	0a4H
	DB	010H
	DB	0a4H
	DB	010H
	DB	0a3H
	DB	010H
	DB	0a4H
	DB	010H
	DB	0a4H
	DB	010H
	DB	0a3H
	DB	010H
	DB	083H
	DB	010H
	DB	083H
	DB	010H
	DB	0a3H
	DB	010H
	DB	083H
	DB	010H
	DB	083H
	DB	08H
	DB	083H
	DB	010H
	DB	063H
	DB	010H
	DB	063H
	DB	08H
	DB	083H
	DB	08H
	DB	062H
	DB	08H
	DB	062H
	DB	010H
	DB	062H
	DB	08H
	DB	062H
	DB	08H
	DB	062H
	DB	08H
	DB	062H
	DB	08H
	DB	062H
	DB	08H
	DB	042H
	DB	08H
	DB	062H
	DB	08H
	DB	042H
	DB	08H
	DB	042H
	DB	08H
	DB	041H
	DB	00H
	DB	041H
	DB	08H
	DB	021H
	DB	08H
	DB	021H
	DB	08H
	DB	021H
	DB	08H
	DB	021H
	DB	00H
	DB	021H
	DB	00H
	DB	020H
	DB	08H
	DB	021H
	DB	00H
	DB	01H
	DB	00H
	DB	020H
	DB	08H
	DB	01H
	DB	00H
	DB	00H
	DB	00H
	DB	00H
	DB	00H
	DB	00H
	DB	00H
	DB	00H
	DB	00H
	DB	00H
	DB	00H
	DB	00H
	DB	00H
	DB	00H
	DB	00H
	DB	00H
	DB	00H
	DB	00H
	DB	00H
	DB	00H
	DB	00H
	DB	00H
	DB	00H
	DB	020H
	DB	00H
	DB	021H
	DB	00H
	DB	020H
	DB	00H
	DB	021H
	DB	08H
	DB	021H
	DB	00H
	DB	021H
	DB	08H
	DB	021H
	DB	00H
	DB	041H
	DB	08H
	DB	021H
	DB	08H
	DB	041H
	DB	00H
	DB	041H
	DB	08H
	DB	041H
	DB	08H
	DB	042H
	DB	08H
	DB	041H
	DB	00H
	DB	042H
	DB	08H
	DB	062H
	DB	08H
	DB	062H
	DB	08H
	DB	042H
	DB	08H
	DB	062H
	DB	08H
	DB	062H
	DB	08H
	DB	062H
	DB	08H
	DB	062H
	DB	08H
	DB	083H
	DB	010H
	DB	063H
	DB	08H
	DB	063H
	DB	010H
	DB	083H
	DB	08H
	DB	083H
	DB	010H
	DB	083H
	DB	010H
	DB	083H
	DB	010H
	DB	083H
	DB	010H
	DB	083H
	DB	010H
	DB	083H
	DB	010H
	DB	0a3H
	DB	010H
	DB	0a3H
	DB	010H
	DB	0a4H
	DB	010H
	DB	0a3H
	DB	010H
	DB	0a4H
	DB	010H
	DB	0a4H
	DB	010H
	DB	0c3H
	DB	010H
	DB	0c4H
	DB	010H
	DB	0c4H
	DB	010H
	DB	0a4H
	DB	018H
	DB	0c4H
	DB	018H
	DB	0c4H
	DB	010H
	DB	0c5H
	DB	018H
	DB	0c4H
	DB	010H
	DB	0e5H
	DB	010H
	DB	0e5H
	DB	018H
	DB	0e4H
	DB	018H
	DB	0c5H
	DB	018H
	DB	0e5H
	DB	010H
	DB	0e5H
	DB	018H
	DB	0e5H
	DB	018H
	DB	0e5H
	DB	010H
	DB	05H
	DB	019H
	DB	0e5H
	DB	018H
	DB	0e6H
	DB	018H
	DB	05H
	DB	019H
	DB	06H
	DB	019H
	DB	0e6H
	DB	018H
	DB	06H
	DB	019H
	DB	06H
	DB	019H
	DB	06H
	DB	021H
	DB	06H
	DB	019H
	DB	06H
	DB	021H
	DB	026H
	DB	021H
	DB	026H
	DB	021H
	DB	06H
	DB	019H
	DB	026H
	DB	021H
	DB	027H
	DB	019H
	DB	027H
	DB	021H
	DB	026H
	DB	021H
	DB	027H
	DB	021H
	DB	026H
	DB	021H
	DB	047H
	DB	021H
	DB	047H
	DB	021H
	DB	047H
	DB	021H
	DB	047H
	DB	021H
	DB	047H
	DB	021H
	DB	047H
	DB	021H
	DB	047H
	DB	021H
	DB	047H
	DB	021H
	DB	067H
	DB	021H
	DB	068H
	DB	029H
	DB	048H
	DB	021H
	DB	067H
	DB	029H
	DB	068H
	DB	029H
	DB	068H
	DB	021H
	DB	067H
	DB	021H
	DB	068H
	DB	021H
	DB	068H
	DB	029H
	DB	068H
	DB	021H
	DB	068H
	DB	029H
	DB	088H
	DB	021H
	DB	088H
	DB	021H
	DB	088H
	DB	029H
	DB	088H
	DB	029H
	DB	089H
	DB	029H
	DB	089H
	DB	021H
	DB	088H
	DB	029H
	DB	089H
	DB	029H
	DB	089H
	DB	029H
	DB	088H
	DB	029H
	DB	089H
	DB	029H
	DB	089H
	DB	029H
	DB	0a9H
	DB	029H
	DB	089H
	DB	029H
	DB	0a9H
	DB	029H
	DB	0a9H
	DB	029H
	DB	0a9H
	DB	029H
	DB	0a9H
	DB	029H
	DB	089H
	DB	029H
	DB	0a9H
	DB	031H
	DB	0a9H
	DB	029H
	DB	0a9H
	DB	029H
	DB	0aaH
	DB	029H
	DB	0caH
	DB	031H
	DB	0caH
	DB	031H
	DB	0a9H
	DB	029H
	DB	0caH
	DB	031H
	DB	0caH
	DB	031H
	DB	0c9H
	DB	029H
	DB	0caH
	DB	031H
	DB	0caH
	DB	031H
	DB	0caH
	DB	029H
	DB	0caH
	DB	031H
	DB	0caH
	DB	031H
	DB	0caH
	DB	031H
	DB	0caH
	DB	029H
	DB	0caH
	DB	031H
	DB	0caH
	DB	031H
	DB	0eaH
	DB	031H
	DB	0caH
	DB	031H
	DB	0caH
	DB	031H
	DB	0eaH
	DB	031H
	DB	0ebH
	DB	031H
	DB	0ebH
	DB	031H
	DB	0eaH
	DB	031H
	DB	0ebH
	DB	031H
	DB	0ebH
	DB	031H
	DB	0ebH
	DB	031H
	DB	0ebH
	DB	031H
	DB	0ebH
	DB	031H
	DB	0ebH
	DB	031H
	DB	0ebH
	DB	031H
	DB	0eaH
	DB	031H
	DB	0ebH
	DB	031H
	DB	0ebH
	DB	031H
	DB	0ebH
	DB	031H
	DB	0ebH
	DB	031H
	DB	0bH
	DB	032H
	DB	0ebH
	DB	039H
	DB	0ebH
	DB	031H
	DB	0bH
	DB	032H
	DB	0bH
	DB	032H
	DB	0ebH
	DB	039H
	DB	0bH
	DB	032H
	DB	0bH
	DB	03aH
	DB	0bH
	DB	032H
	DB	0bH
	DB	03aH
	DB	0bH
	DB	03aH
	DB	0bH
	DB	032H
	DB	0bH
	DB	032H
	DB	0bH
	DB	03aH
	DB	0bH
	DB	032H
	DB	0bH
	DB	03aH
	DB	0bH
	DB	03aH
	DB	0bH
	DB	032H
	DB	0bH
	DB	032H
	DB	0cH
	DB	03aH
	DB	0cH
	DB	032H
	DB	0bH
	DB	032H
	DB	0cH
	DB	03aH
	DB	0cH
	DB	032H
	DB	0bH
	DB	03aH
	DB	0cH
	DB	032H
	DB	0cH
	DB	03aH
	DB	0cH
	DB	03aH
	DB	0cH
	DB	03aH
	DB	0bH
	DB	032H
	DB	0cH
	DB	03aH
	DB	0cH
	DB	03aH
	DB	0bH
	DB	03aH
	DB	0cH
	DB	03aH
	DB	0cH
	DB	032H
	DB	0bH
	DB	03aH
	DB	0cH
