; Listing generated by Microsoft (R) Optimizing Compiler Version 19.29.30038.1 

	TITLE	C:\TouchGFXProjects\MyApplication_9\TouchGFX\build\Debug\obj\image_Blue_Buttons_Round_Edge_small_pressed.obj
	.686P
	.XMM
	include listing.inc
	.model	flat

INCLUDELIB MSVCRTD
INCLUDELIB OLDNAMES

PUBLIC	?image_blue_buttons_round_edge_small_pressed@@3QBEB ; image_blue_buttons_round_edge_small_pressed
CONST	SEGMENT
?image_blue_buttons_round_edge_small_pressed@@3QBEB DB 00H ; image_blue_buttons_round_edge_small_pressed
	DB	00H
	DB	00H
	DB	00H
	DB	00H
	DB	00H
	DB	00H
	DB	00H
	DB	00H
	DB	00H
	DB	00H
	DB	00H
	DB	00H
	DB	00H
	DB	00H
	DB	00H
	DB	00H
	DB	00H
	DB	00H
	DB	00H
	DB	00H
	DB	00H
	DB	00H
	DB	00H
	DB	00H
	DB	00H
	DB	00H
	DB	00H
	DB	00H
	DB	00H
	DB	00H
	DB	00H
	DB	00H
	DB	00H
	DB	00H
	DB	00H
	DB	00H
	DB	00H
	DB	00H
	DB	00H
	DB	00H
	DB	00H
	DB	00H
	DB	00H
	DB	00H
	DB	00H
	DB	00H
	DB	00H
	DB	00H
	DB	00H
	DB	00H
	DB	00H
	DB	00H
	DB	00H
	DB	00H
	DB	00H
	DB	00H
	DB	00H
	DB	00H
	DB	00H
	DB	00H
	DB	00H
	DB	00H
	DB	00H
	DB	00H
	DB	00H
	DB	00H
	DB	00H
	DB	00H
	DB	00H
	DB	00H
	DB	00H
	DB	00H
	DB	00H
	DB	00H
	DB	00H
	DB	00H
	DB	00H
	DB	00H
	DB	00H
	DB	00H
	DB	00H
	DB	00H
	DB	00H
	DB	00H
	DB	00H
	DB	00H
	DB	00H
	DB	00H
	DB	00H
	DB	00H
	DB	00H
	DB	00H
	DB	00H
	DB	00H
	DB	00H
	DB	00H
	DB	00H
	DB	00H
	DB	00H
	DB	00H
	DB	00H
	DB	00H
	DB	00H
	DB	00H
	DB	00H
	DB	00H
	DB	00H
	DB	00H
	DB	00H
	DB	00H
	DB	00H
	DB	00H
	DB	00H
	DB	00H
	DB	00H
	DB	00H
	DB	00H
	DB	00H
	DB	00H
	DB	00H
	DB	00H
	DB	00H
	DB	00H
	DB	00H
	DB	00H
	DB	00H
	DB	00H
	DB	00H
	DB	00H
	DB	00H
	DB	00H
	DB	00H
	DB	00H
	DB	00H
	DB	00H
	DB	00H
	DB	00H
	DB	00H
	DB	00H
	DB	00H
	DB	00H
	DB	00H
	DB	00H
	DB	00H
	DB	00H
	DB	00H
	DB	00H
	DB	00H
	DB	00H
	DB	00H
	DB	00H
	DB	00H
	DB	00H
	DB	00H
	DB	00H
	DB	00H
	DB	00H
	DB	00H
	DB	00H
	DB	00H
	DB	00H
	DB	00H
	DB	00H
	DB	00H
	DB	00H
	DB	00H
	DB	00H
	DB	00H
	DB	00H
	DB	00H
	DB	00H
	DB	00H
	DB	00H
	DB	00H
	DB	00H
	DB	00H
	DB	00H
	DB	00H
	DB	00H
	DB	00H
	DB	00H
	DB	00H
	DB	00H
	DB	00H
	DB	00H
	DB	00H
	DB	00H
	DB	00H
	DB	00H
	DB	00H
	DB	00H
	DB	00H
	DB	00H
	DB	00H
	DB	00H
	DB	00H
	DB	00H
	DB	00H
	DB	00H
	DB	00H
	DB	00H
	DB	00H
	DB	00H
	DB	00H
	DB	00H
	DB	00H
	DB	00H
	DB	00H
	DB	00H
	DB	00H
	DB	00H
	DB	00H
	DB	00H
	DB	00H
	DB	00H
	DB	00H
	DB	00H
	DB	00H
	DB	00H
	DB	00H
	DB	00H
	DB	00H
	DB	00H
	DB	00H
	DB	00H
	DB	00H
	DB	00H
	DB	00H
	DB	00H
	DB	00H
	DB	00H
	DB	00H
	DB	00H
	DB	00H
	DB	00H
	DB	00H
	DB	00H
	DB	00H
	DB	00H
	DB	00H
	DB	00H
	DB	00H
	DB	00H
	DB	00H
	DB	00H
	DB	00H
	DB	00H
	DB	00H
	DB	00H
	DB	00H
	DB	00H
	DB	00H
	DB	00H
	DB	00H
	DB	00H
	DB	00H
	DB	00H
	DB	00H
	DB	00H
	DB	00H
	DB	00H
	DB	00H
	DB	00H
	DB	00H
	DB	00H
	DB	00H
	DB	00H
	DB	00H
	DB	00H
	DB	00H
	DB	00H
	DB	00H
	DB	00H
	DB	00H
	DB	00H
	DB	00H
	DB	00H
	DB	00H
	DB	00H
	DB	00H
	DB	00H
	DB	00H
	DB	00H
	DB	00H
	DB	00H
	DB	00H
	DB	00H
	DB	00H
	DB	00H
	DB	00H
	DB	00H
	DB	00H
	DB	00H
	DB	00H
	DB	00H
	DB	00H
	DB	00H
	DB	00H
	DB	00H
	DB	00H
	DB	00H
	DB	00H
	DB	00H
	DB	00H
	DB	00H
	DB	00H
	DB	00H
	DB	00H
	DB	00H
	DB	00H
	DB	00H
	DB	00H
	DB	00H
	DB	00H
	DB	00H
	DB	00H
	DB	00H
	DB	00H
	DB	00H
	DB	00H
	DB	00H
	DB	00H
	DB	00H
	DB	00H
	DB	00H
	DB	00H
	DB	00H
	DB	00H
	DB	00H
	DB	00H
	DB	00H
	DB	00H
	DB	00H
	DB	00H
	DB	00H
	DB	00H
	DB	00H
	DB	00H
	DB	00H
	DB	00H
	DB	00H
	DB	00H
	DB	00H
	DB	00H
	DB	00H
	DB	00H
	DB	00H
	DB	00H
	DB	00H
	DB	00H
	DB	00H
	DB	00H
	DB	00H
	DB	00H
	DB	00H
	DB	00H
	DB	00H
	DB	00H
	DB	00H
	DB	00H
	DB	00H
	DB	00H
	DB	00H
	DB	00H
	DB	00H
	DB	00H
	DB	00H
	DB	00H
	DB	00H
	DB	00H
	DB	00H
	DB	00H
	DB	00H
	DB	00H
	DB	00H
	DB	00H
	DB	00H
	DB	00H
	DB	00H
	DB	00H
	DB	00H
	DB	00H
	DB	00H
	DB	00H
	DB	00H
	DB	00H
	DB	00H
	DB	00H
	DB	00H
	DB	00H
	DB	00H
	DB	00H
	DB	00H
	DB	00H
	DB	00H
	DB	00H
	DB	00H
	DB	00H
	DB	00H
	DB	00H
	DB	00H
	DB	00H
	DB	00H
	DB	00H
	DB	00H
	DB	00H
	DB	00H
	DB	00H
	DB	00H
	DB	00H
	DB	00H
	DB	00H
	DB	00H
	DB	00H
	DB	00H
	DB	00H
	DB	00H
	DB	00H
	DB	00H
	DB	00H
	DB	00H
	DB	00H
	DB	00H
	DB	00H
	DB	00H
	DB	00H
	DB	00H
	DB	00H
	DB	00H
	DB	00H
	DB	00H
	DB	00H
	DB	00H
	DB	00H
	DB	00H
	DB	00H
	DB	00H
	DB	00H
	DB	00H
	DB	00H
	DB	00H
	DB	00H
	DB	00H
	DB	00H
	DB	00H
	DB	00H
	DB	00H
	DB	00H
	DB	00H
	DB	00H
	DB	00H
	DB	00H
	DB	00H
	DB	00H
	DB	00H
	DB	00H
	DB	00H
	DB	00H
	DB	00H
	DB	00H
	DB	00H
	DB	00H
	DB	00H
	DB	00H
	DB	00H
	DB	00H
	DB	00H
	DB	00H
	DB	00H
	DB	00H
	DB	00H
	DB	00H
	DB	00H
	DB	00H
	DB	00H
	DB	00H
	DB	00H
	DB	00H
	DB	00H
	DB	00H
	DB	00H
	DB	00H
	DB	00H
	DB	00H
	DB	00H
	DB	00H
	DB	00H
	DB	00H
	DB	00H
	DB	00H
	DB	00H
	DB	00H
	DB	00H
	DB	00H
	DB	00H
	DB	00H
	DB	00H
	DB	00H
	DB	00H
	DB	00H
	DB	00H
	DB	00H
	DB	00H
	DB	00H
	DB	00H
	DB	00H
	DB	00H
	DB	00H
	DB	00H
	DB	00H
	DB	00H
	DB	00H
	DB	00H
	DB	00H
	DB	00H
	DB	00H
	DB	00H
	DB	00H
	DB	00H
	DB	00H
	DB	00H
	DB	00H
	DB	00H
	DB	00H
	DB	00H
	DB	00H
	DB	00H
	DB	00H
	DB	00H
	DB	00H
	DB	00H
	DB	00H
	DB	00H
	DB	00H
	DB	00H
	DB	00H
	DB	00H
	DB	00H
	DB	00H
	DB	00H
	DB	00H
	DB	00H
	DB	00H
	DB	00H
	DB	00H
	DB	00H
	DB	00H
	DB	00H
	DB	00H
	DB	00H
	DB	00H
	DB	00H
	DB	00H
	DB	00H
	DB	00H
	DB	00H
	DB	00H
	DB	00H
	DB	00H
	DB	00H
	DB	00H
	DB	00H
	DB	00H
	DB	00H
	DB	00H
	DB	00H
	DB	00H
	DB	00H
	DB	00H
	DB	00H
	DB	00H
	DB	00H
	DB	00H
	DB	00H
	DB	00H
	DB	00H
	DB	00H
	DB	00H
	DB	00H
	DB	00H
	DB	00H
	DB	00H
	DB	00H
	DB	00H
	DB	00H
	DB	00H
	DB	00H
	DB	00H
	DB	00H
	DB	00H
	DB	00H
	DB	00H
	DB	00H
	DB	00H
	DB	00H
	DB	00H
	DB	00H
	DB	00H
	DB	00H
	DB	00H
	DB	00H
	DB	00H
	DB	00H
	DB	00H
	DB	00H
	DB	00H
	DB	00H
	DB	00H
	DB	00H
	DB	00H
	DB	00H
	DB	00H
	DB	00H
	DB	00H
	DB	00H
	DB	00H
	DB	00H
	DB	00H
	DB	00H
	DB	00H
	DB	00H
	DB	00H
	DB	00H
	DB	00H
	DB	00H
	DB	00H
	DB	00H
	DB	00H
	DB	00H
	DB	00H
	DB	00H
	DB	00H
	DB	00H
	DB	00H
	DB	00H
	DB	00H
	DB	00H
	DB	00H
	DB	00H
	DB	00H
	DB	00H
	DB	00H
	DB	00H
	DB	00H
	DB	00H
	DB	00H
	DB	00H
	DB	00H
	DB	00H
	DB	00H
	DB	00H
	DB	00H
	DB	00H
	DB	00H
	DB	00H
	DB	00H
	DB	00H
	DB	00H
	DB	00H
	DB	00H
	DB	00H
	DB	00H
	DB	00H
	DB	00H
	DB	00H
	DB	00H
	DB	00H
	DB	00H
	DB	00H
	DB	00H
	DB	00H
	DB	00H
	DB	00H
	DB	00H
	DB	00H
	DB	00H
	DB	00H
	DB	00H
	DB	00H
	DB	00H
	DB	00H
	DB	00H
	DB	00H
	DB	00H
	DB	00H
	DB	00H
	DB	00H
	DB	00H
	DB	00H
	DB	00H
	DB	00H
	DB	00H
	DB	00H
	DB	00H
	DB	00H
	DB	00H
	DB	00H
	DB	00H
	DB	00H
	DB	00H
	DB	00H
	DB	00H
	DB	00H
	DB	00H
	DB	00H
	DB	00H
	DB	00H
	DB	00H
	DB	00H
	DB	00H
	DB	00H
	DB	00H
	DB	00H
	DB	00H
	DB	00H
	DB	00H
	DB	00H
	DB	00H
	DB	00H
	DB	00H
	DB	00H
	DB	00H
	DB	00H
	DB	00H
	DB	00H
	DB	00H
	DB	00H
	DB	00H
	DB	00H
	DB	00H
	DB	00H
	DB	00H
	DB	00H
	DB	00H
	DB	00H
	DB	00H
	DB	00H
	DB	00H
	DB	00H
	DB	00H
	DB	00H
	DB	00H
	DB	00H
	DB	00H
	DB	00H
	DB	00H
	DB	00H
	DB	00H
	DB	00H
	DB	00H
	DB	00H
	DB	00H
	DB	00H
	DB	00H
	DB	00H
	DB	00H
	DB	00H
	DB	00H
	DB	00H
	DB	00H
	DB	00H
	DB	00H
	DB	00H
	DB	00H
	DB	00H
	DB	00H
	DB	00H
	DB	00H
	DB	00H
	DB	00H
	DB	00H
	DB	00H
	DB	00H
	DB	00H
	DB	00H
	DB	00H
	DB	00H
	DB	00H
	DB	00H
	DB	00H
	DB	00H
	DB	00H
	DB	00H
	DB	00H
	DB	00H
	DB	00H
	DB	00H
	DB	00H
	DB	00H
	DB	00H
	DB	00H
	DB	00H
	DB	00H
	DB	00H
	DB	00H
	DB	00H
	DB	00H
	DB	00H
	DB	00H
	DB	00H
	DB	00H
	DB	00H
	DB	00H
	DB	00H
	DB	00H
	DB	00H
	DB	00H
	DB	00H
	DB	00H
	DB	00H
	DB	00H
	DB	00H
	DB	00H
	DB	00H
	DB	00H
	DB	00H
	DB	00H
	DB	00H
	DB	00H
	DB	00H
	DB	00H
	DB	00H
	DB	00H
	DB	00H
	DB	00H
	DB	00H
	DB	00H
	DB	00H
	DB	00H
	DB	00H
	DB	00H
	DB	00H
	DB	00H
	DB	00H
	DB	00H
	DB	00H
	DB	00H
	DB	00H
	DB	00H
	DB	00H
	DB	00H
	DB	00H
	DB	00H
	DB	00H
	DB	00H
	DB	00H
	DB	00H
	DB	00H
	DB	00H
	DB	00H
	DB	00H
	DB	00H
	DB	00H
	DB	00H
	DB	00H
	DB	00H
	DB	00H
	DB	00H
	DB	00H
	DB	00H
	DB	00H
	DB	00H
	DB	00H
	DB	00H
	DB	00H
	DB	00H
	DB	00H
	DB	00H
	DB	00H
	DB	00H
	DB	00H
	DB	00H
	DB	00H
	DB	00H
	DB	00H
	DB	00H
	DB	00H
	DB	00H
	DB	00H
	DB	00H
	DB	00H
	DB	00H
	DB	00H
	DB	00H
	DB	00H
	DB	00H
	DB	00H
	DB	00H
	DB	00H
	DB	00H
	DB	00H
	DB	00H
	DB	00H
	DB	00H
	DB	00H
	DB	00H
	DB	00H
	DB	00H
	DB	00H
	DB	00H
	DB	00H
	DB	00H
	DB	00H
	DB	00H
	DB	00H
	DB	00H
	DB	00H
	DB	00H
	DB	00H
	DB	00H
	DB	00H
	DB	00H
	DB	00H
	DB	00H
	DB	00H
	DB	00H
	DB	00H
	DB	00H
	DB	00H
	DB	00H
	DB	00H
	DB	00H
	DB	00H
	DB	00H
	DB	00H
	DB	00H
	DB	00H
	DB	00H
	DB	00H
	DB	00H
	DB	00H
	DB	00H
	DB	00H
	DB	00H
	DB	00H
	DB	00H
	DB	00H
	DB	00H
	DB	00H
	DB	00H
	DB	00H
	DB	00H
	DB	00H
	DB	00H
	DB	00H
	DB	00H
	DB	00H
	DB	00H
	DB	00H
	DB	00H
	DB	00H
	DB	00H
	DB	00H
	DB	00H
	DB	00H
	DB	00H
	DB	00H
	DB	00H
	DB	00H
	DB	00H
	DB	00H
	DB	00H
	DB	00H
	DB	00H
	DB	00H
	DB	00H
	DB	00H
	DB	00H
	DB	00H
	DB	00H
	DB	00H
	DB	00H
	DB	00H
	DB	00H
	DB	00H
	DB	00H
	DB	00H
	DB	00H
	DB	00H
	DB	00H
	DB	00H
	DB	00H
	DB	00H
	DB	00H
	DB	00H
	DB	00H
	DB	00H
	DB	00H
	DB	00H
	DB	00H
	DB	00H
	DB	00H
	DB	00H
	DB	00H
	DB	00H
	DB	00H
	DB	00H
	DB	00H
	DB	00H
	DB	00H
	DB	00H
	DB	00H
	DB	00H
	DB	00H
	DB	00H
	DB	00H
	DB	00H
	DB	00H
	DB	00H
	DB	00H
	DB	00H
	DB	00H
	DB	00H
	DB	00H
	DB	00H
	DB	00H
	DB	00H
	DB	00H
	DB	00H
	DB	00H
	DB	00H
	DB	00H
	DB	00H
	DB	00H
	DB	00H
	DB	00H
	DB	00H
	DB	00H
	DB	00H
	DB	00H
	DB	00H
	DB	00H
	DB	00H
	DB	00H
	DB	00H
	DB	00H
	DB	00H
	DB	00H
	DB	00H
	DB	00H
	DB	00H
	DB	00H
	DB	00H
	DB	00H
	DB	00H
	DB	00H
	DB	00H
	DB	00H
	DB	00H
	DB	00H
	DB	00H
	DB	00H
	DB	00H
	DB	00H
	DB	00H
	DB	00H
	DB	00H
	DB	00H
	DB	00H
	DB	00H
	DB	00H
	DB	00H
	DB	00H
	DB	00H
	DB	00H
	DB	00H
	DB	00H
	DB	00H
	DB	00H
	DB	00H
	DB	00H
	DB	00H
	DB	00H
	DB	00H
	DB	00H
	DB	00H
	DB	00H
	DB	00H
	DB	00H
	DB	00H
	DB	00H
	DB	00H
	DB	00H
	DB	00H
	DB	00H
	DB	00H
	DB	00H
	DB	00H
	DB	00H
	DB	00H
	DB	00H
	DB	00H
	DB	00H
	DB	00H
	DB	00H
	DB	00H
	DB	00H
	DB	00H
	DB	00H
	DB	00H
	DB	00H
	DB	00H
	DB	00H
	DB	00H
	DB	00H
	DB	00H
	DB	00H
	DB	00H
	DB	00H
	DB	00H
	DB	00H
	DB	00H
	DB	00H
	DB	00H
	DB	00H
	DB	00H
	DB	00H
	DB	00H
	DB	00H
	DB	00H
	DB	00H
	DB	00H
	DB	00H
	DB	00H
	DB	00H
	DB	00H
	DB	00H
	DB	00H
	DB	00H
	DB	00H
	DB	00H
	DB	00H
	DB	00H
	DB	00H
	DB	00H
	DB	00H
	DB	00H
	DB	00H
	DB	00H
	DB	00H
	DB	00H
	DB	00H
	DB	00H
	DB	00H
	DB	00H
	DB	00H
	DB	00H
	DB	00H
	DB	00H
	DB	00H
	DB	00H
	DB	00H
	DB	00H
	DB	00H
	DB	00H
	DB	00H
	DB	00H
	DB	00H
	DB	00H
	DB	00H
	DB	00H
	DB	00H
	DB	00H
	DB	00H
	DB	00H
	DB	00H
	DB	00H
	DB	00H
	DB	00H
	DB	00H
	DB	00H
	DB	00H
	DB	00H
	DB	00H
	DB	00H
	DB	00H
	DB	00H
	DB	00H
	DB	00H
	DB	00H
	DB	00H
	DB	00H
	DB	00H
	DB	00H
	DB	00H
	DB	00H
	DB	00H
	DB	00H
	DB	00H
	DB	00H
	DB	00H
	DB	00H
	DB	00H
	DB	00H
	DB	00H
	DB	00H
	DB	00H
	DB	00H
	DB	00H
	DB	00H
	DB	00H
	DB	00H
	DB	00H
	DB	00H
	DB	00H
	DB	00H
	DB	00H
	DB	00H
	DB	00H
	DB	00H
	DB	00H
	DB	00H
	DB	00H
	DB	00H
	DB	00H
	DB	00H
	DB	00H
	DB	00H
	DB	00H
	DB	00H
	DB	00H
	DB	00H
	DB	00H
	DB	00H
	DB	00H
	DB	00H
	DB	00H
	DB	00H
	DB	00H
	DB	00H
	DB	00H
	DB	00H
	DB	00H
	DB	00H
	DB	00H
	DB	00H
	DB	00H
	DB	00H
	DB	00H
	DB	00H
	DB	00H
	DB	00H
	DB	00H
	DB	00H
	DB	00H
	DB	00H
	DB	00H
	DB	00H
	DB	00H
	DB	00H
	DB	00H
	DB	00H
	DB	00H
	DB	00H
	DB	00H
	DB	00H
	DB	00H
	DB	00H
	DB	00H
	DB	00H
	DB	00H
	DB	00H
	DB	00H
	DB	00H
	DB	00H
	DB	00H
	DB	00H
	DB	00H
	DB	00H
	DB	00H
	DB	00H
	DB	00H
	DB	00H
	DB	00H
	DB	00H
	DB	00H
	DB	00H
	DB	00H
	DB	00H
	DB	00H
	DB	00H
	DB	00H
	DB	00H
	DB	00H
	DB	00H
	DB	00H
	DB	00H
	DB	00H
	DB	00H
	DB	00H
	DB	00H
	DB	00H
	DB	00H
	DB	00H
	DB	00H
	DB	00H
	DB	00H
	DB	00H
	DB	00H
	DB	00H
	DB	00H
	DB	00H
	DB	00H
	DB	00H
	DB	00H
	DB	00H
	DB	00H
	DB	00H
	DB	00H
	DB	00H
	DB	00H
	DB	00H
	DB	00H
	DB	00H
	DB	00H
	DB	00H
	DB	00H
	DB	00H
	DB	00H
	DB	00H
	DB	00H
	DB	00H
	DB	00H
	DB	00H
	DB	00H
	DB	00H
	DB	00H
	DB	00H
	DB	00H
	DB	00H
	DB	00H
	DB	00H
	DB	00H
	DB	00H
	DB	00H
	DB	00H
	DB	00H
	DB	00H
	DB	00H
	DB	00H
	DB	00H
	DB	00H
	DB	00H
	DB	00H
	DB	00H
	DB	00H
	DB	00H
	DB	00H
	DB	00H
	DB	00H
	DB	00H
	DB	00H
	DB	00H
	DB	00H
	DB	00H
	DB	00H
	DB	00H
	DB	00H
	DB	00H
	DB	00H
	DB	00H
	DB	00H
	DB	00H
	DB	00H
	DB	00H
	DB	00H
	DB	00H
	DB	00H
	DB	00H
	DB	00H
	DB	00H
	DB	00H
	DB	00H
	DB	00H
	DB	00H
	DB	00H
	DB	00H
	DB	00H
	DB	00H
	DB	00H
	DB	00H
	DB	00H
	DB	00H
	DB	00H
	DB	00H
	DB	00H
	DB	00H
	DB	00H
	DB	00H
	DB	00H
	DB	00H
	DB	00H
	DB	00H
	DB	00H
	DB	00H
	DB	00H
	DB	00H
	DB	00H
	DB	00H
	DB	00H
	DB	00H
	DB	00H
	DB	00H
	DB	00H
	DB	00H
	DB	00H
	DB	00H
	DB	00H
	DB	00H
	DB	00H
	DB	00H
	DB	00H
	DB	00H
	DB	00H
	DB	00H
	DB	00H
	DB	00H
	DB	00H
	DB	00H
	DB	00H
	DB	00H
	DB	00H
	DB	00H
	DB	00H
	DB	00H
	DB	00H
	DB	00H
	DB	00H
	DB	00H
	DB	00H
	DB	00H
	DB	00H
	DB	00H
	DB	00H
	DB	00H
	DB	00H
	DB	00H
	DB	00H
	DB	00H
	DB	00H
	DB	00H
	DB	00H
	DB	00H
	DB	00H
	DB	00H
	DB	00H
	DB	00H
	DB	00H
	DB	00H
	DB	00H
	DB	00H
	DB	00H
	DB	00H
	DB	00H
	DB	00H
	DB	00H
	DB	00H
	DB	00H
	DB	00H
	DB	00H
	DB	00H
	DB	00H
	DB	00H
	DB	00H
	DB	00H
	DB	00H
	DB	00H
	DB	00H
	DB	00H
	DB	00H
	DB	00H
	DB	00H
	DB	00H
	DB	00H
	DB	00H
	DB	00H
	DB	00H
	DB	00H
	DB	00H
	DB	00H
	DB	00H
	DB	00H
	DB	00H
	DB	00H
	DB	00H
	DB	00H
	DB	00H
	DB	00H
	DB	00H
	DB	00H
	DB	00H
	DB	00H
	DB	00H
	DB	00H
	DB	00H
	DB	00H
	DB	00H
	DB	00H
	DB	00H
	DB	00H
	DB	00H
	DB	00H
	DB	00H
	DB	00H
	DB	00H
	DB	00H
	DB	00H
	DB	00H
	DB	00H
	DB	00H
	DB	00H
	DB	00H
	DB	00H
	DB	00H
	DB	00H
	DB	00H
	DB	00H
	DB	00H
	DB	00H
	DB	00H
	DB	00H
	DB	00H
	DB	00H
	DB	00H
	DB	00H
	DB	00H
	DB	00H
	DB	00H
	DB	00H
	DB	00H
	DB	00H
	DB	00H
	DB	00H
	DB	00H
	DB	00H
	DB	00H
	DB	00H
	DB	00H
	DB	00H
	DB	00H
	DB	00H
	DB	00H
	DB	00H
	DB	00H
	DB	00H
	DB	00H
	DB	00H
	DB	00H
	DB	00H
	DB	00H
	DB	00H
	DB	00H
	DB	00H
	DB	00H
	DB	00H
	DB	00H
	DB	00H
	DB	00H
	DB	00H
	DB	00H
	DB	00H
	DB	00H
	DB	00H
	DB	00H
	DB	00H
	DB	00H
	DB	00H
	DB	00H
	DB	00H
	DB	00H
	DB	00H
	DB	00H
	DB	00H
	DB	00H
	DB	00H
	DB	00H
	DB	00H
	DB	00H
	DB	00H
	DB	00H
	DB	00H
	DB	00H
	DB	00H
	DB	00H
	DB	00H
	DB	00H
	DB	00H
	DB	00H
	DB	00H
	DB	00H
	DB	00H
	DB	00H
	DB	00H
	DB	00H
	DB	00H
	DB	00H
	DB	00H
	DB	00H
	DB	00H
	DB	00H
	DB	00H
	DB	00H
	DB	00H
	DB	00H
	DB	00H
	DB	00H
	DB	00H
	DB	00H
	DB	00H
	DB	00H
	DB	00H
	DB	00H
	DB	00H
	DB	00H
	DB	00H
	DB	00H
	DB	00H
	DB	00H
	DB	00H
	DB	00H
	DB	00H
	DB	00H
	DB	00H
	DB	00H
	DB	00H
	DB	00H
	DB	00H
	DB	00H
	DB	00H
	DB	00H
	DB	00H
	DB	00H
	DB	00H
	DB	00H
	DB	00H
	DB	00H
	DB	00H
	DB	00H
	DB	00H
	DB	00H
	DB	00H
	DB	00H
	DB	00H
	DB	00H
	DB	00H
	DB	00H
	DB	00H
	DB	00H
	DB	00H
	DB	00H
	DB	00H
	DB	00H
	DB	00H
	DB	00H
	DB	00H
	DB	00H
	DB	00H
	DB	00H
	DB	00H
	DB	00H
	DB	00H
	DB	00H
	DB	00H
	DB	00H
	DB	00H
	DB	00H
	DB	00H
	DB	00H
	DB	00H
	DB	00H
	DB	00H
	DB	00H
	DB	00H
	DB	00H
	DB	00H
	DB	00H
	DB	00H
	DB	00H
	DB	00H
	DB	00H
	DB	00H
	DB	00H
	DB	00H
	DB	00H
	DB	00H
	DB	00H
	DB	00H
	DB	00H
	DB	00H
	DB	00H
	DB	00H
	DB	00H
	DB	00H
	DB	00H
	DB	00H
	DB	00H
	DB	00H
	DB	00H
	DB	00H
	DB	00H
	DB	00H
	DB	00H
	DB	00H
	DB	00H
	DB	00H
	DB	00H
	DB	00H
	DB	00H
	DB	00H
	DB	00H
	DB	00H
	DB	00H
	DB	00H
	DB	00H
	DB	00H
	DB	00H
	DB	00H
	DB	00H
	DB	00H
	DB	00H
	DB	00H
	DB	00H
	DB	00H
	DB	00H
	DB	00H
	DB	00H
	DB	00H
	DB	00H
	DB	00H
	DB	00H
	DB	00H
	DB	00H
	DB	00H
	DB	00H
	DB	00H
	DB	00H
	DB	00H
	DB	00H
	DB	00H
	DB	00H
	DB	00H
	DB	00H
	DB	00H
	DB	00H
	DB	00H
	DB	00H
	DB	00H
	DB	00H
	DB	00H
	DB	00H
	DB	00H
	DB	00H
	DB	00H
	DB	00H
	DB	00H
	DB	00H
	DB	00H
	DB	00H
	DB	00H
	DB	00H
	DB	00H
	DB	00H
	DB	00H
	DB	00H
	DB	00H
	DB	00H
	DB	00H
	DB	00H
	DB	00H
	DB	00H
	DB	00H
	DB	00H
	DB	00H
	DB	00H
	DB	00H
	DB	00H
	DB	00H
	DB	00H
	DB	00H
	DB	00H
	DB	00H
	DB	00H
	DB	00H
	DB	00H
	DB	00H
	DB	00H
	DB	00H
	DB	00H
	DB	00H
	DB	00H
	DB	00H
	DB	00H
	DB	00H
	DB	00H
	DB	00H
	DB	00H
	DB	00H
	DB	00H
	DB	00H
	DB	00H
	DB	00H
	DB	00H
	DB	00H
	DB	00H
	DB	00H
	DB	00H
	DB	00H
	DB	00H
	DB	00H
	DB	00H
	DB	00H
	DB	00H
	DB	00H
	DB	00H
	DB	00H
	DB	00H
	DB	00H
	DB	00H
	DB	00H
	DB	00H
	DB	00H
	DB	00H
	DB	00H
	DB	00H
	DB	00H
	DB	00H
	DB	00H
	DB	00H
	DB	00H
	DB	00H
	DB	00H
	DB	00H
	DB	00H
	DB	00H
	DB	00H
	DB	00H
	DB	00H
	DB	00H
	DB	00H
	DB	00H
	DB	00H
	DB	00H
	DB	00H
	DB	00H
	DB	00H
	DB	00H
	DB	00H
	DB	00H
	DB	00H
	DB	00H
	DB	00H
	DB	00H
	DB	00H
	DB	00H
	DB	00H
	DB	00H
	DB	00H
	DB	00H
	DB	00H
	DB	00H
	DB	00H
	DB	00H
	DB	00H
	DB	00H
	DB	00H
	DB	00H
	DB	00H
	DB	00H
	DB	00H
	DB	00H
	DB	00H
	DB	00H
	DB	00H
	DB	00H
	DB	00H
	DB	00H
	DB	00H
	DB	00H
	DB	00H
	DB	00H
	DB	00H
	DB	00H
	DB	00H
	DB	00H
	DB	00H
	DB	00H
	DB	00H
	DB	00H
	DB	00H
	DB	00H
	DB	00H
	DB	00H
	DB	00H
	DB	00H
	DB	00H
	DB	00H
	DB	00H
	DB	00H
	DB	00H
	DB	00H
	DB	00H
	DB	00H
	DB	00H
	DB	00H
	DB	00H
	DB	00H
	DB	00H
	DB	00H
	DB	00H
	DB	00H
	DB	00H
	DB	00H
	DB	00H
	DB	00H
	DB	00H
	DB	00H
	DB	00H
	DB	00H
	DB	00H
	DB	00H
	DB	00H
	DB	00H
	DB	00H
	DB	00H
	DB	00H
	DB	00H
	DB	00H
	DB	00H
	DB	00H
	DB	00H
	DB	00H
	DB	00H
	DB	00H
	DB	00H
	DB	00H
	DB	00H
	DB	00H
	DB	00H
	DB	00H
	DB	00H
	DB	00H
	DB	00H
	DB	00H
	DB	00H
	DB	00H
	DB	00H
	DB	00H
	DB	00H
	DB	00H
	DB	00H
	DB	00H
	DB	00H
	DB	00H
	DB	00H
	DB	00H
	DB	00H
	DB	00H
	DB	00H
	DB	00H
	DB	00H
	DB	00H
	DB	00H
	DB	00H
	DB	00H
	DB	00H
	DB	00H
	DB	00H
	DB	00H
	DB	00H
	DB	00H
	DB	00H
	DB	00H
	DB	00H
	DB	00H
	DB	00H
	DB	00H
	DB	00H
	DB	00H
	DB	00H
	DB	00H
	DB	00H
	DB	00H
	DB	00H
	DB	00H
	DB	00H
	DB	00H
	DB	00H
	DB	00H
	DB	00H
	DB	00H
	DB	00H
	DB	00H
	DB	00H
	DB	00H
	DB	00H
	DB	00H
	DB	00H
	DB	00H
	DB	00H
	DB	00H
	DB	00H
	DB	00H
	DB	00H
	DB	00H
	DB	00H
	DB	00H
	DB	00H
	DB	00H
	DB	00H
	DB	00H
	DB	00H
	DB	00H
	DB	00H
	DB	00H
	DB	00H
	DB	00H
	DB	00H
	DB	00H
	DB	00H
	DB	00H
	DB	00H
	DB	00H
	DB	00H
	DB	00H
	DB	00H
	DB	00H
	DB	00H
	DB	00H
	DB	00H
	DB	00H
	DB	00H
	DB	00H
	DB	00H
	DB	00H
	DB	00H
	DB	00H
	DB	00H
	DB	00H
	DB	00H
	DB	00H
	DB	00H
	DB	00H
	DB	00H
	DB	00H
	DB	00H
	DB	00H
	DB	00H
	DB	00H
	DB	00H
	DB	00H
	DB	00H
	DB	00H
	DB	00H
	DB	00H
	DB	00H
	DB	00H
	DB	00H
	DB	00H
	DB	00H
	DB	00H
	DB	00H
	DB	00H
	DB	00H
	DB	00H
	DB	00H
	DB	00H
	DB	00H
	DB	00H
	DB	00H
	DB	00H
	DB	00H
	DB	00H
	DB	00H
	DB	00H
	DB	00H
	DB	00H
	DB	00H
	DB	00H
	DB	00H
	DB	00H
	DB	00H
	DB	00H
	DB	00H
	DB	00H
	DB	00H
	DB	00H
	DB	00H
	DB	00H
	DB	00H
	DB	00H
	DB	00H
	DB	00H
	DB	00H
	DB	00H
	DB	00H
	DB	00H
	DB	00H
	DB	00H
	DB	00H
	DB	00H
	DB	00H
	DB	00H
	DB	00H
	DB	00H
	DB	00H
	DB	00H
	DB	00H
	DB	00H
	DB	00H
	DB	00H
	DB	00H
	DB	00H
	DB	00H
	DB	00H
	DB	00H
	DB	00H
	DB	00H
	DB	00H
	DB	00H
	DB	00H
	DB	00H
	DB	00H
	DB	00H
	DB	00H
	DB	00H
	DB	00H
	DB	00H
	DB	00H
	DB	00H
	DB	00H
	DB	00H
	DB	00H
	DB	00H
	DB	00H
	DB	00H
	DB	00H
	DB	00H
	DB	00H
	DB	00H
	DB	00H
	DB	00H
	DB	00H
	DB	00H
	DB	00H
	DB	00H
	DB	00H
	DB	00H
	DB	00H
	DB	00H
	DB	00H
	DB	00H
	DB	00H
	DB	00H
	DB	00H
	DB	00H
	DB	00H
	DB	00H
	DB	00H
	DB	00H
	DB	00H
	DB	00H
	DB	00H
	DB	00H
	DB	00H
	DB	00H
	DB	00H
	DB	00H
	DB	00H
	DB	00H
	DB	00H
	DB	00H
	DB	00H
	DB	00H
	DB	00H
	DB	00H
	DB	00H
	DB	00H
	DB	00H
	DB	00H
	DB	00H
	DB	00H
	DB	00H
	DB	00H
	DB	00H
	DB	00H
	DB	00H
	DB	00H
	DB	00H
	DB	00H
	DB	00H
	DB	00H
	DB	00H
	DB	00H
	DB	00H
	DB	00H
	DB	00H
	DB	00H
	DB	00H
	DB	00H
	DB	00H
	DB	00H
	DB	00H
	DB	00H
	DB	00H
	DB	00H
	DB	00H
	DB	00H
	DB	00H
	DB	00H
	DB	00H
	DB	00H
	DB	00H
	DB	00H
	DB	00H
	DB	00H
	DB	00H
	DB	00H
	DB	00H
	DB	00H
	DB	00H
	DB	00H
	DB	00H
	DB	00H
	DB	00H
	DB	00H
	DB	00H
	DB	00H
	DB	00H
	DB	00H
	DB	00H
	DB	00H
	DB	00H
	DB	00H
	DB	00H
	DB	00H
	DB	00H
	DB	00H
	DB	00H
	DB	00H
	DB	00H
	DB	00H
	DB	00H
	DB	00H
	DB	00H
	DB	00H
	DB	00H
	DB	00H
	DB	00H
	DB	00H
	DB	00H
	DB	00H
	DB	00H
	DB	00H
	DB	00H
	DB	00H
	DB	00H
	DB	00H
	DB	00H
	DB	00H
	DB	00H
	DB	00H
	DB	00H
	DB	00H
	DB	00H
	DB	00H
	DB	00H
	DB	00H
	DB	00H
	DB	00H
	DB	00H
	DB	00H
	DB	00H
	DB	00H
	DB	00H
	DB	00H
	DB	00H
	DB	00H
	DB	00H
	DB	00H
	DB	00H
	DB	00H
	DB	00H
	DB	00H
	DB	00H
	DB	00H
	DB	00H
	DB	00H
	DB	00H
	DB	00H
	DB	00H
	DB	00H
	DB	00H
	DB	00H
	DB	00H
	DB	00H
	DB	00H
	DB	00H
	DB	00H
	DB	00H
	DB	00H
	DB	00H
	DB	00H
	DB	00H
	DB	00H
	DB	00H
	DB	00H
	DB	00H
	DB	00H
	DB	00H
	DB	00H
	DB	00H
	DB	00H
	DB	00H
	DB	00H
	DB	00H
	DB	00H
	DB	00H
	DB	00H
	DB	00H
	DB	00H
	DB	00H
	DB	00H
	DB	00H
	DB	00H
	DB	00H
	DB	00H
	DB	00H
	DB	00H
	DB	00H
	DB	00H
	DB	00H
	DB	00H
	DB	00H
	DB	00H
	DB	00H
	DB	00H
	DB	00H
	DB	00H
	DB	00H
	DB	00H
	DB	00H
	DB	00H
	DB	00H
	DB	00H
	DB	00H
	DB	00H
	DB	00H
	DB	00H
	DB	00H
	DB	00H
	DB	00H
	DB	00H
	DB	00H
	DB	00H
	DB	00H
	DB	00H
	DB	00H
	DB	00H
	DB	00H
	DB	00H
	DB	00H
	DB	00H
	DB	00H
	DB	00H
	DB	00H
	DB	00H
	DB	00H
	DB	00H
	DB	00H
	DB	00H
	DB	00H
	DB	00H
	DB	00H
	DB	00H
	DB	00H
	DB	00H
	DB	00H
	DB	00H
	DB	00H
	DB	00H
	DB	00H
	DB	00H
	DB	00H
	DB	00H
	DB	00H
	DB	00H
	DB	00H
	DB	00H
	DB	00H
	DB	00H
	DB	00H
	DB	00H
	DB	00H
	DB	00H
	DB	00H
	DB	00H
	DB	00H
	DB	00H
	DB	00H
	DB	00H
	DB	00H
	DB	00H
	DB	00H
	DB	00H
	DB	00H
	DB	00H
	DB	00H
	DB	00H
	DB	00H
	DB	00H
	DB	00H
	DB	00H
	DB	00H
	DB	00H
	DB	00H
	DB	00H
	DB	00H
	DB	00H
	DB	00H
	DB	00H
	DB	00H
	DB	00H
	DB	00H
	DB	00H
	DB	00H
	DB	00H
	DB	00H
	DB	00H
	DB	00H
	DB	00H
	DB	00H
	DB	00H
	DB	00H
	DB	00H
	DB	00H
	DB	00H
	DB	00H
	DB	00H
	DB	00H
	DB	00H
	DB	00H
	DB	00H
	DB	00H
	DB	00H
	DB	00H
	DB	00H
	DB	00H
	DB	00H
	DB	00H
	DB	00H
	DB	00H
	DB	00H
	DB	00H
	DB	00H
	DB	00H
	DB	00H
	DB	00H
	DB	00H
	DB	00H
	DB	00H
	DB	00H
	DB	00H
	DB	00H
	DB	00H
	DB	00H
	DB	00H
	DB	00H
	DB	00H
	DB	00H
	DB	00H
	DB	00H
	DB	00H
	DB	00H
	DB	00H
	DB	00H
	DB	00H
	DB	00H
	DB	00H
	DB	00H
	DB	00H
	DB	00H
	DB	00H
	DB	00H
	DB	00H
	DB	00H
	DB	00H
	DB	00H
	DB	00H
	DB	00H
	DB	00H
	DB	00H
	DB	00H
	DB	00H
	DB	00H
	DB	00H
	DB	00H
	DB	00H
	DB	00H
	DB	00H
	DB	00H
	DB	00H
	DB	00H
	DB	00H
	DB	00H
	DB	00H
	DB	00H
	DB	00H
	DB	00H
	DB	00H
	DB	00H
	DB	00H
	DB	00H
	DB	00H
	DB	00H
	DB	00H
	DB	00H
	DB	00H
	DB	00H
	DB	00H
	DB	00H
	DB	00H
	DB	00H
	DB	00H
	DB	00H
	DB	00H
	DB	00H
	DB	00H
	DB	00H
	DB	00H
	DB	00H
	DB	00H
	DB	00H
	DB	00H
	DB	00H
	DB	00H
	DB	00H
	DB	00H
	DB	00H
	DB	00H
	DB	00H
	DB	00H
	DB	00H
	DB	00H
	DB	00H
	DB	00H
	DB	00H
	DB	00H
	DB	00H
	DB	00H
	DB	00H
	DB	00H
	DB	00H
	DB	00H
	DB	00H
	DB	00H
	DB	00H
	DB	00H
	DB	00H
	DB	00H
	DB	00H
	DB	00H
	DB	00H
	DB	00H
	DB	00H
	DB	00H
	DB	00H
	DB	00H
	DB	00H
	DB	00H
	DB	00H
	DB	00H
	DB	00H
	DB	00H
	DB	00H
	DB	00H
	DB	00H
	DB	00H
	DB	00H
	DB	00H
	DB	00H
	DB	00H
	DB	00H
	DB	00H
	DB	00H
	DB	00H
	DB	00H
	DB	00H
	DB	00H
	DB	00H
	DB	00H
	DB	00H
	DB	00H
	DB	00H
	DB	00H
	DB	00H
	DB	00H
	DB	00H
	DB	00H
	DB	00H
	DB	00H
	DB	00H
	DB	00H
	DB	00H
	DB	00H
	DB	00H
	DB	00H
	DB	00H
	DB	00H
	DB	00H
	DB	00H
	DB	00H
	DB	00H
	DB	00H
	DB	00H
	DB	00H
	DB	00H
	DB	00H
	DB	00H
	DB	00H
	DB	00H
	DB	00H
	DB	00H
	DB	00H
	DB	00H
	DB	00H
	DB	00H
	DB	00H
	DB	00H
	DB	00H
	DB	00H
	DB	00H
	DB	00H
	DB	00H
	DB	00H
	DB	00H
	DB	00H
	DB	00H
	DB	00H
	DB	00H
	DB	00H
	DB	00H
	DB	00H
	DB	00H
	DB	00H
	DB	00H
	DB	00H
	DB	00H
	DB	00H
	DB	00H
	DB	00H
	DB	00H
	DB	00H
	DB	00H
	DB	00H
	DB	00H
	DB	00H
	DB	00H
	DB	00H
	DB	00H
	DB	00H
	DB	00H
	DB	00H
	DB	00H
	DB	00H
	DB	00H
	DB	00H
	DB	00H
	DB	00H
	DB	00H
	DB	00H
	DB	00H
	DB	00H
	DB	00H
	DB	00H
	DB	00H
	DB	00H
	DB	00H
	DB	00H
	DB	00H
	DB	00H
	DB	00H
	DB	00H
	DB	00H
	DB	00H
	DB	00H
	DB	00H
	DB	00H
	DB	00H
	DB	00H
	DB	00H
	DB	00H
	DB	00H
	DB	00H
	DB	00H
	DB	00H
	DB	00H
	DB	00H
	DB	00H
	DB	00H
	DB	00H
	DB	00H
	DB	00H
	DB	00H
	DB	00H
	DB	00H
	DB	00H
	DB	00H
	DB	00H
	DB	00H
	DB	00H
	DB	00H
	DB	00H
	DB	00H
	DB	00H
	DB	00H
	DB	00H
	DB	00H
	DB	00H
	DB	00H
	DB	00H
	DB	00H
	DB	00H
	DB	00H
	DB	00H
	DB	00H
	DB	00H
	DB	00H
	DB	00H
	DB	00H
	DB	00H
	DB	00H
	DB	00H
	DB	00H
	DB	00H
	DB	00H
	DB	00H
	DB	00H
	DB	00H
	DB	00H
	DB	00H
	DB	00H
	DB	00H
	DB	00H
	DB	00H
	DB	00H
	DB	00H
	DB	00H
	DB	050H
	DB	03cH
	DB	00H
	DB	04H
	DB	050H
	DB	03cH
	DB	00H
	DB	06dH
	DB	050H
	DB	03cH
	DB	00H
	DB	0c7H
	DB	058H
	DB	040H
	DB	00H
	DB	0f3H
	DB	058H
	DB	040H
	DB	00H
	DB	0ffH
	DB	058H
	DB	040H
	DB	00H
	DB	0ffH
	DB	058H
	DB	044H
	DB	00H
	DB	0ffH
	DB	058H
	DB	040H
	DB	00H
	DB	0ffH
	DB	058H
	DB	040H
	DB	00H
	DB	0ffH
	DB	058H
	DB	044H
	DB	00H
	DB	0ffH
	DB	058H
	DB	040H
	DB	00H
	DB	0ffH
	DB	058H
	DB	040H
	DB	00H
	DB	0ffH
	DB	058H
	DB	044H
	DB	00H
	DB	0ffH
	DB	058H
	DB	040H
	DB	00H
	DB	0ffH
	DB	058H
	DB	040H
	DB	00H
	DB	0ffH
	DB	058H
	DB	044H
	DB	00H
	DB	0ffH
	DB	058H
	DB	040H
	DB	00H
	DB	0ffH
	DB	058H
	DB	040H
	DB	00H
	DB	0ffH
	DB	058H
	DB	044H
	DB	00H
	DB	0ffH
	DB	058H
	DB	040H
	DB	00H
	DB	0ffH
	DB	058H
	DB	040H
	DB	00H
	DB	0ffH
	DB	058H
	DB	044H
	DB	00H
	DB	0ffH
	DB	058H
	DB	040H
	DB	00H
	DB	0ffH
	DB	058H
	DB	040H
	DB	00H
	DB	0ffH
	DB	058H
	DB	044H
	DB	00H
	DB	0ffH
	DB	058H
	DB	040H
	DB	00H
	DB	0ffH
	DB	058H
	DB	040H
	DB	00H
	DB	0ffH
	DB	058H
	DB	044H
	DB	00H
	DB	0ffH
	DB	058H
	DB	040H
	DB	00H
	DB	0ffH
	DB	058H
	DB	040H
	DB	00H
	DB	0ffH
	DB	058H
	DB	044H
	DB	00H
	DB	0ffH
	DB	058H
	DB	040H
	DB	00H
	DB	0ffH
	DB	058H
	DB	040H
	DB	00H
	DB	0ffH
	DB	058H
	DB	044H
	DB	00H
	DB	0ffH
	DB	058H
	DB	040H
	DB	00H
	DB	0ffH
	DB	058H
	DB	040H
	DB	00H
	DB	0ffH
	DB	058H
	DB	044H
	DB	00H
	DB	0ffH
	DB	058H
	DB	040H
	DB	00H
	DB	0ffH
	DB	058H
	DB	040H
	DB	00H
	DB	0ffH
	DB	058H
	DB	044H
	DB	00H
	DB	0ffH
	DB	058H
	DB	040H
	DB	00H
	DB	0ffH
	DB	058H
	DB	040H
	DB	00H
	DB	0ffH
	DB	058H
	DB	044H
	DB	00H
	DB	0ffH
	DB	058H
	DB	040H
	DB	00H
	DB	0ffH
	DB	058H
	DB	040H
	DB	00H
	DB	0ffH
	DB	058H
	DB	044H
	DB	00H
	DB	0ffH
	DB	058H
	DB	040H
	DB	00H
	DB	0ffH
	DB	058H
	DB	040H
	DB	00H
	DB	0ffH
	DB	058H
	DB	044H
	DB	00H
	DB	0ffH
	DB	058H
	DB	040H
	DB	00H
	DB	0ffH
	DB	058H
	DB	040H
	DB	00H
	DB	0ffH
	DB	058H
	DB	044H
	DB	00H
	DB	0ffH
	DB	058H
	DB	040H
	DB	00H
	DB	0ffH
	DB	058H
	DB	040H
	DB	00H
	DB	0ffH
	DB	058H
	DB	044H
	DB	00H
	DB	0ffH
	DB	058H
	DB	040H
	DB	00H
	DB	0ffH
	DB	058H
	DB	040H
	DB	00H
	DB	0ffH
	DB	058H
	DB	044H
	DB	00H
	DB	0ffH
	DB	058H
	DB	040H
	DB	00H
	DB	0ffH
	DB	058H
	DB	040H
	DB	00H
	DB	0ffH
	DB	058H
	DB	044H
	DB	00H
	DB	0ffH
	DB	058H
	DB	040H
	DB	00H
	DB	0ffH
	DB	058H
	DB	040H
	DB	00H
	DB	0ffH
	DB	058H
	DB	044H
	DB	00H
	DB	0ffH
	DB	058H
	DB	040H
	DB	00H
	DB	0ffH
	DB	058H
	DB	040H
	DB	00H
	DB	0ffH
	DB	058H
	DB	044H
	DB	00H
	DB	0ffH
	DB	058H
	DB	040H
	DB	00H
	DB	0ffH
	DB	058H
	DB	040H
	DB	00H
	DB	0ffH
	DB	058H
	DB	044H
	DB	00H
	DB	0ffH
	DB	058H
	DB	040H
	DB	00H
	DB	0ffH
	DB	058H
	DB	040H
	DB	00H
	DB	0ffH
	DB	058H
	DB	044H
	DB	00H
	DB	0ffH
	DB	058H
	DB	040H
	DB	00H
	DB	0ffH
	DB	058H
	DB	040H
	DB	00H
	DB	0ffH
	DB	058H
	DB	044H
	DB	00H
	DB	0ffH
	DB	058H
	DB	040H
	DB	00H
	DB	0ffH
	DB	058H
	DB	040H
	DB	00H
	DB	0ffH
	DB	058H
	DB	044H
	DB	00H
	DB	0ffH
	DB	058H
	DB	040H
	DB	00H
	DB	0ffH
	DB	058H
	DB	040H
	DB	00H
	DB	0ffH
	DB	058H
	DB	044H
	DB	00H
	DB	0ffH
	DB	058H
	DB	040H
	DB	00H
	DB	0ffH
	DB	058H
	DB	040H
	DB	00H
	DB	0ffH
	DB	058H
	DB	044H
	DB	00H
	DB	0ffH
	DB	058H
	DB	040H
	DB	00H
	DB	0ffH
	DB	058H
	DB	040H
	DB	00H
	DB	0ffH
	DB	058H
	DB	044H
	DB	00H
	DB	0ffH
	DB	058H
	DB	040H
	DB	00H
	DB	0ffH
	DB	058H
	DB	040H
	DB	00H
	DB	0ffH
	DB	058H
	DB	044H
	DB	00H
	DB	0ffH
	DB	058H
	DB	040H
	DB	00H
	DB	0ffH
	DB	058H
	DB	040H
	DB	00H
	DB	0ffH
	DB	058H
	DB	044H
	DB	00H
	DB	0ffH
	DB	058H
	DB	040H
	DB	00H
	DB	0ffH
	DB	058H
	DB	040H
	DB	00H
	DB	0ffH
	DB	058H
	DB	044H
	DB	00H
	DB	0ffH
	DB	058H
	DB	040H
	DB	00H
	DB	0ffH
	DB	058H
	DB	040H
	DB	00H
	DB	0ffH
	DB	058H
	DB	044H
	DB	00H
	DB	0ffH
	DB	058H
	DB	040H
	DB	00H
	DB	0ffH
	DB	058H
	DB	040H
	DB	00H
	DB	0ffH
	DB	058H
	DB	044H
	DB	00H
	DB	0ffH
	DB	058H
	DB	040H
	DB	00H
	DB	0ffH
	DB	058H
	DB	040H
	DB	00H
	DB	0ffH
	DB	058H
	DB	044H
	DB	00H
	DB	0ffH
	DB	058H
	DB	040H
	DB	00H
	DB	0ffH
	DB	058H
	DB	040H
	DB	00H
	DB	0ffH
	DB	058H
	DB	044H
	DB	00H
	DB	0ffH
	DB	058H
	DB	040H
	DB	00H
	DB	0ffH
	DB	058H
	DB	040H
	DB	00H
	DB	0ffH
	DB	058H
	DB	044H
	DB	00H
	DB	0ffH
	DB	058H
	DB	040H
	DB	00H
	DB	0ffH
	DB	058H
	DB	040H
	DB	00H
	DB	0ffH
	DB	058H
	DB	044H
	DB	00H
	DB	0ffH
	DB	058H
	DB	040H
	DB	00H
	DB	0ffH
	DB	058H
	DB	040H
	DB	00H
	DB	0ffH
	DB	058H
	DB	044H
	DB	00H
	DB	0ffH
	DB	058H
	DB	040H
	DB	00H
	DB	0ffH
	DB	058H
	DB	040H
	DB	00H
	DB	0ffH
	DB	058H
	DB	044H
	DB	00H
	DB	0ffH
	DB	058H
	DB	040H
	DB	00H
	DB	0ffH
	DB	058H
	DB	040H
	DB	00H
	DB	0ffH
	DB	058H
	DB	044H
	DB	00H
	DB	0ffH
	DB	058H
	DB	040H
	DB	00H
	DB	0ffH
	DB	058H
	DB	040H
	DB	00H
	DB	0ffH
	DB	058H
	DB	044H
	DB	00H
	DB	0ffH
	DB	058H
	DB	040H
	DB	00H
	DB	0ffH
	DB	058H
	DB	040H
	DB	00H
	DB	0ffH
	DB	058H
	DB	044H
	DB	00H
	DB	0ffH
	DB	058H
	DB	040H
	DB	00H
	DB	0ffH
	DB	058H
	DB	040H
	DB	00H
	DB	0ffH
	DB	058H
	DB	044H
	DB	00H
	DB	0ffH
	DB	058H
	DB	040H
	DB	00H
	DB	0ffH
	DB	058H
	DB	040H
	DB	00H
	DB	0ffH
	DB	058H
	DB	044H
	DB	00H
	DB	0ffH
	DB	058H
	DB	040H
	DB	00H
	DB	0ffH
	DB	058H
	DB	040H
	DB	00H
	DB	0ffH
	DB	058H
	DB	044H
	DB	00H
	DB	0ffH
	DB	058H
	DB	040H
	DB	00H
	DB	0ffH
	DB	058H
	DB	040H
	DB	00H
	DB	0ffH
	DB	058H
	DB	044H
	DB	00H
	DB	0ffH
	DB	058H
	DB	040H
	DB	00H
	DB	0ffH
	DB	058H
	DB	040H
	DB	00H
	DB	0ffH
	DB	058H
	DB	044H
	DB	00H
	DB	0ffH
	DB	058H
	DB	040H
	DB	00H
	DB	0ffH
	DB	058H
	DB	040H
	DB	00H
	DB	0ffH
	DB	058H
	DB	044H
	DB	00H
	DB	0ffH
	DB	058H
	DB	040H
	DB	00H
	DB	0ffH
	DB	058H
	DB	040H
	DB	00H
	DB	0ffH
	DB	058H
	DB	044H
	DB	00H
	DB	0ffH
	DB	058H
	DB	040H
	DB	00H
	DB	0ffH
	DB	058H
	DB	040H
	DB	00H
	DB	0f3H
	DB	050H
	DB	03cH
	DB	00H
	DB	0c7H
	DB	050H
	DB	03cH
	DB	00H
	DB	06dH
	DB	050H
	DB	03cH
	DB	00H
	DB	04H
	DB	00H
	DB	00H
	DB	00H
	DB	00H
	DB	00H
	DB	00H
	DB	00H
	DB	00H
	DB	00H
	DB	00H
	DB	00H
	DB	00H
	DB	00H
	DB	00H
	DB	00H
	DB	00H
	DB	00H
	DB	00H
	DB	00H
	DB	00H
	DB	00H
	DB	00H
	DB	00H
	DB	00H
	DB	00H
	DB	00H
	DB	00H
	DB	00H
	DB	00H
	DB	00H
	DB	00H
	DB	00H
	DB	00H
	DB	00H
	DB	00H
	DB	00H
	DB	00H
	DB	00H
	DB	00H
	DB	00H
	DB	00H
	DB	00H
	DB	00H
	DB	00H
	DB	00H
	DB	00H
	DB	00H
	DB	00H
	DB	00H
	DB	00H
	DB	00H
	DB	00H
	DB	050H
	DB	03cH
	DB	00H
	DB	01cH
	DB	058H
	DB	03cH
	DB	00H
	DB	0cfH
	DB	060H
	DB	044H
	DB	00H
	DB	0ffH
	DB	060H
	DB	048H
	DB	00H
	DB	0ffH
	DB	068H
	DB	04cH
	DB	00H
	DB	0ffH
	DB	068H
	DB	04cH
	DB	00H
	DB	0ffH
	DB	068H
	DB	04cH
	DB	00H
	DB	0ffH
	DB	068H
	DB	04cH
	DB	00H
	DB	0ffH
	DB	068H
	DB	04cH
	DB	00H
	DB	0ffH
	DB	068H
	DB	04cH
	DB	00H
	DB	0ffH
	DB	068H
	DB	04cH
	DB	00H
	DB	0ffH
	DB	068H
	DB	04cH
	DB	00H
	DB	0ffH
	DB	068H
	DB	04cH
	DB	00H
	DB	0ffH
	DB	068H
	DB	04cH
	DB	00H
	DB	0ffH
	DB	068H
	DB	04cH
	DB	00H
	DB	0ffH
	DB	068H
	DB	04cH
	DB	00H
	DB	0ffH
	DB	068H
	DB	04cH
	DB	00H
	DB	0ffH
	DB	068H
	DB	04cH
	DB	00H
	DB	0ffH
	DB	068H
	DB	04cH
	DB	00H
	DB	0ffH
	DB	068H
	DB	04cH
	DB	00H
	DB	0ffH
	DB	068H
	DB	04cH
	DB	00H
	DB	0ffH
	DB	068H
	DB	04cH
	DB	00H
	DB	0ffH
	DB	068H
	DB	04cH
	DB	00H
	DB	0ffH
	DB	068H
	DB	04cH
	DB	00H
	DB	0ffH
	DB	068H
	DB	04cH
	DB	00H
	DB	0ffH
	DB	068H
	DB	04cH
	DB	00H
	DB	0ffH
	DB	068H
	DB	04cH
	DB	00H
	DB	0ffH
	DB	068H
	DB	04cH
	DB	00H
	DB	0ffH
	DB	068H
	DB	04cH
	DB	00H
	DB	0ffH
	DB	068H
	DB	04cH
	DB	00H
	DB	0ffH
	DB	068H
	DB	04cH
	DB	00H
	DB	0ffH
	DB	068H
	DB	04cH
	DB	00H
	DB	0ffH
	DB	068H
	DB	04cH
	DB	00H
	DB	0ffH
	DB	068H
	DB	04cH
	DB	00H
	DB	0ffH
	DB	068H
	DB	04cH
	DB	00H
	DB	0ffH
	DB	068H
	DB	04cH
	DB	00H
	DB	0ffH
	DB	068H
	DB	04cH
	DB	00H
	DB	0ffH
	DB	068H
	DB	04cH
	DB	00H
	DB	0ffH
	DB	068H
	DB	04cH
	DB	00H
	DB	0ffH
	DB	068H
	DB	04cH
	DB	00H
	DB	0ffH
	DB	068H
	DB	04cH
	DB	00H
	DB	0ffH
	DB	068H
	DB	04cH
	DB	00H
	DB	0ffH
	DB	068H
	DB	04cH
	DB	00H
	DB	0ffH
	DB	068H
	DB	04cH
	DB	00H
	DB	0ffH
	DB	068H
	DB	04cH
	DB	00H
	DB	0ffH
	DB	068H
	DB	04cH
	DB	00H
	DB	0ffH
	DB	068H
	DB	04cH
	DB	00H
	DB	0ffH
	DB	068H
	DB	04cH
	DB	00H
	DB	0ffH
	DB	068H
	DB	04cH
	DB	00H
	DB	0ffH
	DB	068H
	DB	04cH
	DB	00H
	DB	0ffH
	DB	068H
	DB	04cH
	DB	00H
	DB	0ffH
	DB	068H
	DB	04cH
	DB	00H
	DB	0ffH
	DB	068H
	DB	04cH
	DB	00H
	DB	0ffH
	DB	068H
	DB	04cH
	DB	00H
	DB	0ffH
	DB	068H
	DB	04cH
	DB	00H
	DB	0ffH
	DB	068H
	DB	04cH
	DB	00H
	DB	0ffH
	DB	068H
	DB	04cH
	DB	00H
	DB	0ffH
	DB	068H
	DB	04cH
	DB	00H
	DB	0ffH
	DB	068H
	DB	04cH
	DB	00H
	DB	0ffH
	DB	068H
	DB	04cH
	DB	00H
	DB	0ffH
	DB	068H
	DB	04cH
	DB	00H
	DB	0ffH
	DB	068H
	DB	04cH
	DB	00H
	DB	0ffH
	DB	068H
	DB	04cH
	DB	00H
	DB	0ffH
	DB	068H
	DB	04cH
	DB	00H
	DB	0ffH
	DB	068H
	DB	04cH
	DB	00H
	DB	0ffH
	DB	068H
	DB	04cH
	DB	00H
	DB	0ffH
	DB	068H
	DB	04cH
	DB	00H
	DB	0ffH
	DB	068H
	DB	04cH
	DB	00H
	DB	0ffH
	DB	068H
	DB	04cH
	DB	00H
	DB	0ffH
	DB	068H
	DB	04cH
	DB	00H
	DB	0ffH
	DB	068H
	DB	04cH
	DB	00H
	DB	0ffH
	DB	068H
	DB	04cH
	DB	00H
	DB	0ffH
	DB	068H
	DB	04cH
	DB	00H
	DB	0ffH
	DB	068H
	DB	04cH
	DB	00H
	DB	0ffH
	DB	068H
	DB	04cH
	DB	00H
	DB	0ffH
	DB	068H
	DB	04cH
	DB	00H
	DB	0ffH
	DB	068H
	DB	04cH
	DB	00H
	DB	0ffH
	DB	068H
	DB	04cH
	DB	00H
	DB	0ffH
	DB	068H
	DB	04cH
	DB	00H
	DB	0ffH
	DB	068H
	DB	04cH
	DB	00H
	DB	0ffH
	DB	068H
	DB	04cH
	DB	00H
	DB	0ffH
	DB	068H
	DB	04cH
	DB	00H
	DB	0ffH
	DB	068H
	DB	04cH
	DB	00H
	DB	0ffH
	DB	068H
	DB	04cH
	DB	00H
	DB	0ffH
	DB	068H
	DB	04cH
	DB	00H
	DB	0ffH
	DB	068H
	DB	04cH
	DB	00H
	DB	0ffH
	DB	068H
	DB	04cH
	DB	00H
	DB	0ffH
	DB	068H
	DB	04cH
	DB	00H
	DB	0ffH
	DB	068H
	DB	04cH
	DB	00H
	DB	0ffH
	DB	068H
	DB	04cH
	DB	00H
	DB	0ffH
	DB	068H
	DB	04cH
	DB	00H
	DB	0ffH
	DB	068H
	DB	04cH
	DB	00H
	DB	0ffH
	DB	068H
	DB	04cH
	DB	00H
	DB	0ffH
	DB	068H
	DB	04cH
	DB	00H
	DB	0ffH
	DB	068H
	DB	04cH
	DB	00H
	DB	0ffH
	DB	068H
	DB	04cH
	DB	00H
	DB	0ffH
	DB	068H
	DB	04cH
	DB	00H
	DB	0ffH
	DB	068H
	DB	04cH
	DB	00H
	DB	0ffH
	DB	068H
	DB	04cH
	DB	00H
	DB	0ffH
	DB	068H
	DB	04cH
	DB	00H
	DB	0ffH
	DB	068H
	DB	04cH
	DB	00H
	DB	0ffH
	DB	068H
	DB	04cH
	DB	00H
	DB	0ffH
	DB	068H
	DB	04cH
	DB	00H
	DB	0ffH
	DB	068H
	DB	04cH
	DB	00H
	DB	0ffH
	DB	068H
	DB	04cH
	DB	00H
	DB	0ffH
	DB	068H
	DB	04cH
	DB	00H
	DB	0ffH
	DB	068H
	DB	04cH
	DB	00H
	DB	0ffH
	DB	068H
	DB	04cH
	DB	00H
	DB	0ffH
	DB	068H
	DB	04cH
	DB	00H
	DB	0ffH
	DB	068H
	DB	04cH
	DB	00H
	DB	0ffH
	DB	068H
	DB	04cH
	DB	00H
	DB	0ffH
	DB	068H
	DB	04cH
	DB	00H
	DB	0ffH
	DB	068H
	DB	04cH
	DB	00H
	DB	0ffH
	DB	068H
	DB	04cH
	DB	00H
	DB	0ffH
	DB	068H
	DB	04cH
	DB	00H
	DB	0ffH
	DB	068H
	DB	04cH
	DB	00H
	DB	0ffH
	DB	068H
	DB	04cH
	DB	00H
	DB	0ffH
	DB	068H
	DB	04cH
	DB	00H
	DB	0ffH
	DB	068H
	DB	04cH
	DB	00H
	DB	0ffH
	DB	068H
	DB	04cH
	DB	00H
	DB	0ffH
	DB	068H
	DB	04cH
	DB	00H
	DB	0ffH
	DB	068H
	DB	04cH
	DB	00H
	DB	0ffH
	DB	068H
	DB	04cH
	DB	00H
	DB	0ffH
	DB	068H
	DB	04cH
	DB	00H
	DB	0ffH
	DB	068H
	DB	04cH
	DB	00H
	DB	0ffH
	DB	068H
	DB	04cH
	DB	00H
	DB	0ffH
	DB	068H
	DB	04cH
	DB	00H
	DB	0ffH
	DB	068H
	DB	04cH
	DB	00H
	DB	0ffH
	DB	068H
	DB	04cH
	DB	00H
	DB	0ffH
	DB	068H
	DB	04cH
	DB	00H
	DB	0ffH
	DB	068H
	DB	04cH
	DB	00H
	DB	0ffH
	DB	068H
	DB	04cH
	DB	00H
	DB	0ffH
	DB	068H
	DB	04cH
	DB	00H
	DB	0ffH
	DB	068H
	DB	04cH
	DB	00H
	DB	0ffH
	DB	068H
	DB	04cH
	DB	00H
	DB	0ffH
	DB	068H
	DB	04cH
	DB	00H
	DB	0ffH
	DB	068H
	DB	04cH
	DB	00H
	DB	0ffH
	DB	068H
	DB	04cH
	DB	00H
	DB	0ffH
	DB	068H
	DB	04cH
	DB	00H
	DB	0ffH
	DB	068H
	DB	04cH
	DB	00H
	DB	0ffH
	DB	068H
	DB	04cH
	DB	00H
	DB	0ffH
	DB	068H
	DB	04cH
	DB	00H
	DB	0ffH
	DB	068H
	DB	04cH
	DB	00H
	DB	0ffH
	DB	068H
	DB	04cH
	DB	00H
	DB	0ffH
	DB	068H
	DB	04cH
	DB	00H
	DB	0ffH
	DB	068H
	DB	04cH
	DB	00H
	DB	0ffH
	DB	068H
	DB	04cH
	DB	00H
	DB	0ffH
	DB	068H
	DB	04cH
	DB	00H
	DB	0ffH
	DB	068H
	DB	04cH
	DB	00H
	DB	0ffH
	DB	068H
	DB	04cH
	DB	00H
	DB	0ffH
	DB	068H
	DB	04cH
	DB	00H
	DB	0ffH
	DB	068H
	DB	04cH
	DB	00H
	DB	0ffH
	DB	068H
	DB	04cH
	DB	00H
	DB	0ffH
	DB	068H
	DB	04cH
	DB	00H
	DB	0ffH
	DB	060H
	DB	048H
	DB	00H
	DB	0ffH
	DB	060H
	DB	044H
	DB	00H
	DB	0ffH
	DB	058H
	DB	040H
	DB	00H
	DB	0cfH
	DB	050H
	DB	03cH
	DB	00H
	DB	01cH
	DB	00H
	DB	00H
	DB	00H
	DB	00H
	DB	00H
	DB	00H
	DB	00H
	DB	00H
	DB	00H
	DB	00H
	DB	00H
	DB	00H
	DB	00H
	DB	00H
	DB	00H
	DB	00H
	DB	00H
	DB	00H
	DB	00H
	DB	00H
	DB	00H
	DB	00H
	DB	00H
	DB	00H
	DB	00H
	DB	00H
	DB	00H
	DB	00H
	DB	00H
	DB	00H
	DB	00H
	DB	00H
	DB	00H
	DB	00H
	DB	00H
	DB	00H
	DB	00H
	DB	00H
	DB	00H
	DB	00H
	DB	00H
	DB	00H
	DB	00H
	DB	00H
	DB	050H
	DB	038H
	DB	00H
	DB	04H
	DB	058H
	DB	040H
	DB	00H
	DB	0cfH
	DB	060H
	DB	048H
	DB	00H
	DB	0ffH
	DB	068H
	DB	050H
	DB	00H
	DB	0ffH
	DB	070H
	DB	054H
	DB	00H
	DB	0ffH
	DB	078H
	DB	058H
	DB	00H
	DB	0ffH
	DB	078H
	DB	058H
	DB	00H
	DB	0ffH
	DB	078H
	DB	058H
	DB	00H
	DB	0ffH
	DB	078H
	DB	058H
	DB	00H
	DB	0ffH
	DB	078H
	DB	058H
	DB	00H
	DB	0ffH
	DB	078H
	DB	058H
	DB	00H
	DB	0ffH
	DB	078H
	DB	058H
	DB	00H
	DB	0ffH
	DB	078H
	DB	058H
	DB	00H
	DB	0ffH
	DB	078H
	DB	058H
	DB	00H
	DB	0ffH
	DB	078H
	DB	058H
	DB	00H
	DB	0ffH
	DB	078H
	DB	058H
	DB	00H
	DB	0ffH
	DB	078H
	DB	058H
	DB	00H
	DB	0ffH
	DB	078H
	DB	058H
	DB	00H
	DB	0ffH
	DB	078H
	DB	058H
	DB	00H
	DB	0ffH
	DB	078H
	DB	058H
	DB	00H
	DB	0ffH
	DB	078H
	DB	058H
	DB	00H
	DB	0ffH
	DB	078H
	DB	058H
	DB	00H
	DB	0ffH
	DB	078H
	DB	058H
	DB	00H
	DB	0ffH
	DB	078H
	DB	058H
	DB	00H
	DB	0ffH
	DB	078H
	DB	058H
	DB	00H
	DB	0ffH
	DB	078H
	DB	058H
	DB	00H
	DB	0ffH
	DB	078H
	DB	058H
	DB	00H
	DB	0ffH
	DB	078H
	DB	058H
	DB	00H
	DB	0ffH
	DB	078H
	DB	058H
	DB	00H
	DB	0ffH
	DB	078H
	DB	058H
	DB	00H
	DB	0ffH
	DB	078H
	DB	058H
	DB	00H
	DB	0ffH
	DB	078H
	DB	058H
	DB	00H
	DB	0ffH
	DB	078H
	DB	058H
	DB	00H
	DB	0ffH
	DB	078H
	DB	058H
	DB	00H
	DB	0ffH
	DB	078H
	DB	058H
	DB	00H
	DB	0ffH
	DB	078H
	DB	058H
	DB	00H
	DB	0ffH
	DB	078H
	DB	058H
	DB	00H
	DB	0ffH
	DB	078H
	DB	058H
	DB	00H
	DB	0ffH
	DB	078H
	DB	058H
	DB	00H
	DB	0ffH
	DB	078H
	DB	058H
	DB	00H
	DB	0ffH
	DB	078H
	DB	058H
	DB	00H
	DB	0ffH
	DB	078H
	DB	058H
	DB	00H
	DB	0ffH
	DB	078H
	DB	058H
	DB	00H
	DB	0ffH
	DB	078H
	DB	058H
	DB	00H
	DB	0ffH
	DB	078H
	DB	058H
	DB	00H
	DB	0ffH
	DB	078H
	DB	058H
	DB	00H
	DB	0ffH
	DB	078H
	DB	058H
	DB	00H
	DB	0ffH
	DB	078H
	DB	058H
	DB	00H
	DB	0ffH
	DB	078H
	DB	058H
	DB	00H
	DB	0ffH
	DB	078H
	DB	058H
	DB	00H
	DB	0ffH
	DB	078H
	DB	058H
	DB	00H
	DB	0ffH
	DB	078H
	DB	058H
	DB	00H
	DB	0ffH
	DB	078H
	DB	058H
	DB	00H
	DB	0ffH
	DB	078H
	DB	058H
	DB	00H
	DB	0ffH
	DB	078H
	DB	058H
	DB	00H
	DB	0ffH
	DB	078H
	DB	058H
	DB	00H
	DB	0ffH
	DB	078H
	DB	058H
	DB	00H
	DB	0ffH
	DB	078H
	DB	058H
	DB	00H
	DB	0ffH
	DB	078H
	DB	058H
	DB	00H
	DB	0ffH
	DB	078H
	DB	058H
	DB	00H
	DB	0ffH
	DB	078H
	DB	058H
	DB	00H
	DB	0ffH
	DB	078H
	DB	058H
	DB	00H
	DB	0ffH
	DB	078H
	DB	058H
	DB	00H
	DB	0ffH
	DB	078H
	DB	058H
	DB	00H
	DB	0ffH
	DB	078H
	DB	058H
	DB	00H
	DB	0ffH
	DB	078H
	DB	058H
	DB	00H
	DB	0ffH
	DB	078H
	DB	058H
	DB	00H
	DB	0ffH
	DB	078H
	DB	058H
	DB	00H
	DB	0ffH
	DB	078H
	DB	058H
	DB	00H
	DB	0ffH
	DB	078H
	DB	058H
	DB	00H
	DB	0ffH
	DB	078H
	DB	058H
	DB	00H
	DB	0ffH
	DB	078H
	DB	058H
	DB	00H
	DB	0ffH
	DB	078H
	DB	058H
	DB	00H
	DB	0ffH
	DB	078H
	DB	058H
	DB	00H
	DB	0ffH
	DB	078H
	DB	058H
	DB	00H
	DB	0ffH
	DB	078H
	DB	058H
	DB	00H
	DB	0ffH
	DB	078H
	DB	058H
	DB	00H
	DB	0ffH
	DB	078H
	DB	058H
	DB	00H
	DB	0ffH
	DB	078H
	DB	058H
	DB	00H
	DB	0ffH
	DB	078H
	DB	058H
	DB	00H
	DB	0ffH
	DB	078H
	DB	058H
	DB	00H
	DB	0ffH
	DB	078H
	DB	058H
	DB	00H
	DB	0ffH
	DB	078H
	DB	058H
	DB	00H
	DB	0ffH
	DB	078H
	DB	058H
	DB	00H
	DB	0ffH
	DB	078H
	DB	058H
	DB	00H
	DB	0ffH
	DB	078H
	DB	058H
	DB	00H
	DB	0ffH
	DB	078H
	DB	058H
	DB	00H
	DB	0ffH
	DB	078H
	DB	058H
	DB	00H
	DB	0ffH
	DB	078H
	DB	058H
	DB	00H
	DB	0ffH
	DB	078H
	DB	058H
	DB	00H
	DB	0ffH
	DB	078H
	DB	058H
	DB	00H
	DB	0ffH
	DB	078H
	DB	058H
	DB	00H
	DB	0ffH
	DB	078H
	DB	058H
	DB	00H
	DB	0ffH
	DB	078H
	DB	058H
	DB	00H
	DB	0ffH
	DB	078H
	DB	058H
	DB	00H
	DB	0ffH
	DB	078H
	DB	058H
	DB	00H
	DB	0ffH
	DB	078H
	DB	058H
	DB	00H
	DB	0ffH
	DB	078H
	DB	058H
	DB	00H
	DB	0ffH
	DB	078H
	DB	058H
	DB	00H
	DB	0ffH
	DB	078H
	DB	058H
	DB	00H
	DB	0ffH
	DB	078H
	DB	058H
	DB	00H
	DB	0ffH
	DB	078H
	DB	058H
	DB	00H
	DB	0ffH
	DB	078H
	DB	058H
	DB	00H
	DB	0ffH
	DB	078H
	DB	058H
	DB	00H
	DB	0ffH
	DB	078H
	DB	058H
	DB	00H
	DB	0ffH
	DB	078H
	DB	058H
	DB	00H
	DB	0ffH
	DB	078H
	DB	058H
	DB	00H
	DB	0ffH
	DB	078H
	DB	058H
	DB	00H
	DB	0ffH
	DB	078H
	DB	058H
	DB	00H
	DB	0ffH
	DB	078H
	DB	058H
	DB	00H
	DB	0ffH
	DB	078H
	DB	058H
	DB	00H
	DB	0ffH
	DB	078H
	DB	058H
	DB	00H
	DB	0ffH
	DB	078H
	DB	058H
	DB	00H
	DB	0ffH
	DB	078H
	DB	058H
	DB	00H
	DB	0ffH
	DB	078H
	DB	058H
	DB	00H
	DB	0ffH
	DB	078H
	DB	058H
	DB	00H
	DB	0ffH
	DB	078H
	DB	058H
	DB	00H
	DB	0ffH
	DB	078H
	DB	058H
	DB	00H
	DB	0ffH
	DB	078H
	DB	058H
	DB	00H
	DB	0ffH
	DB	078H
	DB	058H
	DB	00H
	DB	0ffH
	DB	078H
	DB	058H
	DB	00H
	DB	0ffH
	DB	078H
	DB	058H
	DB	00H
	DB	0ffH
	DB	078H
	DB	058H
	DB	00H
	DB	0ffH
	DB	078H
	DB	058H
	DB	00H
	DB	0ffH
	DB	078H
	DB	058H
	DB	00H
	DB	0ffH
	DB	078H
	DB	058H
	DB	00H
	DB	0ffH
	DB	078H
	DB	058H
	DB	00H
	DB	0ffH
	DB	078H
	DB	058H
	DB	00H
	DB	0ffH
	DB	078H
	DB	058H
	DB	00H
	DB	0ffH
	DB	078H
	DB	058H
	DB	00H
	DB	0ffH
	DB	078H
	DB	058H
	DB	00H
	DB	0ffH
	DB	078H
	DB	058H
	DB	00H
	DB	0ffH
	DB	078H
	DB	058H
	DB	00H
	DB	0ffH
	DB	078H
	DB	058H
	DB	00H
	DB	0ffH
	DB	078H
	DB	058H
	DB	00H
	DB	0ffH
	DB	078H
	DB	058H
	DB	00H
	DB	0ffH
	DB	078H
	DB	058H
	DB	00H
	DB	0ffH
	DB	078H
	DB	058H
	DB	00H
	DB	0ffH
	DB	078H
	DB	058H
	DB	00H
	DB	0ffH
	DB	078H
	DB	058H
	DB	00H
	DB	0ffH
	DB	078H
	DB	058H
	DB	00H
	DB	0ffH
	DB	078H
	DB	058H
	DB	00H
	DB	0ffH
	DB	078H
	DB	058H
	DB	00H
	DB	0ffH
	DB	078H
	DB	058H
	DB	00H
	DB	0ffH
	DB	078H
	DB	058H
	DB	00H
	DB	0ffH
	DB	078H
	DB	058H
	DB	00H
	DB	0ffH
	DB	078H
	DB	058H
	DB	00H
	DB	0ffH
	DB	078H
	DB	058H
	DB	00H
	DB	0ffH
	DB	078H
	DB	058H
	DB	00H
	DB	0ffH
	DB	078H
	DB	058H
	DB	00H
	DB	0ffH
	DB	078H
	DB	058H
	DB	00H
	DB	0ffH
	DB	078H
	DB	058H
	DB	00H
	DB	0ffH
	DB	078H
	DB	058H
	DB	00H
	DB	0ffH
	DB	078H
	DB	058H
	DB	00H
	DB	0ffH
	DB	078H
	DB	058H
	DB	00H
	DB	0ffH
	DB	070H
	DB	054H
	DB	00H
	DB	0ffH
	DB	068H
	DB	050H
	DB	00H
	DB	0ffH
	DB	060H
	DB	048H
	DB	00H
	DB	0ffH
	DB	058H
	DB	040H
	DB	00H
	DB	0cfH
	DB	050H
	DB	038H
	DB	00H
	DB	08H
	DB	00H
	DB	00H
	DB	00H
	DB	00H
	DB	00H
	DB	00H
	DB	00H
	DB	00H
	DB	00H
	DB	00H
	DB	00H
	DB	00H
	DB	00H
	DB	00H
	DB	00H
	DB	00H
	DB	00H
	DB	00H
	DB	00H
	DB	00H
	DB	00H
	DB	00H
	DB	00H
	DB	00H
	DB	00H
	DB	00H
	DB	00H
	DB	00H
	DB	00H
	DB	00H
	DB	00H
	DB	00H
	DB	00H
	DB	00H
	DB	00H
	DB	00H
	DB	00H
	DB	00H
	DB	00H
	DB	00H
	DB	050H
	DB	040H
	DB	00H
	DB	06dH
	DB	060H
	DB	048H
	DB	00H
	DB	0ffH
	DB	070H
	DB	050H
	DB	00H
	DB	0ffH
	DB	078H
	DB	058H
	DB	00H
	DB	0ffH
	DB	078H
	DB	05cH
	DB	00H
	DB	0ffH
	DB	078H
	DB	05cH
	DB	00H
	DB	0ffH
	DB	080H
	DB	05cH
	DB	00H
	DB	0ffH
	DB	080H
	DB	05cH
	DB	00H
	DB	0ffH
	DB	080H
	DB	05cH
	DB	00H
	DB	0ffH
	DB	080H
	DB	05cH
	DB	00H
	DB	0ffH
	DB	080H
	DB	05cH
	DB	00H
	DB	0ffH
	DB	080H
	DB	05cH
	DB	00H
	DB	0ffH
	DB	080H
	DB	05cH
	DB	00H
	DB	0ffH
	DB	080H
	DB	05cH
	DB	00H
	DB	0ffH
	DB	080H
	DB	05cH
	DB	00H
	DB	0ffH
	DB	080H
	DB	05cH
	DB	00H
	DB	0ffH
	DB	080H
	DB	05cH
	DB	00H
	DB	0ffH
	DB	080H
	DB	05cH
	DB	00H
	DB	0ffH
	DB	080H
	DB	05cH
	DB	00H
	DB	0ffH
	DB	080H
	DB	05cH
	DB	00H
	DB	0ffH
	DB	080H
	DB	05cH
	DB	00H
	DB	0ffH
	DB	080H
	DB	05cH
	DB	00H
	DB	0ffH
	DB	080H
	DB	05cH
	DB	00H
	DB	0ffH
	DB	080H
	DB	05cH
	DB	00H
	DB	0ffH
	DB	080H
	DB	05cH
	DB	00H
	DB	0ffH
	DB	080H
	DB	05cH
	DB	00H
	DB	0ffH
	DB	080H
	DB	05cH
	DB	00H
	DB	0ffH
	DB	080H
	DB	05cH
	DB	00H
	DB	0ffH
	DB	080H
	DB	05cH
	DB	00H
	DB	0ffH
	DB	080H
	DB	05cH
	DB	00H
	DB	0ffH
	DB	080H
	DB	05cH
	DB	00H
	DB	0ffH
	DB	080H
	DB	05cH
	DB	00H
	DB	0ffH
	DB	080H
	DB	05cH
	DB	00H
	DB	0ffH
	DB	080H
	DB	05cH
	DB	00H
	DB	0ffH
	DB	080H
	DB	05cH
	DB	00H
	DB	0ffH
	DB	080H
	DB	05cH
	DB	00H
	DB	0ffH
	DB	080H
	DB	05cH
	DB	00H
	DB	0ffH
	DB	080H
	DB	05cH
	DB	00H
	DB	0ffH
	DB	080H
	DB	05cH
	DB	00H
	DB	0ffH
	DB	080H
	DB	05cH
	DB	00H
	DB	0ffH
	DB	080H
	DB	05cH
	DB	00H
	DB	0ffH
	DB	080H
	DB	05cH
	DB	00H
	DB	0ffH
	DB	080H
	DB	05cH
	DB	00H
	DB	0ffH
	DB	080H
	DB	05cH
	DB	00H
	DB	0ffH
	DB	080H
	DB	05cH
	DB	00H
	DB	0ffH
	DB	080H
	DB	05cH
	DB	00H
	DB	0ffH
	DB	080H
	DB	05cH
	DB	00H
	DB	0ffH
	DB	080H
	DB	05cH
	DB	00H
	DB	0ffH
	DB	080H
	DB	05cH
	DB	00H
	DB	0ffH
	DB	080H
	DB	05cH
	DB	00H
	DB	0ffH
	DB	080H
	DB	05cH
	DB	00H
	DB	0ffH
	DB	080H
	DB	05cH
	DB	00H
	DB	0ffH
	DB	080H
	DB	05cH
	DB	00H
	DB	0ffH
	DB	080H
	DB	05cH
	DB	00H
	DB	0ffH
	DB	080H
	DB	05cH
	DB	00H
	DB	0ffH
	DB	080H
	DB	05cH
	DB	00H
	DB	0ffH
	DB	080H
	DB	05cH
	DB	00H
	DB	0ffH
	DB	080H
	DB	05cH
	DB	00H
	DB	0ffH
	DB	080H
	DB	05cH
	DB	00H
	DB	0ffH
	DB	080H
	DB	05cH
	DB	00H
	DB	0ffH
	DB	080H
	DB	05cH
	DB	00H
	DB	0ffH
	DB	080H
	DB	05cH
	DB	00H
	DB	0ffH
	DB	080H
	DB	05cH
	DB	00H
	DB	0ffH
	DB	080H
	DB	05cH
	DB	00H
	DB	0ffH
	DB	080H
	DB	05cH
	DB	00H
	DB	0ffH
	DB	080H
	DB	05cH
	DB	00H
	DB	0ffH
	DB	080H
	DB	05cH
	DB	00H
	DB	0ffH
	DB	080H
	DB	05cH
	DB	00H
	DB	0ffH
	DB	080H
	DB	05cH
	DB	00H
	DB	0ffH
	DB	080H
	DB	05cH
	DB	00H
	DB	0ffH
	DB	080H
	DB	05cH
	DB	00H
	DB	0ffH
	DB	080H
	DB	05cH
	DB	00H
	DB	0ffH
	DB	080H
	DB	05cH
	DB	00H
	DB	0ffH
	DB	080H
	DB	05cH
	DB	00H
	DB	0ffH
	DB	080H
	DB	05cH
	DB	00H
	DB	0ffH
	DB	080H
	DB	05cH
	DB	00H
	DB	0ffH
	DB	080H
	DB	05cH
	DB	00H
	DB	0ffH
	DB	080H
	DB	05cH
	DB	00H
	DB	0ffH
	DB	080H
	DB	05cH
	DB	00H
	DB	0ffH
	DB	080H
	DB	05cH
	DB	00H
	DB	0ffH
	DB	080H
	DB	05cH
	DB	00H
	DB	0ffH
	DB	080H
	DB	05cH
	DB	00H
	DB	0ffH
	DB	080H
	DB	05cH
	DB	00H
	DB	0ffH
	DB	080H
	DB	05cH
	DB	00H
	DB	0ffH
	DB	080H
	DB	05cH
	DB	00H
	DB	0ffH
	DB	080H
	DB	05cH
	DB	00H
	DB	0ffH
	DB	080H
	DB	05cH
	DB	00H
	DB	0ffH
	DB	080H
	DB	05cH
	DB	00H
	DB	0ffH
	DB	080H
	DB	05cH
	DB	00H
	DB	0ffH
	DB	080H
	DB	05cH
	DB	00H
	DB	0ffH
	DB	080H
	DB	05cH
	DB	00H
	DB	0ffH
	DB	080H
	DB	05cH
	DB	00H
	DB	0ffH
	DB	080H
	DB	05cH
	DB	00H
	DB	0ffH
	DB	080H
	DB	05cH
	DB	00H
	DB	0ffH
	DB	080H
	DB	05cH
	DB	00H
	DB	0ffH
	DB	080H
	DB	05cH
	DB	00H
	DB	0ffH
	DB	080H
	DB	05cH
	DB	00H
	DB	0ffH
	DB	080H
	DB	05cH
	DB	00H
	DB	0ffH
	DB	080H
	DB	05cH
	DB	00H
	DB	0ffH
	DB	080H
	DB	05cH
	DB	00H
	DB	0ffH
	DB	080H
	DB	05cH
	DB	00H
	DB	0ffH
	DB	080H
	DB	05cH
	DB	00H
	DB	0ffH
	DB	080H
	DB	05cH
	DB	00H
	DB	0ffH
	DB	080H
	DB	05cH
	DB	00H
	DB	0ffH
	DB	080H
	DB	05cH
	DB	00H
	DB	0ffH
	DB	080H
	DB	05cH
	DB	00H
	DB	0ffH
	DB	080H
	DB	05cH
	DB	00H
	DB	0ffH
	DB	080H
	DB	05cH
	DB	00H
	DB	0ffH
	DB	080H
	DB	05cH
	DB	00H
	DB	0ffH
	DB	080H
	DB	05cH
	DB	00H
	DB	0ffH
	DB	080H
	DB	05cH
	DB	00H
	DB	0ffH
	DB	080H
	DB	05cH
	DB	00H
	DB	0ffH
	DB	080H
	DB	05cH
	DB	00H
	DB	0ffH
	DB	080H
	DB	05cH
	DB	00H
	DB	0ffH
	DB	080H
	DB	05cH
	DB	00H
	DB	0ffH
	DB	080H
	DB	05cH
	DB	00H
	DB	0ffH
	DB	080H
	DB	05cH
	DB	00H
	DB	0ffH
	DB	080H
	DB	05cH
	DB	00H
	DB	0ffH
	DB	080H
	DB	05cH
	DB	00H
	DB	0ffH
	DB	080H
	DB	05cH
	DB	00H
	DB	0ffH
	DB	080H
	DB	05cH
	DB	00H
	DB	0ffH
	DB	080H
	DB	05cH
	DB	00H
	DB	0ffH
	DB	080H
	DB	05cH
	DB	00H
	DB	0ffH
	DB	080H
	DB	05cH
	DB	00H
	DB	0ffH
	DB	080H
	DB	05cH
	DB	00H
	DB	0ffH
	DB	080H
	DB	05cH
	DB	00H
	DB	0ffH
	DB	080H
	DB	05cH
	DB	00H
	DB	0ffH
	DB	080H
	DB	05cH
	DB	00H
	DB	0ffH
	DB	080H
	DB	05cH
	DB	00H
	DB	0ffH
	DB	080H
	DB	05cH
	DB	00H
	DB	0ffH
	DB	080H
	DB	05cH
	DB	00H
	DB	0ffH
	DB	080H
	DB	05cH
	DB	00H
	DB	0ffH
	DB	080H
	DB	05cH
	DB	00H
	DB	0ffH
	DB	080H
	DB	05cH
	DB	00H
	DB	0ffH
	DB	080H
	DB	05cH
	DB	00H
	DB	0ffH
	DB	080H
	DB	05cH
	DB	00H
	DB	0ffH
	DB	080H
	DB	05cH
	DB	00H
	DB	0ffH
	DB	080H
	DB	05cH
	DB	00H
	DB	0ffH
	DB	080H
	DB	05cH
	DB	00H
	DB	0ffH
	DB	080H
	DB	05cH
	DB	00H
	DB	0ffH
	DB	080H
	DB	05cH
	DB	00H
	DB	0ffH
	DB	080H
	DB	05cH
	DB	00H
	DB	0ffH
	DB	080H
	DB	05cH
	DB	00H
	DB	0ffH
	DB	080H
	DB	05cH
	DB	00H
	DB	0ffH
	DB	080H
	DB	05cH
	DB	00H
	DB	0ffH
	DB	080H
	DB	05cH
	DB	00H
	DB	0ffH
	DB	080H
	DB	05cH
	DB	00H
	DB	0ffH
	DB	080H
	DB	05cH
	DB	00H
	DB	0ffH
	DB	080H
	DB	05cH
	DB	00H
	DB	0ffH
	DB	080H
	DB	05cH
	DB	00H
	DB	0ffH
	DB	080H
	DB	05cH
	DB	00H
	DB	0ffH
	DB	080H
	DB	05cH
	DB	00H
	DB	0ffH
	DB	080H
	DB	05cH
	DB	00H
	DB	0ffH
	DB	078H
	DB	05cH
	DB	00H
	DB	0ffH
	DB	078H
	DB	05cH
	DB	00H
	DB	0ffH
	DB	078H
	DB	05cH
	DB	00H
	DB	0ffH
	DB	078H
	DB	058H
	DB	00H
	DB	0ffH
	DB	070H
	DB	050H
	DB	00H
	DB	0ffH
	DB	060H
	DB	048H
	DB	00H
	DB	0ffH
	DB	058H
	DB	040H
	DB	08H
	DB	06dH
	DB	00H
	DB	00H
	DB	00H
	DB	00H
	DB	00H
	DB	00H
	DB	00H
	DB	00H
	DB	00H
	DB	00H
	DB	00H
	DB	00H
	DB	00H
	DB	00H
	DB	00H
	DB	00H
	DB	00H
	DB	00H
	DB	00H
	DB	00H
	DB	00H
	DB	00H
	DB	00H
	DB	00H
	DB	00H
	DB	00H
	DB	00H
	DB	00H
	DB	00H
	DB	00H
	DB	00H
	DB	00H
	DB	00H
	DB	00H
	DB	00H
	DB	00H
	DB	00H
	DB	00H
	DB	00H
	DB	00H
	DB	060H
	DB	048H
	DB	08H
	DB	0cbH
	DB	068H
	DB	050H
	DB	00H
	DB	0ffH
	DB	078H
	DB	058H
	DB	00H
	DB	0ffH
	DB	080H
	DB	05cH
	DB	00H
	DB	0ffH
	DB	080H
	DB	060H
	DB	08H
	DB	0ffH
	DB	080H
	DB	060H
	DB	00H
	DB	0ffH
	DB	080H
	DB	060H
	DB	00H
	DB	0ffH
	DB	080H
	DB	060H
	DB	08H
	DB	0ffH
	DB	080H
	DB	060H
	DB	00H
	DB	0ffH
	DB	080H
	DB	060H
	DB	00H
	DB	0ffH
	DB	080H
	DB	060H
	DB	08H
	DB	0ffH
	DB	080H
	DB	060H
	DB	00H
	DB	0ffH
	DB	080H
	DB	060H
	DB	00H
	DB	0ffH
	DB	080H
	DB	060H
	DB	08H
	DB	0ffH
	DB	080H
	DB	060H
	DB	00H
	DB	0ffH
	DB	080H
	DB	060H
	DB	00H
	DB	0ffH
	DB	080H
	DB	060H
	DB	08H
	DB	0ffH
	DB	080H
	DB	060H
	DB	00H
	DB	0ffH
	DB	080H
	DB	060H
	DB	00H
	DB	0ffH
	DB	080H
	DB	060H
	DB	08H
	DB	0ffH
	DB	080H
	DB	060H
	DB	00H
	DB	0ffH
	DB	080H
	DB	060H
	DB	00H
	DB	0ffH
	DB	080H
	DB	060H
	DB	08H
	DB	0ffH
	DB	080H
	DB	060H
	DB	00H
	DB	0ffH
	DB	080H
	DB	060H
	DB	00H
	DB	0ffH
	DB	080H
	DB	060H
	DB	08H
	DB	0ffH
	DB	080H
	DB	060H
	DB	00H
	DB	0ffH
	DB	080H
	DB	060H
	DB	00H
	DB	0ffH
	DB	080H
	DB	060H
	DB	08H
	DB	0ffH
	DB	080H
	DB	060H
	DB	00H
	DB	0ffH
	DB	080H
	DB	060H
	DB	00H
	DB	0ffH
	DB	080H
	DB	060H
	DB	08H
	DB	0ffH
	DB	080H
	DB	060H
	DB	00H
	DB	0ffH
	DB	080H
	DB	060H
	DB	00H
	DB	0ffH
	DB	080H
	DB	060H
	DB	08H
	DB	0ffH
	DB	080H
	DB	060H
	DB	00H
	DB	0ffH
	DB	080H
	DB	060H
	DB	00H
	DB	0ffH
	DB	080H
	DB	060H
	DB	08H
	DB	0ffH
	DB	080H
	DB	060H
	DB	00H
	DB	0ffH
	DB	080H
	DB	060H
	DB	00H
	DB	0ffH
	DB	080H
	DB	060H
	DB	08H
	DB	0ffH
	DB	080H
	DB	060H
	DB	00H
	DB	0ffH
	DB	080H
	DB	060H
	DB	00H
	DB	0ffH
	DB	080H
	DB	060H
	DB	08H
	DB	0ffH
	DB	080H
	DB	060H
	DB	00H
	DB	0ffH
	DB	080H
	DB	060H
	DB	00H
	DB	0ffH
	DB	080H
	DB	060H
	DB	08H
	DB	0ffH
	DB	080H
	DB	060H
	DB	00H
	DB	0ffH
	DB	080H
	DB	060H
	DB	00H
	DB	0ffH
	DB	080H
	DB	060H
	DB	08H
	DB	0ffH
	DB	080H
	DB	060H
	DB	00H
	DB	0ffH
	DB	080H
	DB	060H
	DB	00H
	DB	0ffH
	DB	080H
	DB	060H
	DB	08H
	DB	0ffH
	DB	080H
	DB	060H
	DB	00H
	DB	0ffH
	DB	080H
	DB	060H
	DB	00H
	DB	0ffH
	DB	080H
	DB	060H
	DB	08H
	DB	0ffH
	DB	080H
	DB	060H
	DB	00H
	DB	0ffH
	DB	080H
	DB	060H
	DB	00H
	DB	0ffH
	DB	080H
	DB	060H
	DB	08H
	DB	0ffH
	DB	080H
	DB	060H
	DB	00H
	DB	0ffH
	DB	080H
	DB	060H
	DB	00H
	DB	0ffH
	DB	080H
	DB	060H
	DB	08H
	DB	0ffH
	DB	080H
	DB	060H
	DB	00H
	DB	0ffH
	DB	080H
	DB	060H
	DB	00H
	DB	0ffH
	DB	080H
	DB	060H
	DB	08H
	DB	0ffH
	DB	080H
	DB	060H
	DB	00H
	DB	0ffH
	DB	080H
	DB	060H
	DB	00H
	DB	0ffH
	DB	080H
	DB	060H
	DB	08H
	DB	0ffH
	DB	080H
	DB	060H
	DB	00H
	DB	0ffH
	DB	080H
	DB	060H
	DB	00H
	DB	0ffH
	DB	080H
	DB	060H
	DB	08H
	DB	0ffH
	DB	080H
	DB	060H
	DB	00H
	DB	0ffH
	DB	080H
	DB	060H
	DB	00H
	DB	0ffH
	DB	080H
	DB	060H
	DB	08H
	DB	0ffH
	DB	080H
	DB	060H
	DB	00H
	DB	0ffH
	DB	080H
	DB	060H
	DB	00H
	DB	0ffH
	DB	080H
	DB	060H
	DB	08H
	DB	0ffH
	DB	080H
	DB	060H
	DB	00H
	DB	0ffH
	DB	080H
	DB	060H
	DB	00H
	DB	0ffH
	DB	080H
	DB	060H
	DB	08H
	DB	0ffH
	DB	080H
	DB	060H
	DB	00H
	DB	0ffH
	DB	080H
	DB	060H
	DB	00H
	DB	0ffH
	DB	080H
	DB	060H
	DB	08H
	DB	0ffH
	DB	080H
	DB	060H
	DB	00H
	DB	0ffH
	DB	080H
	DB	060H
	DB	00H
	DB	0ffH
	DB	080H
	DB	060H
	DB	08H
	DB	0ffH
	DB	080H
	DB	060H
	DB	00H
	DB	0ffH
	DB	080H
	DB	060H
	DB	00H
	DB	0ffH
	DB	080H
	DB	060H
	DB	08H
	DB	0ffH
	DB	080H
	DB	060H
	DB	00H
	DB	0ffH
	DB	080H
	DB	060H
	DB	00H
	DB	0ffH
	DB	080H
	DB	060H
	DB	08H
	DB	0ffH
	DB	080H
	DB	060H
	DB	00H
	DB	0ffH
	DB	080H
	DB	060H
	DB	00H
	DB	0ffH
	DB	080H
	DB	060H
	DB	08H
	DB	0ffH
	DB	080H
	DB	060H
	DB	00H
	DB	0ffH
	DB	080H
	DB	060H
	DB	00H
	DB	0ffH
	DB	080H
	DB	060H
	DB	08H
	DB	0ffH
	DB	080H
	DB	060H
	DB	00H
	DB	0ffH
	DB	080H
	DB	060H
	DB	00H
	DB	0ffH
	DB	080H
	DB	060H
	DB	08H
	DB	0ffH
	DB	080H
	DB	060H
	DB	00H
	DB	0ffH
	DB	080H
	DB	060H
	DB	00H
	DB	0ffH
	DB	080H
	DB	060H
	DB	08H
	DB	0ffH
	DB	080H
	DB	060H
	DB	00H
	DB	0ffH
	DB	080H
	DB	060H
	DB	00H
	DB	0ffH
	DB	080H
	DB	060H
	DB	08H
	DB	0ffH
	DB	080H
	DB	060H
	DB	00H
	DB	0ffH
	DB	080H
	DB	060H
	DB	00H
	DB	0ffH
	DB	080H
	DB	060H
	DB	08H
	DB	0ffH
	DB	080H
	DB	060H
	DB	00H
	DB	0ffH
	DB	080H
	DB	060H
	DB	00H
	DB	0ffH
	DB	080H
	DB	060H
	DB	08H
	DB	0ffH
	DB	080H
	DB	060H
	DB	00H
	DB	0ffH
	DB	080H
	DB	060H
	DB	00H
	DB	0ffH
	DB	080H
	DB	060H
	DB	08H
	DB	0ffH
	DB	080H
	DB	060H
	DB	00H
	DB	0ffH
	DB	080H
	DB	060H
	DB	00H
	DB	0ffH
	DB	080H
	DB	060H
	DB	08H
	DB	0ffH
	DB	080H
	DB	060H
	DB	00H
	DB	0ffH
	DB	080H
	DB	060H
	DB	00H
	DB	0ffH
	DB	080H
	DB	060H
	DB	08H
	DB	0ffH
	DB	080H
	DB	060H
	DB	00H
	DB	0ffH
	DB	080H
	DB	060H
	DB	00H
	DB	0ffH
	DB	080H
	DB	060H
	DB	08H
	DB	0ffH
	DB	080H
	DB	060H
	DB	00H
	DB	0ffH
	DB	080H
	DB	060H
	DB	00H
	DB	0ffH
	DB	080H
	DB	060H
	DB	08H
	DB	0ffH
	DB	080H
	DB	060H
	DB	00H
	DB	0ffH
	DB	080H
	DB	060H
	DB	00H
	DB	0ffH
	DB	080H
	DB	060H
	DB	08H
	DB	0ffH
	DB	080H
	DB	060H
	DB	00H
	DB	0ffH
	DB	080H
	DB	060H
	DB	00H
	DB	0ffH
	DB	080H
	DB	060H
	DB	08H
	DB	0ffH
	DB	080H
	DB	060H
	DB	00H
	DB	0ffH
	DB	080H
	DB	060H
	DB	00H
	DB	0ffH
	DB	080H
	DB	060H
	DB	08H
	DB	0ffH
	DB	080H
	DB	060H
	DB	00H
	DB	0ffH
	DB	080H
	DB	060H
	DB	00H
	DB	0ffH
	DB	080H
	DB	060H
	DB	08H
	DB	0ffH
	DB	080H
	DB	060H
	DB	00H
	DB	0ffH
	DB	080H
	DB	060H
	DB	00H
	DB	0ffH
	DB	080H
	DB	060H
	DB	08H
	DB	0ffH
	DB	080H
	DB	060H
	DB	00H
	DB	0ffH
	DB	080H
	DB	060H
	DB	00H
	DB	0ffH
	DB	080H
	DB	060H
	DB	08H
	DB	0ffH
	DB	080H
	DB	060H
	DB	00H
	DB	0ffH
	DB	080H
	DB	060H
	DB	00H
	DB	0ffH
	DB	080H
	DB	060H
	DB	08H
	DB	0ffH
	DB	080H
	DB	060H
	DB	00H
	DB	0ffH
	DB	080H
	DB	060H
	DB	00H
	DB	0ffH
	DB	080H
	DB	060H
	DB	08H
	DB	0ffH
	DB	080H
	DB	060H
	DB	00H
	DB	0ffH
	DB	080H
	DB	060H
	DB	00H
	DB	0ffH
	DB	080H
	DB	060H
	DB	08H
	DB	0ffH
	DB	080H
	DB	060H
	DB	00H
	DB	0ffH
	DB	080H
	DB	05cH
	DB	00H
	DB	0ffH
	DB	078H
	DB	058H
	DB	00H
	DB	0ffH
	DB	068H
	DB	050H
	DB	00H
	DB	0ffH
	DB	060H
	DB	048H
	DB	08H
	DB	0cbH
	DB	00H
	DB	00H
	DB	00H
	DB	00H
	DB	00H
	DB	00H
	DB	00H
	DB	00H
	DB	00H
	DB	00H
	DB	00H
	DB	00H
	DB	00H
	DB	00H
	DB	00H
	DB	00H
	DB	00H
	DB	00H
	DB	00H
	DB	00H
	DB	00H
	DB	00H
	DB	00H
	DB	00H
	DB	00H
	DB	00H
	DB	00H
	DB	00H
	DB	00H
	DB	00H
	DB	00H
	DB	00H
	DB	00H
	DB	00H
	DB	00H
	DB	00H
	DB	00H
	DB	00H
	DB	00H
	DB	00H
	DB	060H
	DB	048H
	DB	00H
	DB	0fbH
	DB	070H
	DB	054H
	DB	00H
	DB	0ffH
	DB	080H
	DB	05cH
	DB	00H
	DB	0ffH
	DB	080H
	DB	060H
	DB	00H
	DB	0ffH
	DB	080H
	DB	060H
	DB	00H
	DB	0ffH
	DB	088H
	DB	060H
	DB	00H
	DB	0ffH
	DB	088H
	DB	064H
	DB	00H
	DB	0ffH
	DB	080H
	DB	064H
	DB	00H
	DB	0ffH
	DB	088H
	DB	064H
	DB	00H
	DB	0ffH
	DB	088H
	DB	064H
	DB	00H
	DB	0ffH
	DB	080H
	DB	064H
	DB	00H
	DB	0ffH
	DB	088H
	DB	064H
	DB	00H
	DB	0ffH
	DB	088H
	DB	064H
	DB	00H
	DB	0ffH
	DB	088H
	DB	064H
	DB	00H
	DB	0ffH
	DB	088H
	DB	064H
	DB	00H
	DB	0ffH
	DB	080H
	DB	064H
	DB	00H
	DB	0ffH
	DB	088H
	DB	064H
	DB	00H
	DB	0ffH
	DB	088H
	DB	064H
	DB	00H
	DB	0ffH
	DB	088H
	DB	064H
	DB	00H
	DB	0ffH
	DB	088H
	DB	064H
	DB	00H
	DB	0ffH
	DB	088H
	DB	064H
	DB	00H
	DB	0ffH
	DB	088H
	DB	064H
	DB	00H
	DB	0ffH
	DB	088H
	DB	064H
	DB	00H
	DB	0ffH
	DB	080H
	DB	064H
	DB	00H
	DB	0ffH
	DB	088H
	DB	064H
	DB	00H
	DB	0ffH
	DB	088H
	DB	064H
	DB	00H
	DB	0ffH
	DB	088H
	DB	064H
	DB	00H
	DB	0ffH
	DB	088H
	DB	064H
	DB	00H
	DB	0ffH
	DB	088H
	DB	064H
	DB	00H
	DB	0ffH
	DB	088H
	DB	064H
	DB	00H
	DB	0ffH
	DB	088H
	DB	064H
	DB	00H
	DB	0ffH
	DB	080H
	DB	064H
	DB	00H
	DB	0ffH
	DB	088H
	DB	064H
	DB	00H
	DB	0ffH
	DB	088H
	DB	064H
	DB	00H
	DB	0ffH
	DB	088H
	DB	064H
	DB	00H
	DB	0ffH
	DB	088H
	DB	064H
	DB	00H
	DB	0ffH
	DB	088H
	DB	064H
	DB	00H
	DB	0ffH
	DB	088H
	DB	064H
	DB	00H
	DB	0ffH
	DB	088H
	DB	064H
	DB	00H
	DB	0ffH
	DB	080H
	DB	064H
	DB	00H
	DB	0ffH
	DB	088H
	DB	064H
	DB	00H
	DB	0ffH
	DB	088H
	DB	064H
	DB	00H
	DB	0ffH
	DB	088H
	DB	064H
	DB	00H
	DB	0ffH
	DB	088H
	DB	064H
	DB	00H
	DB	0ffH
	DB	088H
	DB	064H
	DB	00H
	DB	0ffH
	DB	088H
	DB	064H
	DB	00H
	DB	0ffH
	DB	088H
	DB	064H
	DB	00H
	DB	0ffH
	DB	080H
	DB	064H
	DB	00H
	DB	0ffH
	DB	088H
	DB	064H
	DB	00H
	DB	0ffH
	DB	088H
	DB	064H
	DB	00H
	DB	0ffH
	DB	088H
	DB	064H
	DB	00H
	DB	0ffH
	DB	088H
	DB	064H
	DB	00H
	DB	0ffH
	DB	088H
	DB	064H
	DB	00H
	DB	0ffH
	DB	088H
	DB	064H
	DB	00H
	DB	0ffH
	DB	088H
	DB	064H
	DB	00H
	DB	0ffH
	DB	080H
	DB	064H
	DB	00H
	DB	0ffH
	DB	088H
	DB	064H
	DB	00H
	DB	0ffH
	DB	088H
	DB	064H
	DB	00H
	DB	0ffH
	DB	088H
	DB	064H
	DB	00H
	DB	0ffH
	DB	088H
	DB	064H
	DB	00H
	DB	0ffH
	DB	088H
	DB	064H
	DB	00H
	DB	0ffH
	DB	088H
	DB	064H
	DB	00H
	DB	0ffH
	DB	088H
	DB	064H
	DB	00H
	DB	0ffH
	DB	080H
	DB	064H
	DB	00H
	DB	0ffH
	DB	088H
	DB	064H
	DB	00H
	DB	0ffH
	DB	088H
	DB	064H
	DB	00H
	DB	0ffH
	DB	088H
	DB	064H
	DB	00H
	DB	0ffH
	DB	088H
	DB	064H
	DB	00H
	DB	0ffH
	DB	088H
	DB	064H
	DB	00H
	DB	0ffH
	DB	088H
	DB	064H
	DB	00H
	DB	0ffH
	DB	088H
	DB	064H
	DB	00H
	DB	0ffH
	DB	080H
	DB	064H
	DB	00H
	DB	0ffH
	DB	088H
	DB	064H
	DB	00H
	DB	0ffH
	DB	088H
	DB	064H
	DB	00H
	DB	0ffH
	DB	088H
	DB	064H
	DB	00H
	DB	0ffH
	DB	088H
	DB	064H
	DB	00H
	DB	0ffH
	DB	088H
	DB	064H
	DB	00H
	DB	0ffH
	DB	088H
	DB	064H
	DB	00H
	DB	0ffH
	DB	088H
	DB	064H
	DB	00H
	DB	0ffH
	DB	080H
	DB	064H
	DB	00H
	DB	0ffH
	DB	088H
	DB	064H
	DB	00H
	DB	0ffH
	DB	088H
	DB	064H
	DB	00H
	DB	0ffH
	DB	088H
	DB	064H
	DB	00H
	DB	0ffH
	DB	088H
	DB	064H
	DB	00H
	DB	0ffH
	DB	088H
	DB	064H
	DB	00H
	DB	0ffH
	DB	088H
	DB	064H
	DB	00H
	DB	0ffH
	DB	088H
	DB	064H
	DB	00H
	DB	0ffH
	DB	080H
	DB	064H
	DB	00H
	DB	0ffH
	DB	088H
	DB	064H
	DB	00H
	DB	0ffH
	DB	088H
	DB	064H
	DB	00H
	DB	0ffH
	DB	088H
	DB	064H
	DB	00H
	DB	0ffH
	DB	088H
	DB	064H
	DB	00H
	DB	0ffH
	DB	088H
	DB	064H
	DB	00H
	DB	0ffH
	DB	088H
	DB	064H
	DB	00H
	DB	0ffH
	DB	088H
	DB	064H
	DB	00H
	DB	0ffH
	DB	080H
	DB	064H
	DB	00H
	DB	0ffH
	DB	088H
	DB	064H
	DB	00H
	DB	0ffH
	DB	088H
	DB	064H
	DB	00H
	DB	0ffH
	DB	088H
	DB	064H
	DB	00H
	DB	0ffH
	DB	088H
	DB	064H
	DB	00H
	DB	0ffH
	DB	088H
	DB	064H
	DB	00H
	DB	0ffH
	DB	088H
	DB	064H
	DB	00H
	DB	0ffH
	DB	088H
	DB	064H
	DB	00H
	DB	0ffH
	DB	080H
	DB	064H
	DB	00H
	DB	0ffH
	DB	088H
	DB	064H
	DB	00H
	DB	0ffH
	DB	088H
	DB	064H
	DB	00H
	DB	0ffH
	DB	088H
	DB	064H
	DB	00H
	DB	0ffH
	DB	088H
	DB	064H
	DB	00H
	DB	0ffH
	DB	088H
	DB	064H
	DB	00H
	DB	0ffH
	DB	088H
	DB	064H
	DB	00H
	DB	0ffH
	DB	088H
	DB	064H
	DB	00H
	DB	0ffH
	DB	080H
	DB	064H
	DB	00H
	DB	0ffH
	DB	088H
	DB	064H
	DB	00H
	DB	0ffH
	DB	088H
	DB	064H
	DB	00H
	DB	0ffH
	DB	088H
	DB	064H
	DB	00H
	DB	0ffH
	DB	088H
	DB	064H
	DB	00H
	DB	0ffH
	DB	088H
	DB	064H
	DB	00H
	DB	0ffH
	DB	088H
	DB	064H
	DB	00H
	DB	0ffH
	DB	088H
	DB	064H
	DB	00H
	DB	0ffH
	DB	080H
	DB	064H
	DB	00H
	DB	0ffH
	DB	088H
	DB	064H
	DB	00H
	DB	0ffH
	DB	088H
	DB	064H
	DB	00H
	DB	0ffH
	DB	088H
	DB	064H
	DB	00H
	DB	0ffH
	DB	088H
	DB	064H
	DB	00H
	DB	0ffH
	DB	088H
	DB	064H
	DB	00H
	DB	0ffH
	DB	088H
	DB	064H
	DB	00H
	DB	0ffH
	DB	088H
	DB	064H
	DB	00H
	DB	0ffH
	DB	080H
	DB	064H
	DB	00H
	DB	0ffH
	DB	088H
	DB	064H
	DB	00H
	DB	0ffH
	DB	088H
	DB	064H
	DB	00H
	DB	0ffH
	DB	088H
	DB	064H
	DB	00H
	DB	0ffH
	DB	088H
	DB	064H
	DB	00H
	DB	0ffH
	DB	088H
	DB	064H
	DB	00H
	DB	0ffH
	DB	088H
	DB	064H
	DB	00H
	DB	0ffH
	DB	088H
	DB	064H
	DB	00H
	DB	0ffH
	DB	080H
	DB	064H
	DB	00H
	DB	0ffH
	DB	088H
	DB	064H
	DB	00H
	DB	0ffH
	DB	088H
	DB	064H
	DB	00H
	DB	0ffH
	DB	088H
	DB	064H
	DB	00H
	DB	0ffH
	DB	088H
	DB	064H
	DB	00H
	DB	0ffH
	DB	088H
	DB	064H
	DB	00H
	DB	0ffH
	DB	088H
	DB	064H
	DB	00H
	DB	0ffH
	DB	088H
	DB	064H
	DB	00H
	DB	0ffH
	DB	080H
	DB	064H
	DB	00H
	DB	0ffH
	DB	088H
	DB	064H
	DB	00H
	DB	0ffH
	DB	088H
	DB	064H
	DB	00H
	DB	0ffH
	DB	088H
	DB	064H
	DB	00H
	DB	0ffH
	DB	088H
	DB	064H
	DB	00H
	DB	0ffH
	DB	088H
	DB	064H
	DB	00H
	DB	0ffH
	DB	080H
	DB	064H
	DB	00H
	DB	0ffH
	DB	088H
	DB	064H
	DB	00H
	DB	0ffH
	DB	088H
	DB	064H
	DB	00H
	DB	0ffH
	DB	088H
	DB	064H
	DB	00H
	DB	0ffH
	DB	088H
	DB	060H
	DB	00H
	DB	0ffH
	DB	088H
	DB	060H
	DB	00H
	DB	0ffH
	DB	080H
	DB	060H
	DB	00H
	DB	0ffH
	DB	080H
	DB	060H
	DB	08H
	DB	0ffH
	DB	080H
	DB	05cH
	DB	00H
	DB	0ffH
	DB	070H
	DB	054H
	DB	00H
	DB	0ffH
	DB	060H
	DB	048H
	DB	00H
	DB	0fbH
	DB	00H
	DB	00H
	DB	00H
	DB	00H
	DB	00H
	DB	00H
	DB	00H
	DB	00H
	DB	00H
	DB	00H
	DB	00H
	DB	00H
	DB	00H
	DB	00H
	DB	00H
	DB	00H
	DB	00H
	DB	00H
	DB	00H
	DB	00H
	DB	00H
	DB	00H
	DB	00H
	DB	00H
	DB	00H
	DB	00H
	DB	00H
	DB	00H
	DB	00H
	DB	00H
	DB	00H
	DB	00H
	DB	00H
	DB	00H
	DB	00H
	DB	00H
	DB	00H
	DB	00H
	DB	00H
	DB	00H
	DB	068H
	DB	04cH
	DB	00H
	DB	0ffH
	DB	078H
	DB	058H
	DB	00H
	DB	0ffH
	DB	080H
	DB	060H
	DB	00H
	DB	0ffH
	DB	080H
	DB	060H
	DB	00H
	DB	0ffH
	DB	088H
	DB	060H
	DB	00H
	DB	0ffH
	DB	088H
	DB	064H
	DB	00H
	DB	0ffH
	DB	080H
	DB	060H
	DB	00H
	DB	0ffH
	DB	088H
	DB	060H
	DB	00H
	DB	0ffH
	DB	088H
	DB	060H
	DB	00H
	DB	0ffH
	DB	088H
	DB	060H
	DB	00H
	DB	0ffH
	DB	080H
	DB	060H
	DB	00H
	DB	0ffH
	DB	088H
	DB	060H
	DB	00H
	DB	0ffH
	DB	088H
	DB	060H
	DB	00H
	DB	0ffH
	DB	080H
	DB	064H
	DB	00H
	DB	0ffH
	DB	088H
	DB	060H
	DB	00H
	DB	0ffH
	DB	088H
	DB	060H
	DB	00H
	DB	0ffH
	DB	080H
	DB	060H
	DB	00H
	DB	0ffH
	DB	088H
	DB	060H
	DB	00H
	DB	0ffH
	DB	080H
	DB	064H
	DB	00H
	DB	0ffH
	DB	080H
	DB	060H
	DB	00H
	DB	0ffH
	DB	088H
	DB	060H
	DB	00H
	DB	0ffH
	DB	080H
	DB	060H
	DB	00H
	DB	0ffH
	DB	088H
	DB	060H
	DB	00H
	DB	0ffH
	DB	088H
	DB	064H
	DB	00H
	DB	0ffH
	DB	080H
	DB	060H
	DB	00H
	DB	0ffH
	DB	088H
	DB	060H
	DB	00H
	DB	0ffH
	DB	080H
	DB	060H
	DB	00H
	DB	0ffH
	DB	080H
	DB	060H
	DB	00H
	DB	0ffH
	DB	088H
	DB	064H
	DB	00H
	DB	0ffH
	DB	080H
	DB	060H
	DB	00H
	DB	0ffH
	DB	088H
	DB	060H
	DB	00H
	DB	0ffH
	DB	088H
	DB	060H
	DB	00H
	DB	0ffH
	DB	080H
	DB	060H
	DB	00H
	DB	0ffH
	DB	088H
	DB	064H
	DB	00H
	DB	0ffH
	DB	080H
	DB	060H
	DB	00H
	DB	0ffH
	DB	080H
	DB	060H
	DB	00H
	DB	0ffH
	DB	088H
	DB	060H
	DB	00H
	DB	0ffH
	DB	080H
	DB	060H
	DB	00H
	DB	0ffH
	DB	088H
	DB	064H
	DB	00H
	DB	0ffH
	DB	088H
	DB	060H
	DB	00H
	DB	0ffH
	DB	080H
	DB	060H
	DB	00H
	DB	0ffH
	DB	088H
	DB	060H
	DB	00H
	DB	0ffH
	DB	080H
	DB	060H
	DB	00H
	DB	0ffH
	DB	080H
	DB	064H
	DB	00H
	DB	0ffH
	DB	088H
	DB	060H
	DB	00H
	DB	0ffH
	DB	080H
	DB	060H
	DB	00H
	DB	0ffH
	DB	088H
	DB	060H
	DB	00H
	DB	0ffH
	DB	088H
	DB	060H
	DB	00H
	DB	0ffH
	DB	080H
	DB	064H
	DB	00H
	DB	0ffH
	DB	088H
	DB	060H
	DB	00H
	DB	0ffH
	DB	080H
	DB	060H
	DB	00H
	DB	0ffH
	DB	080H
	DB	060H
	DB	00H
	DB	0ffH
	DB	088H
	DB	060H
	DB	00H
	DB	0ffH
	DB	080H
	DB	064H
	DB	00H
	DB	0ffH
	DB	088H
	DB	060H
	DB	00H
	DB	0ffH
	DB	088H
	DB	060H
	DB	00H
	DB	0ffH
	DB	080H
	DB	060H
	DB	00H
	DB	0ffH
	DB	088H
	DB	060H
	DB	00H
	DB	0ffH
	DB	080H
	DB	064H
	DB	00H
	DB	0ffH
	DB	080H
	DB	060H
	DB	00H
	DB	0ffH
	DB	088H
	DB	060H
	DB	00H
	DB	0ffH
	DB	080H
	DB	060H
	DB	00H
	DB	0ffH
	DB	088H
	DB	060H
	DB	00H
	DB	0ffH
	DB	088H
	DB	064H
	DB	00H
	DB	0ffH
	DB	080H
	DB	060H
	DB	00H
	DB	0ffH
	DB	088H
	DB	060H
	DB	00H
	DB	0ffH
	DB	080H
	DB	060H
	DB	00H
	DB	0ffH
	DB	080H
	DB	060H
	DB	00H
	DB	0ffH
	DB	088H
	DB	064H
	DB	00H
	DB	0ffH
	DB	080H
	DB	060H
	DB	00H
	DB	0ffH
	DB	088H
	DB	060H
	DB	00H
	DB	0ffH
	DB	088H
	DB	060H
	DB	00H
	DB	0ffH
	DB	080H
	DB	060H
	DB	00H
	DB	0ffH
	DB	088H
	DB	064H
	DB	00H
	DB	0ffH
	DB	080H
	DB	060H
	DB	00H
	DB	0ffH
	DB	080H
	DB	060H
	DB	00H
	DB	0ffH
	DB	088H
	DB	060H
	DB	00H
	DB	0ffH
	DB	080H
	DB	060H
	DB	00H
	DB	0ffH
	DB	088H
	DB	064H
	DB	00H
	DB	0ffH
	DB	088H
	DB	060H
	DB	00H
	DB	0ffH
	DB	080H
	DB	060H
	DB	00H
	DB	0ffH
	DB	088H
	DB	060H
	DB	00H
	DB	0ffH
	DB	080H
	DB	060H
	DB	00H
	DB	0ffH
	DB	080H
	DB	064H
	DB	00H
	DB	0ffH
	DB	088H
	DB	060H
	DB	00H
	DB	0ffH
	DB	080H
	DB	060H
	DB	00H
	DB	0ffH
	DB	088H
	DB	060H
	DB	00H
	DB	0ffH
	DB	088H
	DB	060H
	DB	00H
	DB	0ffH
	DB	080H
	DB	064H
	DB	00H
	DB	0ffH
	DB	088H
	DB	060H
	DB	00H
	DB	0ffH
	DB	080H
	DB	060H
	DB	00H
	DB	0ffH
	DB	080H
	DB	060H
	DB	00H
	DB	0ffH
	DB	088H
	DB	060H
	DB	00H
	DB	0ffH
	DB	080H
	DB	064H
	DB	00H
	DB	0ffH
	DB	088H
	DB	060H
	DB	00H
	DB	0ffH
	DB	088H
	DB	060H
	DB	00H
	DB	0ffH
	DB	080H
	DB	060H
	DB	00H
	DB	0ffH
	DB	088H
	DB	060H
	DB	00H
	DB	0ffH
	DB	080H
	DB	064H
	DB	00H
	DB	0ffH
	DB	080H
	DB	060H
	DB	00H
	DB	0ffH
	DB	088H
	DB	060H
	DB	00H
	DB	0ffH
	DB	080H
	DB	060H
	DB	00H
	DB	0ffH
	DB	088H
	DB	060H
	DB	00H
	DB	0ffH
	DB	088H
	DB	064H
	DB	00H
	DB	0ffH
	DB	080H
	DB	060H
	DB	00H
	DB	0ffH
	DB	088H
	DB	060H
	DB	00H
	DB	0ffH
	DB	080H
	DB	060H
	DB	00H
	DB	0ffH
	DB	080H
	DB	060H
	DB	00H
	DB	0ffH
	DB	088H
	DB	064H
	DB	00H
	DB	0ffH
	DB	080H
	DB	060H
	DB	00H
	DB	0ffH
	DB	088H
	DB	060H
	DB	00H
	DB	0ffH
	DB	088H
	DB	060H
	DB	00H
	DB	0ffH
	DB	080H
	DB	060H
	DB	00H
	DB	0ffH
	DB	088H
	DB	064H
	DB	00H
	DB	0ffH
	DB	080H
	DB	060H
	DB	00H
	DB	0ffH
	DB	080H
	DB	060H
	DB	00H
	DB	0ffH
	DB	088H
	DB	060H
	DB	00H
	DB	0ffH
	DB	080H
	DB	060H
	DB	00H
	DB	0ffH
	DB	088H
	DB	064H
	DB	00H
	DB	0ffH
	DB	088H
	DB	060H
	DB	00H
	DB	0ffH
	DB	080H
	DB	060H
	DB	00H
	DB	0ffH
	DB	088H
	DB	060H
	DB	00H
	DB	0ffH
	DB	080H
	DB	060H
	DB	00H
	DB	0ffH
	DB	080H
	DB	064H
	DB	00H
	DB	0ffH
	DB	088H
	DB	060H
	DB	00H
	DB	0ffH
	DB	080H
	DB	060H
	DB	00H
	DB	0ffH
	DB	088H
	DB	060H
	DB	00H
	DB	0ffH
	DB	088H
	DB	060H
	DB	00H
	DB	0ffH
	DB	080H
	DB	064H
	DB	00H
	DB	0ffH
	DB	088H
	DB	060H
	DB	00H
	DB	0ffH
	DB	080H
	DB	060H
	DB	00H
	DB	0ffH
	DB	080H
	DB	060H
	DB	00H
	DB	0ffH
	DB	088H
	DB	060H
	DB	00H
	DB	0ffH
	DB	080H
	DB	064H
	DB	00H
	DB	0ffH
	DB	088H
	DB	060H
	DB	00H
	DB	0ffH
	DB	088H
	DB	060H
	DB	00H
	DB	0ffH
	DB	080H
	DB	060H
	DB	00H
	DB	0ffH
	DB	088H
	DB	060H
	DB	00H
	DB	0ffH
	DB	080H
	DB	064H
	DB	00H
	DB	0ffH
	DB	080H
	DB	060H
	DB	00H
	DB	0ffH
	DB	088H
	DB	060H
	DB	00H
	DB	0ffH
	DB	080H
	DB	060H
	DB	00H
	DB	0ffH
	DB	088H
	DB	060H
	DB	00H
	DB	0ffH
	DB	088H
	DB	064H
	DB	00H
	DB	0ffH
	DB	080H
	DB	060H
	DB	00H
	DB	0ffH
	DB	088H
	DB	060H
	DB	00H
	DB	0ffH
	DB	080H
	DB	060H
	DB	00H
	DB	0ffH
	DB	088H
	DB	060H
	DB	00H
	DB	0ffH
	DB	088H
	DB	064H
	DB	00H
	DB	0ffH
	DB	088H
	DB	060H
	DB	00H
	DB	0ffH
	DB	080H
	DB	060H
	DB	00H
	DB	0ffH
	DB	088H
	DB	060H
	DB	00H
	DB	0ffH
	DB	088H
	DB	064H
	DB	00H
	DB	0ffH
	DB	080H
	DB	064H
	DB	00H
	DB	0ffH
	DB	088H
	DB	060H
	DB	00H
	DB	0ffH
	DB	088H
	DB	064H
	DB	00H
	DB	0ffH
	DB	080H
	DB	060H
	DB	00H
	DB	0ffH
	DB	080H
	DB	060H
	DB	00H
	DB	0ffH
	DB	078H
	DB	058H
	DB	00H
	DB	0ffH
	DB	068H
	DB	04cH
	DB	00H
	DB	0ffH
	DB	00H
	DB	00H
	DB	00H
	DB	00H
	DB	00H
	DB	00H
	DB	00H
	DB	00H
	DB	00H
	DB	00H
	DB	00H
	DB	00H
	DB	00H
	DB	00H
	DB	00H
	DB	00H
	DB	00H
	DB	00H
	DB	00H
	DB	00H
	DB	00H
	DB	00H
	DB	00H
	DB	00H
	DB	00H
	DB	00H
	DB	00H
	DB	00H
	DB	00H
	DB	00H
	DB	00H
	DB	00H
	DB	00H
	DB	00H
	DB	00H
	DB	00H
	DB	00H
	DB	00H
	DB	00H
	DB	00H
	DB	068H
	DB	04cH
	DB	00H
	DB	0ffH
	DB	078H
	DB	058H
	DB	00H
	DB	0ffH
	DB	080H
	DB	060H
	DB	08H
	DB	0ffH
	DB	088H
	DB	064H
	DB	00H
	DB	0ffH
	DB	088H
	DB	064H
	DB	00H
	DB	0ffH
	DB	088H
	DB	064H
	DB	08H
	DB	0ffH
	DB	088H
	DB	064H
	DB	00H
	DB	0ffH
	DB	088H
	DB	064H
	DB	00H
	DB	0ffH
	DB	088H
	DB	064H
	DB	08H
	DB	0ffH
	DB	080H
	DB	064H
	DB	00H
	DB	0ffH
	DB	088H
	DB	064H
	DB	00H
	DB	0ffH
	DB	088H
	DB	064H
	DB	08H
	DB	0ffH
	DB	080H
	DB	064H
	DB	00H
	DB	0ffH
	DB	088H
	DB	064H
	DB	00H
	DB	0ffH
	DB	088H
	DB	064H
	DB	08H
	DB	0ffH
	DB	088H
	DB	064H
	DB	00H
	DB	0ffH
	DB	088H
	DB	064H
	DB	00H
	DB	0ffH
	DB	088H
	DB	064H
	DB	08H
	DB	0ffH
	DB	088H
	DB	064H
	DB	00H
	DB	0ffH
	DB	088H
	DB	064H
	DB	00H
	DB	0ffH
	DB	088H
	DB	064H
	DB	08H
	DB	0ffH
	DB	088H
	DB	064H
	DB	00H
	DB	0ffH
	DB	088H
	DB	064H
	DB	00H
	DB	0ffH
	DB	088H
	DB	064H
	DB	08H
	DB	0ffH
	DB	088H
	DB	064H
	DB	00H
	DB	0ffH
	DB	088H
	DB	064H
	DB	00H
	DB	0ffH
	DB	088H
	DB	064H
	DB	08H
	DB	0ffH
	DB	088H
	DB	064H
	DB	00H
	DB	0ffH
	DB	088H
	DB	064H
	DB	00H
	DB	0ffH
	DB	088H
	DB	064H
	DB	08H
	DB	0ffH
	DB	088H
	DB	064H
	DB	00H
	DB	0ffH
	DB	088H
	DB	064H
	DB	00H
	DB	0ffH
	DB	088H
	DB	064H
	DB	08H
	DB	0ffH
	DB	088H
	DB	064H
	DB	00H
	DB	0ffH
	DB	088H
	DB	064H
	DB	00H
	DB	0ffH
	DB	088H
	DB	064H
	DB	08H
	DB	0ffH
	DB	088H
	DB	064H
	DB	00H
	DB	0ffH
	DB	088H
	DB	064H
	DB	00H
	DB	0ffH
	DB	088H
	DB	064H
	DB	08H
	DB	0ffH
	DB	088H
	DB	064H
	DB	00H
	DB	0ffH
	DB	088H
	DB	064H
	DB	00H
	DB	0ffH
	DB	088H
	DB	064H
	DB	08H
	DB	0ffH
	DB	088H
	DB	064H
	DB	00H
	DB	0ffH
	DB	088H
	DB	064H
	DB	00H
	DB	0ffH
	DB	088H
	DB	064H
	DB	08H
	DB	0ffH
	DB	088H
	DB	064H
	DB	00H
	DB	0ffH
	DB	088H
	DB	064H
	DB	00H
	DB	0ffH
	DB	088H
	DB	064H
	DB	08H
	DB	0ffH
	DB	088H
	DB	064H
	DB	00H
	DB	0ffH
	DB	088H
	DB	064H
	DB	00H
	DB	0ffH
	DB	088H
	DB	064H
	DB	08H
	DB	0ffH
	DB	088H
	DB	064H
	DB	00H
	DB	0ffH
	DB	088H
	DB	064H
	DB	00H
	DB	0ffH
	DB	088H
	DB	064H
	DB	08H
	DB	0ffH
	DB	088H
	DB	064H
	DB	00H
	DB	0ffH
	DB	088H
	DB	064H
	DB	00H
	DB	0ffH
	DB	088H
	DB	064H
	DB	08H
	DB	0ffH
	DB	088H
	DB	064H
	DB	00H
	DB	0ffH
	DB	088H
	DB	064H
	DB	00H
	DB	0ffH
	DB	088H
	DB	064H
	DB	08H
	DB	0ffH
	DB	088H
	DB	064H
	DB	00H
	DB	0ffH
	DB	088H
	DB	064H
	DB	00H
	DB	0ffH
	DB	088H
	DB	064H
	DB	08H
	DB	0ffH
	DB	088H
	DB	064H
	DB	00H
	DB	0ffH
	DB	088H
	DB	064H
	DB	00H
	DB	0ffH
	DB	088H
	DB	064H
	DB	08H
	DB	0ffH
	DB	088H
	DB	064H
	DB	00H
	DB	0ffH
	DB	088H
	DB	064H
	DB	00H
	DB	0ffH
	DB	088H
	DB	064H
	DB	08H
	DB	0ffH
	DB	088H
	DB	064H
	DB	00H
	DB	0ffH
	DB	088H
	DB	064H
	DB	00H
	DB	0ffH
	DB	088H
	DB	064H
	DB	08H
	DB	0ffH
	DB	088H
	DB	064H
	DB	00H
	DB	0ffH
	DB	088H
	DB	064H
	DB	00H
	DB	0ffH
	DB	088H
	DB	064H
	DB	08H
	DB	0ffH
	DB	088H
	DB	064H
	DB	00H
	DB	0ffH
	DB	088H
	DB	064H
	DB	00H
	DB	0ffH
	DB	088H
	DB	064H
	DB	08H
	DB	0ffH
	DB	088H
	DB	064H
	DB	00H
	DB	0ffH
	DB	088H
	DB	064H
	DB	00H
	DB	0ffH
	DB	088H
	DB	064H
	DB	08H
	DB	0ffH
	DB	088H
	DB	064H
	DB	00H
	DB	0ffH
	DB	088H
	DB	064H
	DB	00H
	DB	0ffH
	DB	088H
	DB	064H
	DB	08H
	DB	0ffH
	DB	088H
	DB	064H
	DB	00H
	DB	0ffH
	DB	088H
	DB	064H
	DB	00H
	DB	0ffH
	DB	088H
	DB	064H
	DB	08H
	DB	0ffH
	DB	088H
	DB	064H
	DB	00H
	DB	0ffH
	DB	088H
	DB	064H
	DB	00H
	DB	0ffH
	DB	088H
	DB	064H
	DB	08H
	DB	0ffH
	DB	088H
	DB	064H
	DB	00H
	DB	0ffH
	DB	088H
	DB	064H
	DB	00H
	DB	0ffH
	DB	088H
	DB	064H
	DB	08H
	DB	0ffH
	DB	088H
	DB	064H
	DB	00H
	DB	0ffH
	DB	088H
	DB	064H
	DB	00H
	DB	0ffH
	DB	088H
	DB	064H
	DB	08H
	DB	0ffH
	DB	088H
	DB	064H
	DB	00H
	DB	0ffH
	DB	088H
	DB	064H
	DB	00H
	DB	0ffH
	DB	088H
	DB	064H
	DB	08H
	DB	0ffH
	DB	088H
	DB	064H
	DB	00H
	DB	0ffH
	DB	088H
	DB	064H
	DB	00H
	DB	0ffH
	DB	088H
	DB	064H
	DB	08H
	DB	0ffH
	DB	088H
	DB	064H
	DB	00H
	DB	0ffH
	DB	088H
	DB	064H
	DB	00H
	DB	0ffH
	DB	088H
	DB	064H
	DB	08H
	DB	0ffH
	DB	088H
	DB	064H
	DB	00H
	DB	0ffH
	DB	088H
	DB	064H
	DB	00H
	DB	0ffH
	DB	088H
	DB	064H
	DB	08H
	DB	0ffH
	DB	088H
	DB	064H
	DB	00H
	DB	0ffH
	DB	088H
	DB	064H
	DB	00H
	DB	0ffH
	DB	088H
	DB	064H
	DB	08H
	DB	0ffH
	DB	088H
	DB	064H
	DB	00H
	DB	0ffH
	DB	088H
	DB	064H
	DB	00H
	DB	0ffH
	DB	088H
	DB	064H
	DB	08H
	DB	0ffH
	DB	088H
	DB	064H
	DB	00H
	DB	0ffH
	DB	088H
	DB	064H
	DB	00H
	DB	0ffH
	DB	088H
	DB	064H
	DB	08H
	DB	0ffH
	DB	088H
	DB	064H
	DB	00H
	DB	0ffH
	DB	088H
	DB	064H
	DB	00H
	DB	0ffH
	DB	088H
	DB	064H
	DB	08H
	DB	0ffH
	DB	088H
	DB	064H
	DB	00H
	DB	0ffH
	DB	088H
	DB	064H
	DB	00H
	DB	0ffH
	DB	088H
	DB	064H
	DB	08H
	DB	0ffH
	DB	088H
	DB	064H
	DB	00H
	DB	0ffH
	DB	088H
	DB	064H
	DB	00H
	DB	0ffH
	DB	088H
	DB	064H
	DB	08H
	DB	0ffH
	DB	088H
	DB	064H
	DB	00H
	DB	0ffH
	DB	088H
	DB	064H
	DB	00H
	DB	0ffH
	DB	088H
	DB	064H
	DB	08H
	DB	0ffH
	DB	088H
	DB	064H
	DB	00H
	DB	0ffH
	DB	088H
	DB	064H
	DB	00H
	DB	0ffH
	DB	088H
	DB	064H
	DB	08H
	DB	0ffH
	DB	088H
	DB	064H
	DB	00H
	DB	0ffH
	DB	088H
	DB	064H
	DB	00H
	DB	0ffH
	DB	088H
	DB	064H
	DB	08H
	DB	0ffH
	DB	088H
	DB	064H
	DB	00H
	DB	0ffH
	DB	088H
	DB	064H
	DB	00H
	DB	0ffH
	DB	088H
	DB	064H
	DB	08H
	DB	0ffH
	DB	088H
	DB	064H
	DB	00H
	DB	0ffH
	DB	088H
	DB	064H
	DB	00H
	DB	0ffH
	DB	088H
	DB	064H
	DB	08H
	DB	0ffH
	DB	088H
	DB	064H
	DB	00H
	DB	0ffH
	DB	088H
	DB	064H
	DB	00H
	DB	0ffH
	DB	088H
	DB	064H
	DB	08H
	DB	0ffH
	DB	088H
	DB	064H
	DB	00H
	DB	0ffH
	DB	088H
	DB	064H
	DB	00H
	DB	0ffH
	DB	080H
	DB	064H
	DB	08H
	DB	0ffH
	DB	088H
	DB	064H
	DB	00H
	DB	0ffH
	DB	088H
	DB	064H
	DB	00H
	DB	0ffH
	DB	080H
	DB	064H
	DB	08H
	DB	0ffH
	DB	088H
	DB	064H
	DB	00H
	DB	0ffH
	DB	088H
	DB	064H
	DB	00H
	DB	0ffH
	DB	088H
	DB	064H
	DB	08H
	DB	0ffH
	DB	080H
	DB	064H
	DB	00H
	DB	0ffH
	DB	088H
	DB	064H
	DB	00H
	DB	0ffH
	DB	088H
	DB	064H
	DB	08H
	DB	0ffH
	DB	088H
	DB	064H
	DB	00H
	DB	0ffH
	DB	080H
	DB	060H
	DB	00H
	DB	0ffH
	DB	078H
	DB	058H
	DB	00H
	DB	0ffH
	DB	068H
	DB	04cH
	DB	00H
	DB	0ffH
	DB	00H
	DB	00H
	DB	00H
	DB	00H
	DB	00H
	DB	00H
	DB	00H
	DB	00H
	DB	00H
	DB	00H
	DB	00H
	DB	00H
	DB	00H
	DB	00H
	DB	00H
	DB	00H
	DB	00H
	DB	00H
	DB	00H
	DB	00H
	DB	00H
	DB	00H
	DB	00H
	DB	00H
	DB	00H
	DB	00H
	DB	00H
	DB	00H
	DB	00H
	DB	00H
	DB	00H
	DB	00H
	DB	00H
	DB	00H
	DB	00H
	DB	00H
	DB	00H
	DB	00H
	DB	00H
	DB	00H
	DB	068H
	DB	04cH
	DB	00H
	DB	0ffH
	DB	078H
	DB	058H
	DB	00H
	DB	0ffH
	DB	080H
	DB	060H
	DB	00H
	DB	0ffH
	DB	088H
	DB	064H
	DB	00H
	DB	0ffH
	DB	088H
	DB	064H
	DB	00H
	DB	0ffH
	DB	080H
	DB	064H
	DB	00H
	DB	0ffH
	DB	088H
	DB	064H
	DB	00H
	DB	0ffH
	DB	088H
	DB	064H
	DB	00H
	DB	0ffH
	DB	080H
	DB	064H
	DB	00H
	DB	0ffH
	DB	088H
	DB	064H
	DB	00H
	DB	0ffH
	DB	088H
	DB	064H
	DB	00H
	DB	0ffH
	DB	088H
	DB	064H
	DB	00H
	DB	0ffH
	DB	088H
	DB	064H
	DB	00H
	DB	0ffH
	DB	088H
	DB	064H
	DB	00H
	DB	0ffH
	DB	080H
	DB	064H
	DB	00H
	DB	0ffH
	DB	088H
	DB	064H
	DB	00H
	DB	0ffH
	DB	088H
	DB	064H
	DB	00H
	DB	0ffH
	DB	080H
	DB	064H
	DB	00H
	DB	0ffH
	DB	088H
	DB	064H
	DB	00H
	DB	0ffH
	DB	088H
	DB	064H
	DB	00H
	DB	0ffH
	DB	080H
	DB	064H
	DB	00H
	DB	0ffH
	DB	088H
	DB	064H
	DB	00H
	DB	0ffH
	DB	080H
	DB	064H
	DB	00H
	DB	0ffH
	DB	088H
	DB	064H
	DB	00H
	DB	0ffH
	DB	088H
	DB	064H
	DB	00H
	DB	0ffH
	DB	080H
	DB	064H
	DB	00H
	DB	0ffH
	DB	088H
	DB	064H
	DB	00H
	DB	0ffH
	DB	088H
	DB	064H
	DB	00H
	DB	0ffH
	DB	080H
	DB	064H
	DB	00H
	DB	0ffH
	DB	088H
	DB	064H
	DB	00H
	DB	0ffH
	DB	080H
	DB	064H
	DB	00H
	DB	0ffH
	DB	088H
	DB	064H
	DB	00H
	DB	0ffH
	DB	088H
	DB	064H
	DB	00H
	DB	0ffH
	DB	080H
	DB	064H
	DB	00H
	DB	0ffH
	DB	088H
	DB	064H
	DB	00H
	DB	0ffH
	DB	088H
	DB	064H
	DB	00H
	DB	0ffH
	DB	080H
	DB	064H
	DB	00H
	DB	0ffH
	DB	088H
	DB	064H
	DB	00H
	DB	0ffH
	DB	080H
	DB	064H
	DB	00H
	DB	0ffH
	DB	088H
	DB	064H
	DB	00H
	DB	0ffH
	DB	088H
	DB	064H
	DB	00H
	DB	0ffH
	DB	080H
	DB	064H
	DB	00H
	DB	0ffH
	DB	088H
	DB	064H
	DB	00H
	DB	0ffH
	DB	088H
	DB	064H
	DB	00H
	DB	0ffH
	DB	080H
	DB	064H
	DB	00H
	DB	0ffH
	DB	088H
	DB	064H
	DB	00H
	DB	0ffH
	DB	080H
	DB	064H
	DB	00H
	DB	0ffH
	DB	088H
	DB	064H
	DB	00H
	DB	0ffH
	DB	088H
	DB	064H
	DB	00H
	DB	0ffH
	DB	080H
	DB	064H
	DB	00H
	DB	0ffH
	DB	088H
	DB	064H
	DB	00H
	DB	0ffH
	DB	088H
	DB	064H
	DB	00H
	DB	0ffH
	DB	080H
	DB	064H
	DB	00H
	DB	0ffH
	DB	088H
	DB	064H
	DB	00H
	DB	0ffH
	DB	080H
	DB	064H
	DB	00H
	DB	0ffH
	DB	088H
	DB	064H
	DB	00H
	DB	0ffH
	DB	088H
	DB	064H
	DB	00H
	DB	0ffH
	DB	080H
	DB	064H
	DB	00H
	DB	0ffH
	DB	088H
	DB	064H
	DB	00H
	DB	0ffH
	DB	088H
	DB	064H
	DB	00H
	DB	0ffH
	DB	080H
	DB	064H
	DB	00H
	DB	0ffH
	DB	088H
	DB	064H
	DB	00H
	DB	0ffH
	DB	080H
	DB	064H
	DB	00H
	DB	0ffH
	DB	088H
	DB	064H
	DB	00H
	DB	0ffH
	DB	088H
	DB	064H
	DB	00H
	DB	0ffH
	DB	080H
	DB	064H
	DB	00H
	DB	0ffH
	DB	088H
	DB	064H
	DB	00H
	DB	0ffH
	DB	088H
	DB	064H
	DB	00H
	DB	0ffH
	DB	080H
	DB	064H
	DB	00H
	DB	0ffH
	DB	088H
	DB	064H
	DB	00H
	DB	0ffH
	DB	080H
	DB	064H
	DB	00H
	DB	0ffH
	DB	088H
	DB	064H
	DB	00H
	DB	0ffH
	DB	088H
	DB	064H
	DB	00H
	DB	0ffH
	DB	080H
	DB	064H
	DB	00H
	DB	0ffH
	DB	088H
	DB	064H
	DB	00H
	DB	0ffH
	DB	088H
	DB	064H
	DB	00H
	DB	0ffH
	DB	080H
	DB	064H
	DB	00H
	DB	0ffH
	DB	088H
	DB	064H
	DB	00H
	DB	0ffH
	DB	080H
	DB	064H
	DB	00H
	DB	0ffH
	DB	088H
	DB	064H
	DB	00H
	DB	0ffH
	DB	088H
	DB	064H
	DB	00H
	DB	0ffH
	DB	080H
	DB	064H
	DB	00H
	DB	0ffH
	DB	088H
	DB	064H
	DB	00H
	DB	0ffH
	DB	088H
	DB	064H
	DB	00H
	DB	0ffH
	DB	080H
	DB	064H
	DB	00H
	DB	0ffH
	DB	088H
	DB	064H
	DB	00H
	DB	0ffH
	DB	080H
	DB	064H
	DB	00H
	DB	0ffH
	DB	088H
	DB	064H
	DB	00H
	DB	0ffH
	DB	088H
	DB	064H
	DB	00H
	DB	0ffH
	DB	080H
	DB	064H
	DB	00H
	DB	0ffH
	DB	088H
	DB	064H
	DB	00H
	DB	0ffH
	DB	088H
	DB	064H
	DB	00H
	DB	0ffH
	DB	080H
	DB	064H
	DB	00H
	DB	0ffH
	DB	088H
	DB	064H
	DB	00H
	DB	0ffH
	DB	080H
	DB	064H
	DB	00H
	DB	0ffH
	DB	088H
	DB	064H
	DB	00H
	DB	0ffH
	DB	088H
	DB	064H
	DB	00H
	DB	0ffH
	DB	080H
	DB	064H
	DB	00H
	DB	0ffH
	DB	088H
	DB	064H
	DB	00H
	DB	0ffH
	DB	088H
	DB	064H
	DB	00H
	DB	0ffH
	DB	080H
	DB	064H
	DB	00H
	DB	0ffH
	DB	088H
	DB	064H
	DB	00H
	DB	0ffH
	DB	080H
	DB	064H
	DB	00H
	DB	0ffH
	DB	088H
	DB	064H
	DB	00H
	DB	0ffH
	DB	088H
	DB	064H
	DB	00H
	DB	0ffH
	DB	080H
	DB	064H
	DB	00H
	DB	0ffH
	DB	088H
	DB	064H
	DB	00H
	DB	0ffH
	DB	088H
	DB	064H
	DB	00H
	DB	0ffH
	DB	080H
	DB	064H
	DB	00H
	DB	0ffH
	DB	088H
	DB	064H
	DB	00H
	DB	0ffH
	DB	080H
	DB	064H
	DB	00H
	DB	0ffH
	DB	088H
	DB	064H
	DB	00H
	DB	0ffH
	DB	088H
	DB	064H
	DB	00H
	DB	0ffH
	DB	080H
	DB	064H
	DB	00H
	DB	0ffH
	DB	088H
	DB	064H
	DB	00H
	DB	0ffH
	DB	088H
	DB	064H
	DB	00H
	DB	0ffH
	DB	080H
	DB	064H
	DB	00H
	DB	0ffH
	DB	088H
	DB	064H
	DB	00H
	DB	0ffH
	DB	080H
	DB	064H
	DB	00H
	DB	0ffH
	DB	088H
	DB	064H
	DB	00H
	DB	0ffH
	DB	088H
	DB	064H
	DB	00H
	DB	0ffH
	DB	080H
	DB	064H
	DB	00H
	DB	0ffH
	DB	088H
	DB	064H
	DB	00H
	DB	0ffH
	DB	088H
	DB	064H
	DB	00H
	DB	0ffH
	DB	080H
	DB	064H
	DB	00H
	DB	0ffH
	DB	088H
	DB	064H
	DB	00H
	DB	0ffH
	DB	080H
	DB	064H
	DB	00H
	DB	0ffH
	DB	088H
	DB	064H
	DB	00H
	DB	0ffH
	DB	088H
	DB	064H
	DB	00H
	DB	0ffH
	DB	080H
	DB	064H
	DB	00H
	DB	0ffH
	DB	088H
	DB	064H
	DB	00H
	DB	0ffH
	DB	088H
	DB	064H
	DB	00H
	DB	0ffH
	DB	080H
	DB	064H
	DB	00H
	DB	0ffH
	DB	088H
	DB	064H
	DB	00H
	DB	0ffH
	DB	080H
	DB	064H
	DB	00H
	DB	0ffH
	DB	088H
	DB	064H
	DB	00H
	DB	0ffH
	DB	088H
	DB	064H
	DB	00H
	DB	0ffH
	DB	080H
	DB	064H
	DB	00H
	DB	0ffH
	DB	088H
	DB	064H
	DB	00H
	DB	0ffH
	DB	088H
	DB	064H
	DB	00H
	DB	0ffH
	DB	080H
	DB	064H
	DB	00H
	DB	0ffH
	DB	088H
	DB	064H
	DB	00H
	DB	0ffH
	DB	080H
	DB	064H
	DB	00H
	DB	0ffH
	DB	088H
	DB	064H
	DB	00H
	DB	0ffH
	DB	088H
	DB	064H
	DB	00H
	DB	0ffH
	DB	088H
	DB	064H
	DB	00H
	DB	0ffH
	DB	088H
	DB	064H
	DB	00H
	DB	0ffH
	DB	088H
	DB	064H
	DB	00H
	DB	0ffH
	DB	080H
	DB	064H
	DB	00H
	DB	0ffH
	DB	088H
	DB	064H
	DB	00H
	DB	0ffH
	DB	088H
	DB	064H
	DB	00H
	DB	0ffH
	DB	088H
	DB	064H
	DB	00H
	DB	0ffH
	DB	080H
	DB	060H
	DB	00H
	DB	0ffH
	DB	088H
	DB	064H
	DB	00H
	DB	0ffH
	DB	088H
	DB	064H
	DB	00H
	DB	0ffH
	DB	088H
	DB	060H
	DB	00H
	DB	0ffH
	DB	088H
	DB	064H
	DB	00H
	DB	0ffH
	DB	080H
	DB	060H
	DB	00H
	DB	0ffH
	DB	078H
	DB	058H
	DB	08H
	DB	0ffH
	DB	068H
	DB	04cH
	DB	00H
	DB	0ffH
	DB	00H
	DB	00H
	DB	00H
	DB	00H
	DB	00H
	DB	00H
	DB	00H
	DB	00H
	DB	00H
	DB	00H
	DB	00H
	DB	00H
	DB	00H
	DB	00H
	DB	00H
	DB	00H
	DB	00H
	DB	00H
	DB	00H
	DB	00H
	DB	00H
	DB	00H
	DB	00H
	DB	00H
	DB	00H
	DB	00H
	DB	00H
	DB	00H
	DB	00H
	DB	00H
	DB	00H
	DB	00H
	DB	00H
	DB	00H
	DB	00H
	DB	00H
	DB	00H
	DB	00H
	DB	00H
	DB	00H
	DB	068H
	DB	050H
	DB	00H
	DB	0ffH
	DB	078H
	DB	05cH
	DB	00H
	DB	0ffH
	DB	088H
	DB	060H
	DB	00H
	DB	0ffH
	DB	088H
	DB	064H
	DB	00H
	DB	0ffH
	DB	088H
	DB	064H
	DB	00H
	DB	0ffH
	DB	080H
	DB	060H
	DB	00H
	DB	0ffH
	DB	088H
	DB	060H
	DB	08H
	DB	0ffH
	DB	088H
	DB	064H
	DB	00H
	DB	0ffH
	DB	088H
	DB	060H
	DB	00H
	DB	0ffH
	DB	088H
	DB	064H
	DB	00H
	DB	0ffH
	DB	080H
	DB	060H
	DB	08H
	DB	0ffH
	DB	088H
	DB	064H
	DB	00H
	DB	0ffH
	DB	088H
	DB	060H
	DB	00H
	DB	0ffH
	DB	080H
	DB	060H
	DB	00H
	DB	0ffH
	DB	088H
	DB	064H
	DB	00H
	DB	0ffH
	DB	088H
	DB	060H
	DB	08H
	DB	0ffH
	DB	080H
	DB	060H
	DB	00H
	DB	0ffH
	DB	088H
	DB	064H
	DB	00H
	DB	0ffH
	DB	088H
	DB	060H
	DB	00H
	DB	0ffH
	DB	080H
	DB	060H
	DB	08H
	DB	0ffH
	DB	088H
	DB	064H
	DB	00H
	DB	0ffH
	DB	088H
	DB	060H
	DB	00H
	DB	0ffH
	DB	088H
	DB	060H
	DB	00H
	DB	0ffH
	DB	080H
	DB	064H
	DB	00H
	DB	0ffH
	DB	088H
	DB	060H
	DB	08H
	DB	0ffH
	DB	088H
	DB	060H
	DB	00H
	DB	0ffH
	DB	080H
	DB	064H
	DB	00H
	DB	0ffH
	DB	088H
	DB	060H
	DB	00H
	DB	0ffH
	DB	088H
	DB	060H
	DB	08H
	DB	0ffH
	DB	088H
	DB	064H
	DB	00H
	DB	0ffH
	DB	080H
	DB	060H
	DB	00H
	DB	0ffH
	DB	088H
	DB	060H
	DB	00H
	DB	0ffH
	DB	088H
	DB	064H
	DB	00H
	DB	0ffH
	DB	080H
	DB	060H
	DB	08H
	DB	0ffH
	DB	088H
	DB	060H
	DB	00H
	DB	0ffH
	DB	088H
	DB	064H
	DB	00H
	DB	0ffH
	DB	088H
	DB	060H
	DB	00H
	DB	0ffH
	DB	080H
	DB	060H
	DB	08H
	DB	0ffH
	DB	088H
	DB	064H
	DB	00H
	DB	0ffH
	DB	088H
	DB	060H
	DB	00H
	DB	0ffH
	DB	080H
	DB	060H
	DB	00H
	DB	0ffH
	DB	088H
	DB	064H
	DB	00H
	DB	0ffH
	DB	088H
	DB	060H
	DB	08H
	DB	0ffH
	DB	080H
	DB	060H
	DB	00H
	DB	0ffH
	DB	088H
	DB	064H
	DB	00H
	DB	0ffH
	DB	088H
	DB	060H
	DB	00H
	DB	0ffH
	DB	088H
	DB	060H
	DB	08H
	DB	0ffH
	DB	080H
	DB	064H
	DB	00H
	DB	0ffH
	DB	088H
	DB	060H
	DB	00H
	DB	0ffH
	DB	088H
	DB	060H
	DB	00H
	DB	0ffH
	DB	080H
	DB	064H
	DB	00H
	DB	0ffH
	DB	088H
	DB	060H
	DB	08H
	DB	0ffH
	DB	088H
	DB	060H
	DB	00H
	DB	0ffH
	DB	088H
	DB	064H
	DB	00H
	DB	0ffH
	DB	080H
	DB	060H
	DB	00H
	DB	0ffH
	DB	088H
	DB	060H
	DB	08H
	DB	0ffH
	DB	088H
	DB	064H
	DB	00H
	DB	0ffH
	DB	080H
	DB	060H
	DB	00H
	DB	0ffH
	DB	088H
	DB	060H
	DB	00H
	DB	0ffH
	DB	088H
	DB	064H
	DB	00H
	DB	0ffH
	DB	088H
	DB	060H
	DB	08H
	DB	0ffH
	DB	080H
	DB	060H
	DB	00H
	DB	0ffH
	DB	088H
	DB	064H
	DB	00H
	DB	0ffH
	DB	088H
	DB	060H
	DB	00H
	DB	0ffH
	DB	080H
	DB	060H
	DB	08H
	DB	0ffH
	DB	088H
	DB	064H
	DB	00H
	DB	0ffH
	DB	088H
	DB	060H
	DB	00H
	DB	0ffH
	DB	080H
	DB	060H
	DB	00H
	DB	0ffH
	DB	088H
	DB	064H
	DB	00H
	DB	0ffH
	DB	088H
	DB	060H
	DB	08H
	DB	0ffH
	DB	088H
	DB	060H
	DB	00H
	DB	0ffH
	DB	080H
	DB	064H
	DB	00H
	DB	0ffH
	DB	088H
	DB	060H
	DB	00H
	DB	0ffH
	DB	088H
	DB	060H
	DB	08H
	DB	0ffH
	DB	080H
	DB	064H
	DB	00H
	DB	0ffH
	DB	088H
	DB	060H
	DB	00H
	DB	0ffH
	DB	088H
	DB	060H
	DB	00H
	DB	0ffH
	DB	088H
	DB	064H
	DB	00H
	DB	0ffH
	DB	080H
	DB	060H
	DB	08H
	DB	0ffH
	DB	088H
	DB	060H
	DB	00H
	DB	0ffH
	DB	088H
	DB	064H
	DB	00H
	DB	0ffH
	DB	080H
	DB	060H
	DB	00H
	DB	0ffH
	DB	088H
	DB	060H
	DB	08H
	DB	0ffH
	DB	088H
	DB	064H
	DB	00H
	DB	0ffH
	DB	088H
	DB	060H
	DB	00H
	DB	0ffH
	DB	080H
	DB	060H
	DB	00H
	DB	0ffH
	DB	088H
	DB	064H
	DB	00H
	DB	0ffH
	DB	088H
	DB	060H
	DB	08H
	DB	0ffH
	DB	080H
	DB	060H
	DB	00H
	DB	0ffH
	DB	088H
	DB	064H
	DB	00H
	DB	0ffH
	DB	088H
	DB	060H
	DB	00H
	DB	0ffH
	DB	080H
	DB	060H
	DB	08H
	DB	0ffH
	DB	088H
	DB	064H
	DB	00H
	DB	0ffH
	DB	088H
	DB	060H
	DB	00H
	DB	0ffH
	DB	088H
	DB	060H
	DB	00H
	DB	0ffH
	DB	080H
	DB	064H
	DB	00H
	DB	0ffH
	DB	088H
	DB	060H
	DB	08H
	DB	0ffH
	DB	088H
	DB	060H
	DB	00H
	DB	0ffH
	DB	080H
	DB	064H
	DB	00H
	DB	0ffH
	DB	088H
	DB	060H
	DB	00H
	DB	0ffH
	DB	088H
	DB	060H
	DB	08H
	DB	0ffH
	DB	088H
	DB	064H
	DB	00H
	DB	0ffH
	DB	080H
	DB	060H
	DB	00H
	DB	0ffH
	DB	088H
	DB	060H
	DB	00H
	DB	0ffH
	DB	088H
	DB	064H
	DB	00H
	DB	0ffH
	DB	080H
	DB	060H
	DB	08H
	DB	0ffH
	DB	088H
	DB	060H
	DB	00H
	DB	0ffH
	DB	088H
	DB	064H
	DB	00H
	DB	0ffH
	DB	088H
	DB	060H
	DB	00H
	DB	0ffH
	DB	080H
	DB	060H
	DB	08H
	DB	0ffH
	DB	088H
	DB	064H
	DB	00H
	DB	0ffH
	DB	088H
	DB	060H
	DB	00H
	DB	0ffH
	DB	080H
	DB	060H
	DB	00H
	DB	0ffH
	DB	088H
	DB	064H
	DB	00H
	DB	0ffH
	DB	088H
	DB	060H
	DB	08H
	DB	0ffH
	DB	080H
	DB	060H
	DB	00H
	DB	0ffH
	DB	088H
	DB	064H
	DB	00H
	DB	0ffH
	DB	088H
	DB	060H
	DB	00H
	DB	0ffH
	DB	088H
	DB	060H
	DB	08H
	DB	0ffH
	DB	080H
	DB	064H
	DB	00H
	DB	0ffH
	DB	088H
	DB	060H
	DB	00H
	DB	0ffH
	DB	088H
	DB	060H
	DB	00H
	DB	0ffH
	DB	080H
	DB	064H
	DB	00H
	DB	0ffH
	DB	088H
	DB	060H
	DB	08H
	DB	0ffH
	DB	088H
	DB	060H
	DB	00H
	DB	0ffH
	DB	088H
	DB	064H
	DB	00H
	DB	0ffH
	DB	080H
	DB	060H
	DB	00H
	DB	0ffH
	DB	088H
	DB	060H
	DB	08H
	DB	0ffH
	DB	088H
	DB	064H
	DB	00H
	DB	0ffH
	DB	080H
	DB	060H
	DB	00H
	DB	0ffH
	DB	088H
	DB	060H
	DB	00H
	DB	0ffH
	DB	088H
	DB	064H
	DB	00H
	DB	0ffH
	DB	088H
	DB	060H
	DB	08H
	DB	0ffH
	DB	080H
	DB	060H
	DB	00H
	DB	0ffH
	DB	088H
	DB	064H
	DB	00H
	DB	0ffH
	DB	088H
	DB	060H
	DB	00H
	DB	0ffH
	DB	080H
	DB	060H
	DB	08H
	DB	0ffH
	DB	088H
	DB	064H
	DB	00H
	DB	0ffH
	DB	088H
	DB	060H
	DB	00H
	DB	0ffH
	DB	080H
	DB	060H
	DB	00H
	DB	0ffH
	DB	088H
	DB	064H
	DB	00H
	DB	0ffH
	DB	088H
	DB	060H
	DB	08H
	DB	0ffH
	DB	088H
	DB	060H
	DB	00H
	DB	0ffH
	DB	080H
	DB	064H
	DB	00H
	DB	0ffH
	DB	080H
	DB	060H
	DB	00H
	DB	0ffH
	DB	088H
	DB	060H
	DB	08H
	DB	0ffH
	DB	088H
	DB	064H
	DB	00H
	DB	0ffH
	DB	080H
	DB	060H
	DB	00H
	DB	0ffH
	DB	088H
	DB	060H
	DB	00H
	DB	0ffH
	DB	088H
	DB	064H
	DB	00H
	DB	0ffH
	DB	088H
	DB	060H
	DB	08H
	DB	0ffH
	DB	080H
	DB	064H
	DB	00H
	DB	0ffH
	DB	088H
	DB	064H
	DB	00H
	DB	0ffH
	DB	088H
	DB	060H
	DB	00H
	DB	0ffH
	DB	080H
	DB	064H
	DB	00H
	DB	0ffH
	DB	088H
	DB	064H
	DB	00H
	DB	0ffH
	DB	088H
	DB	064H
	DB	00H
	DB	0ffH
	DB	080H
	DB	060H
	DB	00H
	DB	0ffH
	DB	078H
	DB	05cH
	DB	00H
	DB	0ffH
	DB	068H
	DB	050H
	DB	00H
	DB	0ffH
	DB	00H
	DB	00H
	DB	00H
	DB	00H
	DB	00H
	DB	00H
	DB	00H
	DB	00H
	DB	00H
	DB	00H
	DB	00H
	DB	00H
	DB	00H
	DB	00H
	DB	00H
	DB	00H
	DB	00H
	DB	00H
	DB	00H
	DB	00H
	DB	00H
	DB	00H
	DB	00H
	DB	00H
	DB	00H
	DB	00H
	DB	00H
	DB	00H
	DB	00H
	DB	00H
	DB	00H
	DB	00H
	DB	00H
	DB	00H
	DB	00H
	DB	00H
	DB	00H
	DB	00H
	DB	00H
	DB	00H
	DB	068H
	DB	050H
	DB	00H
	DB	0ffH
	DB	078H
	DB	05cH
	DB	00H
	DB	0ffH
	DB	088H
	DB	060H
	DB	08H
	DB	0ffH
	DB	088H
	DB	064H
	DB	00H
	DB	0ffH
	DB	088H
	DB	064H
	DB	00H
	DB	0ffH
	DB	088H
	DB	064H
	DB	00H
	DB	0ffH
	DB	088H
	DB	064H
	DB	00H
	DB	0ffH
	DB	088H
	DB	064H
	DB	00H
	DB	0ffH
	DB	088H
	DB	064H
	DB	00H
	DB	0ffH
	DB	088H
	DB	064H
	DB	00H
	DB	0ffH
	DB	088H
	DB	064H
	DB	00H
	DB	0ffH
	DB	088H
	DB	064H
	DB	00H
	DB	0ffH
	DB	088H
	DB	064H
	DB	08H
	DB	0ffH
	DB	088H
	DB	064H
	DB	00H
	DB	0ffH
	DB	088H
	DB	064H
	DB	00H
	DB	0ffH
	DB	088H
	DB	064H
	DB	00H
	DB	0ffH
	DB	088H
	DB	064H
	DB	00H
	DB	0ffH
	DB	088H
	DB	064H
	DB	00H
	DB	0ffH
	DB	088H
	DB	064H
	DB	00H
	DB	0ffH
	DB	088H
	DB	064H
	DB	00H
	DB	0ffH
	DB	088H
	DB	064H
	DB	00H
	DB	0ffH
	DB	088H
	DB	064H
	DB	08H
	DB	0ffH
	DB	088H
	DB	064H
	DB	00H
	DB	0ffH
	DB	088H
	DB	064H
	DB	00H
	DB	0ffH
	DB	088H
	DB	064H
	DB	00H
	DB	0ffH
	DB	088H
	DB	064H
	DB	00H
	DB	0ffH
	DB	088H
	DB	064H
	DB	00H
	DB	0ffH
	DB	088H
	DB	064H
	DB	00H
	DB	0ffH
	DB	088H
	DB	064H
	DB	00H
	DB	0ffH
	DB	088H
	DB	064H
	DB	00H
	DB	0ffH
	DB	088H
	DB	064H
	DB	08H
	DB	0ffH
	DB	088H
	DB	064H
	DB	00H
	DB	0ffH
	DB	088H
	DB	064H
	DB	00H
	DB	0ffH
	DB	088H
	DB	064H
	DB	00H
	DB	0ffH
	DB	088H
	DB	064H
	DB	00H
	DB	0ffH
	DB	088H
	DB	064H
	DB	00H
	DB	0ffH
	DB	088H
	DB	064H
	DB	00H
	DB	0ffH
	DB	088H
	DB	064H
	DB	00H
	DB	0ffH
	DB	088H
	DB	064H
	DB	00H
	DB	0ffH
	DB	088H
	DB	064H
	DB	08H
	DB	0ffH
	DB	088H
	DB	064H
	DB	00H
	DB	0ffH
	DB	088H
	DB	064H
	DB	00H
	DB	0ffH
	DB	088H
	DB	064H
	DB	00H
	DB	0ffH
	DB	088H
	DB	064H
	DB	00H
	DB	0ffH
	DB	088H
	DB	064H
	DB	00H
	DB	0ffH
	DB	088H
	DB	064H
	DB	00H
	DB	0ffH
	DB	088H
	DB	064H
	DB	00H
	DB	0ffH
	DB	088H
	DB	064H
	DB	00H
	DB	0ffH
	DB	088H
	DB	064H
	DB	08H
	DB	0ffH
	DB	088H
	DB	064H
	DB	00H
	DB	0ffH
	DB	088H
	DB	064H
	DB	00H
	DB	0ffH
	DB	088H
	DB	064H
	DB	00H
	DB	0ffH
	DB	088H
	DB	064H
	DB	00H
	DB	0ffH
	DB	088H
	DB	064H
	DB	00H
	DB	0ffH
	DB	088H
	DB	064H
	DB	00H
	DB	0ffH
	DB	088H
	DB	064H
	DB	00H
	DB	0ffH
	DB	088H
	DB	064H
	DB	00H
	DB	0ffH
	DB	088H
	DB	064H
	DB	08H
	DB	0ffH
	DB	088H
	DB	064H
	DB	00H
	DB	0ffH
	DB	088H
	DB	064H
	DB	00H
	DB	0ffH
	DB	088H
	DB	064H
	DB	00H
	DB	0ffH
	DB	088H
	DB	064H
	DB	00H
	DB	0ffH
	DB	088H
	DB	064H
	DB	00H
	DB	0ffH
	DB	088H
	DB	064H
	DB	00H
	DB	0ffH
	DB	088H
	DB	064H
	DB	00H
	DB	0ffH
	DB	088H
	DB	064H
	DB	00H
	DB	0ffH
	DB	088H
	DB	064H
	DB	08H
	DB	0ffH
	DB	088H
	DB	064H
	DB	00H
	DB	0ffH
	DB	088H
	DB	064H
	DB	00H
	DB	0ffH
	DB	088H
	DB	064H
	DB	00H
	DB	0ffH
	DB	088H
	DB	064H
	DB	00H
	DB	0ffH
	DB	088H
	DB	064H
	DB	00H
	DB	0ffH
	DB	088H
	DB	064H
	DB	00H
	DB	0ffH
	DB	088H
	DB	064H
	DB	00H
	DB	0ffH
	DB	088H
	DB	064H
	DB	00H
	DB	0ffH
	DB	088H
	DB	064H
	DB	08H
	DB	0ffH
	DB	088H
	DB	064H
	DB	00H
	DB	0ffH
	DB	088H
	DB	064H
	DB	00H
	DB	0ffH
	DB	088H
	DB	064H
	DB	00H
	DB	0ffH
	DB	088H
	DB	064H
	DB	00H
	DB	0ffH
	DB	088H
	DB	064H
	DB	00H
	DB	0ffH
	DB	088H
	DB	064H
	DB	00H
	DB	0ffH
	DB	088H
	DB	064H
	DB	00H
	DB	0ffH
	DB	088H
	DB	064H
	DB	00H
	DB	0ffH
	DB	088H
	DB	064H
	DB	08H
	DB	0ffH
	DB	088H
	DB	064H
	DB	00H
	DB	0ffH
	DB	088H
	DB	064H
	DB	00H
	DB	0ffH
	DB	088H
	DB	064H
	DB	00H
	DB	0ffH
	DB	088H
	DB	064H
	DB	00H
	DB	0ffH
	DB	088H
	DB	064H
	DB	00H
	DB	0ffH
	DB	088H
	DB	064H
	DB	00H
	DB	0ffH
	DB	088H
	DB	064H
	DB	00H
	DB	0ffH
	DB	088H
	DB	064H
	DB	00H
	DB	0ffH
	DB	088H
	DB	064H
	DB	08H
	DB	0ffH
	DB	088H
	DB	064H
	DB	00H
	DB	0ffH
	DB	088H
	DB	064H
	DB	00H
	DB	0ffH
	DB	088H
	DB	064H
	DB	00H
	DB	0ffH
	DB	088H
	DB	064H
	DB	00H
	DB	0ffH
	DB	088H
	DB	064H
	DB	00H
	DB	0ffH
	DB	088H
	DB	064H
	DB	00H
	DB	0ffH
	DB	088H
	DB	064H
	DB	00H
	DB	0ffH
	DB	088H
	DB	064H
	DB	00H
	DB	0ffH
	DB	088H
	DB	064H
	DB	08H
	DB	0ffH
	DB	088H
	DB	064H
	DB	00H
	DB	0ffH
	DB	088H
	DB	064H
	DB	00H
	DB	0ffH
	DB	088H
	DB	064H
	DB	00H
	DB	0ffH
	DB	088H
	DB	064H
	DB	00H
	DB	0ffH
	DB	088H
	DB	064H
	DB	00H
	DB	0ffH
	DB	088H
	DB	064H
	DB	00H
	DB	0ffH
	DB	088H
	DB	064H
	DB	00H
	DB	0ffH
	DB	088H
	DB	064H
	DB	00H
	DB	0ffH
	DB	088H
	DB	064H
	DB	08H
	DB	0ffH
	DB	088H
	DB	064H
	DB	00H
	DB	0ffH
	DB	088H
	DB	064H
	DB	00H
	DB	0ffH
	DB	088H
	DB	064H
	DB	00H
	DB	0ffH
	DB	088H
	DB	064H
	DB	00H
	DB	0ffH
	DB	088H
	DB	064H
	DB	00H
	DB	0ffH
	DB	088H
	DB	064H
	DB	00H
	DB	0ffH
	DB	088H
	DB	064H
	DB	00H
	DB	0ffH
	DB	088H
	DB	064H
	DB	00H
	DB	0ffH
	DB	088H
	DB	064H
	DB	08H
	DB	0ffH
	DB	088H
	DB	064H
	DB	00H
	DB	0ffH
	DB	088H
	DB	064H
	DB	00H
	DB	0ffH
	DB	088H
	DB	064H
	DB	00H
	DB	0ffH
	DB	088H
	DB	064H
	DB	00H
	DB	0ffH
	DB	088H
	DB	064H
	DB	00H
	DB	0ffH
	DB	088H
	DB	064H
	DB	00H
	DB	0ffH
	DB	088H
	DB	064H
	DB	00H
	DB	0ffH
	DB	088H
	DB	064H
	DB	00H
	DB	0ffH
	DB	088H
	DB	064H
	DB	08H
	DB	0ffH
	DB	088H
	DB	064H
	DB	00H
	DB	0ffH
	DB	088H
	DB	064H
	DB	00H
	DB	0ffH
	DB	088H
	DB	064H
	DB	00H
	DB	0ffH
	DB	088H
	DB	064H
	DB	00H
	DB	0ffH
	DB	088H
	DB	064H
	DB	00H
	DB	0ffH
	DB	088H
	DB	064H
	DB	00H
	DB	0ffH
	DB	088H
	DB	064H
	DB	00H
	DB	0ffH
	DB	088H
	DB	064H
	DB	00H
	DB	0ffH
	DB	088H
	DB	064H
	DB	08H
	DB	0ffH
	DB	088H
	DB	064H
	DB	00H
	DB	0ffH
	DB	088H
	DB	064H
	DB	00H
	DB	0ffH
	DB	088H
	DB	064H
	DB	00H
	DB	0ffH
	DB	088H
	DB	064H
	DB	00H
	DB	0ffH
	DB	088H
	DB	064H
	DB	00H
	DB	0ffH
	DB	088H
	DB	064H
	DB	00H
	DB	0ffH
	DB	088H
	DB	064H
	DB	00H
	DB	0ffH
	DB	088H
	DB	064H
	DB	00H
	DB	0ffH
	DB	088H
	DB	064H
	DB	08H
	DB	0ffH
	DB	088H
	DB	064H
	DB	00H
	DB	0ffH
	DB	088H
	DB	064H
	DB	00H
	DB	0ffH
	DB	088H
	DB	064H
	DB	00H
	DB	0ffH
	DB	088H
	DB	064H
	DB	00H
	DB	0ffH
	DB	088H
	DB	064H
	DB	08H
	DB	0ffH
	DB	088H
	DB	064H
	DB	00H
	DB	0ffH
	DB	088H
	DB	064H
	DB	00H
	DB	0ffH
	DB	088H
	DB	064H
	DB	08H
	DB	0ffH
	DB	088H
	DB	064H
	DB	00H
	DB	0ffH
	DB	088H
	DB	060H
	DB	00H
	DB	0ffH
	DB	078H
	DB	05cH
	DB	00H
	DB	0ffH
	DB	068H
	DB	050H
	DB	00H
	DB	0ffH
	DB	00H
	DB	00H
	DB	00H
	DB	00H
	DB	00H
	DB	00H
	DB	00H
	DB	00H
	DB	00H
	DB	00H
	DB	00H
	DB	00H
	DB	00H
	DB	00H
	DB	00H
	DB	00H
	DB	00H
	DB	00H
	DB	00H
	DB	00H
	DB	00H
	DB	00H
	DB	00H
	DB	00H
	DB	00H
	DB	00H
	DB	00H
	DB	00H
	DB	00H
	DB	00H
	DB	00H
	DB	00H
	DB	00H
	DB	00H
	DB	00H
	DB	00H
	DB	00H
	DB	00H
	DB	00H
	DB	00H
	DB	068H
	DB	050H
	DB	00H
	DB	0ffH
	DB	080H
	DB	05cH
	DB	00H
	DB	0ffH
	DB	088H
	DB	060H
	DB	00H
	DB	0ffH
	DB	088H
	DB	064H
	DB	00H
	DB	0ffH
	DB	088H
	DB	064H
	DB	00H
	DB	0ffH
	DB	088H
	DB	064H
	DB	08H
	DB	0ffH
	DB	088H
	DB	064H
	DB	00H
	DB	0ffH
	DB	080H
	DB	064H
	DB	00H
	DB	0ffH
	DB	088H
	DB	064H
	DB	08H
	DB	0ffH
	DB	088H
	DB	064H
	DB	00H
	DB	0ffH
	DB	088H
	DB	064H
	DB	00H
	DB	0ffH
	DB	088H
	DB	064H
	DB	00H
	DB	0ffH
	DB	088H
	DB	064H
	DB	00H
	DB	0ffH
	DB	088H
	DB	064H
	DB	00H
	DB	0ffH
	DB	088H
	DB	064H
	DB	00H
	DB	0ffH
	DB	088H
	DB	064H
	DB	00H
	DB	0ffH
	DB	088H
	DB	064H
	DB	08H
	DB	0ffH
	DB	088H
	DB	064H
	DB	00H
	DB	0ffH
	DB	088H
	DB	064H
	DB	00H
	DB	0ffH
	DB	088H
	DB	064H
	DB	00H
	DB	0ffH
	DB	088H
	DB	064H
	DB	00H
	DB	0ffH
	DB	088H
	DB	064H
	DB	00H
	DB	0ffH
	DB	088H
	DB	064H
	DB	00H
	DB	0ffH
	DB	088H
	DB	064H
	DB	00H
	DB	0ffH
	DB	088H
	DB	064H
	DB	00H
	DB	0ffH
	DB	088H
	DB	064H
	DB	08H
	DB	0ffH
	DB	088H
	DB	064H
	DB	00H
	DB	0ffH
	DB	088H
	DB	064H
	DB	00H
	DB	0ffH
	DB	088H
	DB	064H
	DB	00H
	DB	0ffH
	DB	088H
	DB	064H
	DB	00H
	DB	0ffH
	DB	088H
	DB	064H
	DB	00H
	DB	0ffH
	DB	088H
	DB	064H
	DB	00H
	DB	0ffH
	DB	088H
	DB	064H
	DB	00H
	DB	0ffH
	DB	088H
	DB	064H
	DB	00H
	DB	0ffH
	DB	088H
	DB	064H
	DB	08H
	DB	0ffH
	DB	088H
	DB	064H
	DB	00H
	DB	0ffH
	DB	088H
	DB	064H
	DB	00H
	DB	0ffH
	DB	088H
	DB	064H
	DB	00H
	DB	0ffH
	DB	088H
	DB	064H
	DB	00H
	DB	0ffH
	DB	088H
	DB	064H
	DB	00H
	DB	0ffH
	DB	088H
	DB	064H
	DB	00H
	DB	0ffH
	DB	088H
	DB	064H
	DB	00H
	DB	0ffH
	DB	088H
	DB	064H
	DB	00H
	DB	0ffH
	DB	088H
	DB	064H
	DB	08H
	DB	0ffH
	DB	088H
	DB	064H
	DB	00H
	DB	0ffH
	DB	088H
	DB	064H
	DB	00H
	DB	0ffH
	DB	088H
	DB	064H
	DB	00H
	DB	0ffH
	DB	088H
	DB	064H
	DB	00H
	DB	0ffH
	DB	088H
	DB	064H
	DB	00H
	DB	0ffH
	DB	088H
	DB	064H
	DB	00H
	DB	0ffH
	DB	088H
	DB	064H
	DB	00H
	DB	0ffH
	DB	088H
	DB	064H
	DB	00H
	DB	0ffH
	DB	088H
	DB	064H
	DB	08H
	DB	0ffH
	DB	088H
	DB	064H
	DB	00H
	DB	0ffH
	DB	088H
	DB	064H
	DB	00H
	DB	0ffH
	DB	088H
	DB	064H
	DB	00H
	DB	0ffH
	DB	088H
	DB	064H
	DB	00H
	DB	0ffH
	DB	088H
	DB	064H
	DB	00H
	DB	0ffH
	DB	088H
	DB	064H
	DB	00H
	DB	0ffH
	DB	088H
	DB	064H
	DB	00H
	DB	0ffH
	DB	088H
	DB	064H
	DB	00H
	DB	0ffH
	DB	088H
	DB	064H
	DB	08H
	DB	0ffH
	DB	088H
	DB	064H
	DB	00H
	DB	0ffH
	DB	088H
	DB	064H
	DB	00H
	DB	0ffH
	DB	088H
	DB	064H
	DB	00H
	DB	0ffH
	DB	088H
	DB	064H
	DB	00H
	DB	0ffH
	DB	088H
	DB	064H
	DB	00H
	DB	0ffH
	DB	088H
	DB	064H
	DB	00H
	DB	0ffH
	DB	088H
	DB	064H
	DB	00H
	DB	0ffH
	DB	088H
	DB	064H
	DB	00H
	DB	0ffH
	DB	088H
	DB	064H
	DB	08H
	DB	0ffH
	DB	088H
	DB	064H
	DB	00H
	DB	0ffH
	DB	088H
	DB	064H
	DB	00H
	DB	0ffH
	DB	088H
	DB	064H
	DB	00H
	DB	0ffH
	DB	088H
	DB	064H
	DB	00H
	DB	0ffH
	DB	088H
	DB	064H
	DB	00H
	DB	0ffH
	DB	088H
	DB	064H
	DB	00H
	DB	0ffH
	DB	088H
	DB	064H
	DB	00H
	DB	0ffH
	DB	088H
	DB	064H
	DB	00H
	DB	0ffH
	DB	088H
	DB	064H
	DB	08H
	DB	0ffH
	DB	088H
	DB	064H
	DB	00H
	DB	0ffH
	DB	088H
	DB	064H
	DB	00H
	DB	0ffH
	DB	088H
	DB	064H
	DB	00H
	DB	0ffH
	DB	088H
	DB	064H
	DB	00H
	DB	0ffH
	DB	088H
	DB	064H
	DB	00H
	DB	0ffH
	DB	088H
	DB	064H
	DB	00H
	DB	0ffH
	DB	088H
	DB	064H
	DB	00H
	DB	0ffH
	DB	088H
	DB	064H
	DB	00H
	DB	0ffH
	DB	088H
	DB	064H
	DB	08H
	DB	0ffH
	DB	088H
	DB	064H
	DB	00H
	DB	0ffH
	DB	088H
	DB	064H
	DB	00H
	DB	0ffH
	DB	088H
	DB	064H
	DB	00H
	DB	0ffH
	DB	088H
	DB	064H
	DB	00H
	DB	0ffH
	DB	088H
	DB	064H
	DB	00H
	DB	0ffH
	DB	088H
	DB	064H
	DB	00H
	DB	0ffH
	DB	088H
	DB	064H
	DB	00H
	DB	0ffH
	DB	088H
	DB	064H
	DB	00H
	DB	0ffH
	DB	088H
	DB	064H
	DB	08H
	DB	0ffH
	DB	088H
	DB	064H
	DB	00H
	DB	0ffH
	DB	088H
	DB	064H
	DB	00H
	DB	0ffH
	DB	088H
	DB	064H
	DB	00H
	DB	0ffH
	DB	088H
	DB	064H
	DB	00H
	DB	0ffH
	DB	088H
	DB	064H
	DB	00H
	DB	0ffH
	DB	088H
	DB	064H
	DB	00H
	DB	0ffH
	DB	088H
	DB	064H
	DB	00H
	DB	0ffH
	DB	088H
	DB	064H
	DB	00H
	DB	0ffH
	DB	088H
	DB	064H
	DB	08H
	DB	0ffH
	DB	088H
	DB	064H
	DB	00H
	DB	0ffH
	DB	088H
	DB	064H
	DB	00H
	DB	0ffH
	DB	088H
	DB	064H
	DB	00H
	DB	0ffH
	DB	088H
	DB	064H
	DB	00H
	DB	0ffH
	DB	088H
	DB	064H
	DB	00H
	DB	0ffH
	DB	088H
	DB	064H
	DB	00H
	DB	0ffH
	DB	088H
	DB	064H
	DB	00H
	DB	0ffH
	DB	088H
	DB	064H
	DB	00H
	DB	0ffH
	DB	088H
	DB	064H
	DB	08H
	DB	0ffH
	DB	088H
	DB	064H
	DB	00H
	DB	0ffH
	DB	088H
	DB	064H
	DB	00H
	DB	0ffH
	DB	088H
	DB	064H
	DB	00H
	DB	0ffH
	DB	088H
	DB	064H
	DB	00H
	DB	0ffH
	DB	088H
	DB	064H
	DB	00H
	DB	0ffH
	DB	088H
	DB	064H
	DB	00H
	DB	0ffH
	DB	088H
	DB	064H
	DB	00H
	DB	0ffH
	DB	088H
	DB	064H
	DB	00H
	DB	0ffH
	DB	088H
	DB	064H
	DB	08H
	DB	0ffH
	DB	088H
	DB	064H
	DB	00H
	DB	0ffH
	DB	088H
	DB	064H
	DB	00H
	DB	0ffH
	DB	088H
	DB	064H
	DB	00H
	DB	0ffH
	DB	088H
	DB	064H
	DB	00H
	DB	0ffH
	DB	088H
	DB	064H
	DB	00H
	DB	0ffH
	DB	088H
	DB	064H
	DB	00H
	DB	0ffH
	DB	088H
	DB	064H
	DB	00H
	DB	0ffH
	DB	088H
	DB	064H
	DB	00H
	DB	0ffH
	DB	088H
	DB	064H
	DB	08H
	DB	0ffH
	DB	088H
	DB	064H
	DB	00H
	DB	0ffH
	DB	088H
	DB	064H
	DB	00H
	DB	0ffH
	DB	088H
	DB	064H
	DB	00H
	DB	0ffH
	DB	088H
	DB	064H
	DB	00H
	DB	0ffH
	DB	088H
	DB	064H
	DB	00H
	DB	0ffH
	DB	088H
	DB	064H
	DB	00H
	DB	0ffH
	DB	088H
	DB	064H
	DB	00H
	DB	0ffH
	DB	088H
	DB	064H
	DB	00H
	DB	0ffH
	DB	088H
	DB	064H
	DB	08H
	DB	0ffH
	DB	088H
	DB	064H
	DB	00H
	DB	0ffH
	DB	088H
	DB	064H
	DB	00H
	DB	0ffH
	DB	088H
	DB	064H
	DB	00H
	DB	0ffH
	DB	088H
	DB	064H
	DB	00H
	DB	0ffH
	DB	088H
	DB	064H
	DB	00H
	DB	0ffH
	DB	088H
	DB	064H
	DB	00H
	DB	0ffH
	DB	088H
	DB	064H
	DB	00H
	DB	0ffH
	DB	088H
	DB	064H
	DB	00H
	DB	0ffH
	DB	088H
	DB	064H
	DB	00H
	DB	0ffH
	DB	088H
	DB	064H
	DB	00H
	DB	0ffH
	DB	088H
	DB	064H
	DB	00H
	DB	0ffH
	DB	088H
	DB	064H
	DB	00H
	DB	0ffH
	DB	088H
	DB	064H
	DB	00H
	DB	0ffH
	DB	088H
	DB	064H
	DB	00H
	DB	0ffH
	DB	088H
	DB	060H
	DB	08H
	DB	0ffH
	DB	078H
	DB	05cH
	DB	00H
	DB	0ffH
	DB	068H
	DB	050H
	DB	00H
	DB	0ffH
	DB	00H
	DB	00H
	DB	00H
	DB	00H
	DB	00H
	DB	00H
	DB	00H
	DB	00H
	DB	00H
	DB	00H
	DB	00H
	DB	00H
	DB	00H
	DB	00H
	DB	00H
	DB	00H
	DB	00H
	DB	00H
	DB	00H
	DB	00H
	DB	00H
	DB	00H
	DB	00H
	DB	00H
	DB	00H
	DB	00H
	DB	00H
	DB	00H
	DB	00H
	DB	00H
	DB	00H
	DB	00H
	DB	00H
	DB	00H
	DB	00H
	DB	00H
	DB	00H
	DB	00H
	DB	00H
	DB	00H
	DB	068H
	DB	050H
	DB	00H
	DB	0ffH
	DB	080H
	DB	05cH
	DB	00H
	DB	0ffH
	DB	088H
	DB	060H
	DB	00H
	DB	0ffH
	DB	088H
	DB	064H
	DB	00H
	DB	0ffH
	DB	088H
	DB	064H
	DB	00H
	DB	0ffH
	DB	088H
	DB	064H
	DB	00H
	DB	0ffH
	DB	088H
	DB	064H
	DB	00H
	DB	0ffH
	DB	088H
	DB	064H
	DB	00H
	DB	0ffH
	DB	088H
	DB	064H
	DB	00H
	DB	0ffH
	DB	088H
	DB	064H
	DB	00H
	DB	0ffH
	DB	088H
	DB	064H
	DB	00H
	DB	0ffH
	DB	088H
	DB	064H
	DB	00H
	DB	0ffH
	DB	088H
	DB	064H
	DB	00H
	DB	0ffH
	DB	088H
	DB	064H
	DB	00H
	DB	0ffH
	DB	088H
	DB	064H
	DB	00H
	DB	0ffH
	DB	088H
	DB	064H
	DB	00H
	DB	0ffH
	DB	088H
	DB	064H
	DB	00H
	DB	0ffH
	DB	088H
	DB	064H
	DB	00H
	DB	0ffH
	DB	088H
	DB	064H
	DB	00H
	DB	0ffH
	DB	088H
	DB	064H
	DB	08H
	DB	0ffH
	DB	088H
	DB	064H
	DB	00H
	DB	0ffH
	DB	088H
	DB	064H
	DB	00H
	DB	0ffH
	DB	088H
	DB	064H
	DB	00H
	DB	0ffH
	DB	088H
	DB	064H
	DB	00H
	DB	0ffH
	DB	088H
	DB	064H
	DB	00H
	DB	0ffH
	DB	088H
	DB	064H
	DB	00H
	DB	0ffH
	DB	088H
	DB	064H
	DB	00H
	DB	0ffH
	DB	088H
	DB	064H
	DB	00H
	DB	0ffH
	DB	088H
	DB	064H
	DB	08H
	DB	0ffH
	DB	088H
	DB	064H
	DB	00H
	DB	0ffH
	DB	088H
	DB	064H
	DB	00H
	DB	0ffH
	DB	088H
	DB	064H
	DB	00H
	DB	0ffH
	DB	088H
	DB	064H
	DB	00H
	DB	0ffH
	DB	088H
	DB	064H
	DB	00H
	DB	0ffH
	DB	088H
	DB	064H
	DB	00H
	DB	0ffH
	DB	088H
	DB	064H
	DB	00H
	DB	0ffH
	DB	088H
	DB	064H
	DB	00H
	DB	0ffH
	DB	088H
	DB	064H
	DB	08H
	DB	0ffH
	DB	088H
	DB	064H
	DB	00H
	DB	0ffH
	DB	088H
	DB	064H
	DB	00H
	DB	0ffH
	DB	088H
	DB	064H
	DB	00H
	DB	0ffH
	DB	088H
	DB	064H
	DB	00H
	DB	0ffH
	DB	088H
	DB	064H
	DB	00H
	DB	0ffH
	DB	088H
	DB	064H
	DB	00H
	DB	0ffH
	DB	088H
	DB	064H
	DB	00H
	DB	0ffH
	DB	088H
	DB	064H
	DB	00H
	DB	0ffH
	DB	088H
	DB	064H
	DB	08H
	DB	0ffH
	DB	088H
	DB	064H
	DB	00H
	DB	0ffH
	DB	088H
	DB	064H
	DB	00H
	DB	0ffH
	DB	088H
	DB	064H
	DB	00H
	DB	0ffH
	DB	088H
	DB	064H
	DB	00H
	DB	0ffH
	DB	088H
	DB	064H
	DB	00H
	DB	0ffH
	DB	088H
	DB	064H
	DB	00H
	DB	0ffH
	DB	088H
	DB	064H
	DB	00H
	DB	0ffH
	DB	088H
	DB	064H
	DB	00H
	DB	0ffH
	DB	088H
	DB	064H
	DB	08H
	DB	0ffH
	DB	088H
	DB	064H
	DB	00H
	DB	0ffH
	DB	088H
	DB	064H
	DB	00H
	DB	0ffH
	DB	088H
	DB	064H
	DB	00H
	DB	0ffH
	DB	088H
	DB	064H
	DB	00H
	DB	0ffH
	DB	088H
	DB	064H
	DB	00H
	DB	0ffH
	DB	088H
	DB	064H
	DB	00H
	DB	0ffH
	DB	088H
	DB	064H
	DB	00H
	DB	0ffH
	DB	088H
	DB	064H
	DB	00H
	DB	0ffH
	DB	088H
	DB	064H
	DB	08H
	DB	0ffH
	DB	088H
	DB	064H
	DB	00H
	DB	0ffH
	DB	088H
	DB	064H
	DB	00H
	DB	0ffH
	DB	088H
	DB	064H
	DB	00H
	DB	0ffH
	DB	088H
	DB	064H
	DB	00H
	DB	0ffH
	DB	088H
	DB	064H
	DB	00H
	DB	0ffH
	DB	088H
	DB	064H
	DB	00H
	DB	0ffH
	DB	088H
	DB	064H
	DB	00H
	DB	0ffH
	DB	088H
	DB	064H
	DB	00H
	DB	0ffH
	DB	088H
	DB	064H
	DB	08H
	DB	0ffH
	DB	088H
	DB	064H
	DB	00H
	DB	0ffH
	DB	088H
	DB	064H
	DB	00H
	DB	0ffH
	DB	088H
	DB	064H
	DB	00H
	DB	0ffH
	DB	088H
	DB	064H
	DB	00H
	DB	0ffH
	DB	088H
	DB	064H
	DB	00H
	DB	0ffH
	DB	088H
	DB	064H
	DB	00H
	DB	0ffH
	DB	088H
	DB	064H
	DB	00H
	DB	0ffH
	DB	088H
	DB	064H
	DB	00H
	DB	0ffH
	DB	088H
	DB	064H
	DB	08H
	DB	0ffH
	DB	088H
	DB	064H
	DB	00H
	DB	0ffH
	DB	088H
	DB	064H
	DB	00H
	DB	0ffH
	DB	088H
	DB	064H
	DB	00H
	DB	0ffH
	DB	088H
	DB	064H
	DB	00H
	DB	0ffH
	DB	088H
	DB	064H
	DB	00H
	DB	0ffH
	DB	088H
	DB	064H
	DB	00H
	DB	0ffH
	DB	088H
	DB	064H
	DB	00H
	DB	0ffH
	DB	088H
	DB	064H
	DB	00H
	DB	0ffH
	DB	088H
	DB	064H
	DB	08H
	DB	0ffH
	DB	088H
	DB	064H
	DB	00H
	DB	0ffH
	DB	088H
	DB	064H
	DB	00H
	DB	0ffH
	DB	088H
	DB	064H
	DB	00H
	DB	0ffH
	DB	088H
	DB	064H
	DB	00H
	DB	0ffH
	DB	088H
	DB	064H
	DB	00H
	DB	0ffH
	DB	088H
	DB	064H
	DB	00H
	DB	0ffH
	DB	088H
	DB	064H
	DB	00H
	DB	0ffH
	DB	088H
	DB	064H
	DB	00H
	DB	0ffH
	DB	088H
	DB	064H
	DB	08H
	DB	0ffH
	DB	088H
	DB	064H
	DB	00H
	DB	0ffH
	DB	088H
	DB	064H
	DB	00H
	DB	0ffH
	DB	088H
	DB	064H
	DB	00H
	DB	0ffH
	DB	088H
	DB	064H
	DB	00H
	DB	0ffH
	DB	088H
	DB	064H
	DB	00H
	DB	0ffH
	DB	088H
	DB	064H
	DB	00H
	DB	0ffH
	DB	088H
	DB	064H
	DB	00H
	DB	0ffH
	DB	088H
	DB	064H
	DB	00H
	DB	0ffH
	DB	088H
	DB	064H
	DB	08H
	DB	0ffH
	DB	088H
	DB	064H
	DB	00H
	DB	0ffH
	DB	088H
	DB	064H
	DB	00H
	DB	0ffH
	DB	088H
	DB	064H
	DB	00H
	DB	0ffH
	DB	088H
	DB	064H
	DB	00H
	DB	0ffH
	DB	088H
	DB	064H
	DB	00H
	DB	0ffH
	DB	088H
	DB	064H
	DB	00H
	DB	0ffH
	DB	088H
	DB	064H
	DB	00H
	DB	0ffH
	DB	088H
	DB	064H
	DB	00H
	DB	0ffH
	DB	088H
	DB	064H
	DB	08H
	DB	0ffH
	DB	088H
	DB	064H
	DB	00H
	DB	0ffH
	DB	088H
	DB	064H
	DB	00H
	DB	0ffH
	DB	088H
	DB	064H
	DB	00H
	DB	0ffH
	DB	088H
	DB	064H
	DB	00H
	DB	0ffH
	DB	088H
	DB	064H
	DB	00H
	DB	0ffH
	DB	088H
	DB	064H
	DB	00H
	DB	0ffH
	DB	088H
	DB	064H
	DB	00H
	DB	0ffH
	DB	088H
	DB	064H
	DB	00H
	DB	0ffH
	DB	088H
	DB	064H
	DB	08H
	DB	0ffH
	DB	088H
	DB	064H
	DB	00H
	DB	0ffH
	DB	088H
	DB	064H
	DB	00H
	DB	0ffH
	DB	088H
	DB	064H
	DB	00H
	DB	0ffH
	DB	088H
	DB	064H
	DB	00H
	DB	0ffH
	DB	088H
	DB	064H
	DB	00H
	DB	0ffH
	DB	088H
	DB	064H
	DB	00H
	DB	0ffH
	DB	088H
	DB	064H
	DB	00H
	DB	0ffH
	DB	088H
	DB	064H
	DB	00H
	DB	0ffH
	DB	088H
	DB	064H
	DB	08H
	DB	0ffH
	DB	088H
	DB	064H
	DB	00H
	DB	0ffH
	DB	088H
	DB	064H
	DB	00H
	DB	0ffH
	DB	088H
	DB	064H
	DB	00H
	DB	0ffH
	DB	088H
	DB	064H
	DB	00H
	DB	0ffH
	DB	088H
	DB	064H
	DB	00H
	DB	0ffH
	DB	088H
	DB	064H
	DB	00H
	DB	0ffH
	DB	088H
	DB	064H
	DB	00H
	DB	0ffH
	DB	088H
	DB	064H
	DB	00H
	DB	0ffH
	DB	088H
	DB	064H
	DB	08H
	DB	0ffH
	DB	088H
	DB	064H
	DB	00H
	DB	0ffH
	DB	088H
	DB	064H
	DB	00H
	DB	0ffH
	DB	088H
	DB	064H
	DB	00H
	DB	0ffH
	DB	088H
	DB	064H
	DB	08H
	DB	0ffH
	DB	088H
	DB	064H
	DB	00H
	DB	0ffH
	DB	088H
	DB	064H
	DB	00H
	DB	0ffH
	DB	088H
	DB	064H
	DB	00H
	DB	0ffH
	DB	088H
	DB	064H
	DB	00H
	DB	0ffH
	DB	088H
	DB	064H
	DB	00H
	DB	0ffH
	DB	088H
	DB	064H
	DB	00H
	DB	0ffH
	DB	088H
	DB	064H
	DB	00H
	DB	0ffH
	DB	088H
	DB	060H
	DB	00H
	DB	0ffH
	DB	078H
	DB	05cH
	DB	00H
	DB	0ffH
	DB	070H
	DB	050H
	DB	00H
	DB	0ffH
	DB	00H
	DB	00H
	DB	00H
	DB	00H
	DB	00H
	DB	00H
	DB	00H
	DB	00H
	DB	00H
	DB	00H
	DB	00H
	DB	00H
	DB	00H
	DB	00H
	DB	00H
	DB	00H
	DB	00H
	DB	00H
	DB	00H
	DB	00H
	DB	00H
	DB	00H
	DB	00H
	DB	00H
	DB	00H
	DB	00H
	DB	00H
	DB	00H
	DB	00H
	DB	00H
	DB	00H
	DB	00H
	DB	00H
	DB	00H
	DB	00H
	DB	00H
	DB	00H
	DB	00H
	DB	00H
	DB	00H
	DB	068H
	DB	050H
	DB	00H
	DB	0ffH
	DB	078H
	DB	05cH
	DB	00H
	DB	0ffH
	DB	088H
	DB	064H
	DB	08H
	DB	0ffH
	DB	088H
	DB	064H
	DB	00H
	DB	0ffH
	DB	088H
	DB	064H
	DB	00H
	DB	0ffH
	DB	088H
	DB	064H
	DB	00H
	DB	0ffH
	DB	088H
	DB	064H
	DB	00H
	DB	0ffH
	DB	088H
	DB	064H
	DB	00H
	DB	0ffH
	DB	088H
	DB	064H
	DB	00H
	DB	0ffH
	DB	088H
	DB	064H
	DB	00H
	DB	0ffH
	DB	088H
	DB	064H
	DB	08H
	DB	0ffH
	DB	088H
	DB	064H
	DB	00H
	DB	0ffH
	DB	088H
	DB	064H
	DB	00H
	DB	0ffH
	DB	088H
	DB	064H
	DB	08H
	DB	0ffH
	DB	088H
	DB	064H
	DB	00H
	DB	0ffH
	DB	088H
	DB	064H
	DB	00H
	DB	0ffH
	DB	088H
	DB	064H
	DB	00H
	DB	0ffH
	DB	088H
	DB	064H
	DB	00H
	DB	0ffH
	DB	088H
	DB	064H
	DB	00H
	DB	0ffH
	DB	088H
	DB	064H
	DB	00H
	DB	0ffH
	DB	088H
	DB	064H
	DB	00H
	DB	0ffH
	DB	088H
	DB	064H
	DB	00H
	DB	0ffH
	DB	088H
	DB	064H
	DB	08H
	DB	0ffH
	DB	088H
	DB	064H
	DB	00H
	DB	0ffH
	DB	088H
	DB	064H
	DB	00H
	DB	0ffH
	DB	088H
	DB	064H
	DB	00H
	DB	0ffH
	DB	088H
	DB	064H
	DB	00H
	DB	0ffH
	DB	088H
	DB	064H
	DB	00H
	DB	0ffH
	DB	088H
	DB	064H
	DB	00H
	DB	0ffH
	DB	088H
	DB	064H
	DB	00H
	DB	0ffH
	DB	088H
	DB	064H
	DB	00H
	DB	0ffH
	DB	088H
	DB	064H
	DB	08H
	DB	0ffH
	DB	088H
	DB	064H
	DB	00H
	DB	0ffH
	DB	088H
	DB	064H
	DB	00H
	DB	0ffH
	DB	088H
	DB	064H
	DB	00H
	DB	0ffH
	DB	088H
	DB	064H
	DB	00H
	DB	0ffH
	DB	088H
	DB	064H
	DB	00H
	DB	0ffH
	DB	088H
	DB	064H
	DB	00H
	DB	0ffH
	DB	088H
	DB	064H
	DB	00H
	DB	0ffH
	DB	088H
	DB	064H
	DB	00H
	DB	0ffH
	DB	088H
	DB	064H
	DB	08H
	DB	0ffH
	DB	088H
	DB	064H
	DB	00H
	DB	0ffH
	DB	088H
	DB	064H
	DB	00H
	DB	0ffH
	DB	088H
	DB	064H
	DB	00H
	DB	0ffH
	DB	088H
	DB	064H
	DB	00H
	DB	0ffH
	DB	088H
	DB	064H
	DB	00H
	DB	0ffH
	DB	088H
	DB	064H
	DB	00H
	DB	0ffH
	DB	088H
	DB	064H
	DB	00H
	DB	0ffH
	DB	088H
	DB	064H
	DB	00H
	DB	0ffH
	DB	088H
	DB	064H
	DB	08H
	DB	0ffH
	DB	088H
	DB	064H
	DB	00H
	DB	0ffH
	DB	088H
	DB	064H
	DB	00H
	DB	0ffH
	DB	088H
	DB	064H
	DB	00H
	DB	0ffH
	DB	088H
	DB	064H
	DB	00H
	DB	0ffH
	DB	088H
	DB	064H
	DB	00H
	DB	0ffH
	DB	088H
	DB	064H
	DB	00H
	DB	0ffH
	DB	088H
	DB	064H
	DB	00H
	DB	0ffH
	DB	088H
	DB	064H
	DB	00H
	DB	0ffH
	DB	088H
	DB	064H
	DB	08H
	DB	0ffH
	DB	088H
	DB	064H
	DB	00H
	DB	0ffH
	DB	088H
	DB	064H
	DB	00H
	DB	0ffH
	DB	088H
	DB	064H
	DB	00H
	DB	0ffH
	DB	088H
	DB	064H
	DB	00H
	DB	0ffH
	DB	088H
	DB	064H
	DB	00H
	DB	0ffH
	DB	088H
	DB	064H
	DB	00H
	DB	0ffH
	DB	088H
	DB	064H
	DB	00H
	DB	0ffH
	DB	088H
	DB	064H
	DB	00H
	DB	0ffH
	DB	088H
	DB	064H
	DB	08H
	DB	0ffH
	DB	088H
	DB	064H
	DB	00H
	DB	0ffH
	DB	088H
	DB	064H
	DB	00H
	DB	0ffH
	DB	088H
	DB	064H
	DB	00H
	DB	0ffH
	DB	088H
	DB	064H
	DB	00H
	DB	0ffH
	DB	088H
	DB	064H
	DB	00H
	DB	0ffH
	DB	088H
	DB	064H
	DB	00H
	DB	0ffH
	DB	088H
	DB	064H
	DB	00H
	DB	0ffH
	DB	088H
	DB	064H
	DB	00H
	DB	0ffH
	DB	088H
	DB	064H
	DB	08H
	DB	0ffH
	DB	088H
	DB	064H
	DB	00H
	DB	0ffH
	DB	088H
	DB	064H
	DB	00H
	DB	0ffH
	DB	088H
	DB	064H
	DB	00H
	DB	0ffH
	DB	088H
	DB	064H
	DB	00H
	DB	0ffH
	DB	088H
	DB	064H
	DB	00H
	DB	0ffH
	DB	088H
	DB	064H
	DB	00H
	DB	0ffH
	DB	088H
	DB	064H
	DB	00H
	DB	0ffH
	DB	088H
	DB	064H
	DB	00H
	DB	0ffH
	DB	088H
	DB	064H
	DB	08H
	DB	0ffH
	DB	088H
	DB	064H
	DB	00H
	DB	0ffH
	DB	088H
	DB	064H
	DB	00H
	DB	0ffH
	DB	088H
	DB	064H
	DB	00H
	DB	0ffH
	DB	088H
	DB	064H
	DB	00H
	DB	0ffH
	DB	088H
	DB	064H
	DB	00H
	DB	0ffH
	DB	088H
	DB	064H
	DB	00H
	DB	0ffH
	DB	088H
	DB	064H
	DB	00H
	DB	0ffH
	DB	088H
	DB	064H
	DB	00H
	DB	0ffH
	DB	088H
	DB	064H
	DB	08H
	DB	0ffH
	DB	088H
	DB	064H
	DB	00H
	DB	0ffH
	DB	088H
	DB	064H
	DB	00H
	DB	0ffH
	DB	088H
	DB	064H
	DB	00H
	DB	0ffH
	DB	088H
	DB	064H
	DB	00H
	DB	0ffH
	DB	088H
	DB	064H
	DB	00H
	DB	0ffH
	DB	088H
	DB	064H
	DB	00H
	DB	0ffH
	DB	088H
	DB	064H
	DB	00H
	DB	0ffH
	DB	088H
	DB	064H
	DB	00H
	DB	0ffH
	DB	088H
	DB	064H
	DB	08H
	DB	0ffH
	DB	088H
	DB	064H
	DB	00H
	DB	0ffH
	DB	088H
	DB	064H
	DB	00H
	DB	0ffH
	DB	088H
	DB	064H
	DB	00H
	DB	0ffH
	DB	088H
	DB	064H
	DB	00H
	DB	0ffH
	DB	088H
	DB	064H
	DB	00H
	DB	0ffH
	DB	088H
	DB	064H
	DB	00H
	DB	0ffH
	DB	088H
	DB	064H
	DB	00H
	DB	0ffH
	DB	088H
	DB	064H
	DB	00H
	DB	0ffH
	DB	088H
	DB	064H
	DB	08H
	DB	0ffH
	DB	088H
	DB	064H
	DB	00H
	DB	0ffH
	DB	088H
	DB	064H
	DB	00H
	DB	0ffH
	DB	088H
	DB	064H
	DB	00H
	DB	0ffH
	DB	088H
	DB	064H
	DB	00H
	DB	0ffH
	DB	088H
	DB	064H
	DB	00H
	DB	0ffH
	DB	088H
	DB	064H
	DB	00H
	DB	0ffH
	DB	088H
	DB	064H
	DB	00H
	DB	0ffH
	DB	088H
	DB	064H
	DB	00H
	DB	0ffH
	DB	088H
	DB	064H
	DB	08H
	DB	0ffH
	DB	088H
	DB	064H
	DB	00H
	DB	0ffH
	DB	088H
	DB	064H
	DB	00H
	DB	0ffH
	DB	088H
	DB	064H
	DB	00H
	DB	0ffH
	DB	088H
	DB	064H
	DB	00H
	DB	0ffH
	DB	088H
	DB	064H
	DB	00H
	DB	0ffH
	DB	088H
	DB	064H
	DB	00H
	DB	0ffH
	DB	088H
	DB	064H
	DB	00H
	DB	0ffH
	DB	088H
	DB	064H
	DB	00H
	DB	0ffH
	DB	088H
	DB	064H
	DB	08H
	DB	0ffH
	DB	088H
	DB	064H
	DB	00H
	DB	0ffH
	DB	088H
	DB	064H
	DB	00H
	DB	0ffH
	DB	088H
	DB	064H
	DB	00H
	DB	0ffH
	DB	088H
	DB	064H
	DB	00H
	DB	0ffH
	DB	088H
	DB	064H
	DB	00H
	DB	0ffH
	DB	088H
	DB	064H
	DB	00H
	DB	0ffH
	DB	088H
	DB	064H
	DB	00H
	DB	0ffH
	DB	088H
	DB	064H
	DB	00H
	DB	0ffH
	DB	088H
	DB	064H
	DB	08H
	DB	0ffH
	DB	088H
	DB	064H
	DB	00H
	DB	0ffH
	DB	088H
	DB	064H
	DB	00H
	DB	0ffH
	DB	088H
	DB	064H
	DB	00H
	DB	0ffH
	DB	088H
	DB	064H
	DB	00H
	DB	0ffH
	DB	088H
	DB	064H
	DB	00H
	DB	0ffH
	DB	088H
	DB	064H
	DB	00H
	DB	0ffH
	DB	088H
	DB	064H
	DB	00H
	DB	0ffH
	DB	088H
	DB	064H
	DB	00H
	DB	0ffH
	DB	088H
	DB	064H
	DB	00H
	DB	0ffH
	DB	088H
	DB	064H
	DB	00H
	DB	0ffH
	DB	088H
	DB	064H
	DB	00H
	DB	0ffH
	DB	088H
	DB	064H
	DB	00H
	DB	0ffH
	DB	088H
	DB	064H
	DB	08H
	DB	0ffH
	DB	088H
	DB	064H
	DB	00H
	DB	0ffH
	DB	088H
	DB	064H
	DB	00H
	DB	0ffH
	DB	088H
	DB	064H
	DB	08H
	DB	0ffH
	DB	088H
	DB	064H
	DB	00H
	DB	0ffH
	DB	088H
	DB	064H
	DB	00H
	DB	0ffH
	DB	078H
	DB	05cH
	DB	00H
	DB	0ffH
	DB	068H
	DB	050H
	DB	08H
	DB	0ffH
	DB	00H
	DB	00H
	DB	00H
	DB	00H
	DB	00H
	DB	00H
	DB	00H
	DB	00H
	DB	00H
	DB	00H
	DB	00H
	DB	00H
	DB	00H
	DB	00H
	DB	00H
	DB	00H
	DB	00H
	DB	00H
	DB	00H
	DB	00H
	DB	00H
	DB	00H
	DB	00H
	DB	00H
	DB	00H
	DB	00H
	DB	00H
	DB	00H
	DB	00H
	DB	00H
	DB	00H
	DB	00H
	DB	00H
	DB	00H
	DB	00H
	DB	00H
	DB	00H
	DB	00H
	DB	00H
	DB	00H
	DB	070H
	DB	050H
	DB	00H
	DB	0ffH
	DB	080H
	DB	05cH
	DB	00H
	DB	0ffH
	DB	088H
	DB	064H
	DB	00H
	DB	0ffH
	DB	088H
	DB	064H
	DB	00H
	DB	0ffH
	DB	088H
	DB	064H
	DB	08H
	DB	0ffH
	DB	088H
	DB	064H
	DB	00H
	DB	0ffH
	DB	088H
	DB	064H
	DB	00H
	DB	0ffH
	DB	088H
	DB	064H
	DB	08H
	DB	0ffH
	DB	088H
	DB	064H
	DB	00H
	DB	0ffH
	DB	088H
	DB	064H
	DB	00H
	DB	0ffH
	DB	088H
	DB	064H
	DB	00H
	DB	0ffH
	DB	088H
	DB	064H
	DB	00H
	DB	0ffH
	DB	088H
	DB	068H
	DB	00H
	DB	0ffH
	DB	088H
	DB	064H
	DB	00H
	DB	0ffH
	DB	088H
	DB	064H
	DB	00H
	DB	0ffH
	DB	088H
	DB	068H
	DB	08H
	DB	0ffH
	DB	088H
	DB	064H
	DB	00H
	DB	0ffH
	DB	088H
	DB	064H
	DB	00H
	DB	0ffH
	DB	088H
	DB	068H
	DB	08H
	DB	0ffH
	DB	088H
	DB	064H
	DB	00H
	DB	0ffH
	DB	088H
	DB	064H
	DB	00H
	DB	0ffH
	DB	088H
	DB	068H
	DB	00H
	DB	0ffH
	DB	088H
	DB	064H
	DB	00H
	DB	0ffH
	DB	088H
	DB	064H
	DB	00H
	DB	0ffH
	DB	088H
	DB	068H
	DB	08H
	DB	0ffH
	DB	088H
	DB	064H
	DB	00H
	DB	0ffH
	DB	088H
	DB	064H
	DB	00H
	DB	0ffH
	DB	088H
	DB	068H
	DB	08H
	DB	0ffH
	DB	088H
	DB	064H
	DB	00H
	DB	0ffH
	DB	088H
	DB	064H
	DB	00H
	DB	0ffH
	DB	088H
	DB	068H
	DB	00H
	DB	0ffH
	DB	088H
	DB	064H
	DB	00H
	DB	0ffH
	DB	088H
	DB	064H
	DB	00H
	DB	0ffH
	DB	088H
	DB	068H
	DB	08H
	DB	0ffH
	DB	088H
	DB	064H
	DB	00H
	DB	0ffH
	DB	088H
	DB	064H
	DB	00H
	DB	0ffH
	DB	088H
	DB	068H
	DB	08H
	DB	0ffH
	DB	088H
	DB	064H
	DB	00H
	DB	0ffH
	DB	088H
	DB	064H
	DB	00H
	DB	0ffH
	DB	088H
	DB	068H
	DB	00H
	DB	0ffH
	DB	088H
	DB	064H
	DB	00H
	DB	0ffH
	DB	088H
	DB	064H
	DB	00H
	DB	0ffH
	DB	088H
	DB	068H
	DB	08H
	DB	0ffH
	DB	088H
	DB	064H
	DB	00H
	DB	0ffH
	DB	088H
	DB	064H
	DB	00H
	DB	0ffH
	DB	088H
	DB	068H
	DB	08H
	DB	0ffH
	DB	088H
	DB	064H
	DB	00H
	DB	0ffH
	DB	088H
	DB	064H
	DB	00H
	DB	0ffH
	DB	088H
	DB	068H
	DB	00H
	DB	0ffH
	DB	088H
	DB	064H
	DB	00H
	DB	0ffH
	DB	088H
	DB	064H
	DB	00H
	DB	0ffH
	DB	088H
	DB	068H
	DB	08H
	DB	0ffH
	DB	088H
	DB	064H
	DB	00H
	DB	0ffH
	DB	088H
	DB	064H
	DB	00H
	DB	0ffH
	DB	088H
	DB	068H
	DB	08H
	DB	0ffH
	DB	088H
	DB	064H
	DB	00H
	DB	0ffH
	DB	088H
	DB	064H
	DB	00H
	DB	0ffH
	DB	088H
	DB	068H
	DB	00H
	DB	0ffH
	DB	088H
	DB	064H
	DB	00H
	DB	0ffH
	DB	088H
	DB	064H
	DB	00H
	DB	0ffH
	DB	088H
	DB	068H
	DB	08H
	DB	0ffH
	DB	088H
	DB	064H
	DB	00H
	DB	0ffH
	DB	088H
	DB	064H
	DB	00H
	DB	0ffH
	DB	088H
	DB	068H
	DB	08H
	DB	0ffH
	DB	088H
	DB	064H
	DB	00H
	DB	0ffH
	DB	088H
	DB	064H
	DB	00H
	DB	0ffH
	DB	088H
	DB	068H
	DB	00H
	DB	0ffH
	DB	088H
	DB	064H
	DB	00H
	DB	0ffH
	DB	088H
	DB	064H
	DB	00H
	DB	0ffH
	DB	088H
	DB	068H
	DB	08H
	DB	0ffH
	DB	088H
	DB	064H
	DB	00H
	DB	0ffH
	DB	088H
	DB	064H
	DB	00H
	DB	0ffH
	DB	088H
	DB	068H
	DB	08H
	DB	0ffH
	DB	088H
	DB	064H
	DB	00H
	DB	0ffH
	DB	088H
	DB	064H
	DB	00H
	DB	0ffH
	DB	088H
	DB	068H
	DB	00H
	DB	0ffH
	DB	088H
	DB	064H
	DB	00H
	DB	0ffH
	DB	088H
	DB	064H
	DB	00H
	DB	0ffH
	DB	088H
	DB	068H
	DB	08H
	DB	0ffH
	DB	088H
	DB	064H
	DB	00H
	DB	0ffH
	DB	088H
	DB	064H
	DB	00H
	DB	0ffH
	DB	088H
	DB	068H
	DB	08H
	DB	0ffH
	DB	088H
	DB	064H
	DB	00H
	DB	0ffH
	DB	088H
	DB	064H
	DB	00H
	DB	0ffH
	DB	088H
	DB	068H
	DB	00H
	DB	0ffH
	DB	088H
	DB	064H
	DB	00H
	DB	0ffH
	DB	088H
	DB	064H
	DB	00H
	DB	0ffH
	DB	088H
	DB	068H
	DB	08H
	DB	0ffH
	DB	088H
	DB	064H
	DB	00H
	DB	0ffH
	DB	088H
	DB	064H
	DB	00H
	DB	0ffH
	DB	088H
	DB	068H
	DB	08H
	DB	0ffH
	DB	088H
	DB	064H
	DB	00H
	DB	0ffH
	DB	088H
	DB	064H
	DB	00H
	DB	0ffH
	DB	088H
	DB	068H
	DB	00H
	DB	0ffH
	DB	088H
	DB	064H
	DB	00H
	DB	0ffH
	DB	088H
	DB	064H
	DB	00H
	DB	0ffH
	DB	088H
	DB	068H
	DB	08H
	DB	0ffH
	DB	088H
	DB	064H
	DB	00H
	DB	0ffH
	DB	088H
	DB	064H
	DB	00H
	DB	0ffH
	DB	088H
	DB	068H
	DB	08H
	DB	0ffH
	DB	088H
	DB	064H
	DB	00H
	DB	0ffH
	DB	088H
	DB	064H
	DB	00H
	DB	0ffH
	DB	088H
	DB	068H
	DB	00H
	DB	0ffH
	DB	088H
	DB	064H
	DB	00H
	DB	0ffH
	DB	088H
	DB	064H
	DB	00H
	DB	0ffH
	DB	088H
	DB	068H
	DB	08H
	DB	0ffH
	DB	088H
	DB	064H
	DB	00H
	DB	0ffH
	DB	088H
	DB	064H
	DB	00H
	DB	0ffH
	DB	088H
	DB	068H
	DB	08H
	DB	0ffH
	DB	088H
	DB	064H
	DB	00H
	DB	0ffH
	DB	088H
	DB	064H
	DB	00H
	DB	0ffH
	DB	088H
	DB	068H
	DB	00H
	DB	0ffH
	DB	088H
	DB	064H
	DB	00H
	DB	0ffH
	DB	088H
	DB	064H
	DB	00H
	DB	0ffH
	DB	088H
	DB	068H
	DB	08H
	DB	0ffH
	DB	088H
	DB	064H
	DB	00H
	DB	0ffH
	DB	088H
	DB	064H
	DB	00H
	DB	0ffH
	DB	088H
	DB	068H
	DB	08H
	DB	0ffH
	DB	088H
	DB	064H
	DB	00H
	DB	0ffH
	DB	088H
	DB	064H
	DB	00H
	DB	0ffH
	DB	088H
	DB	068H
	DB	00H
	DB	0ffH
	DB	088H
	DB	064H
	DB	00H
	DB	0ffH
	DB	088H
	DB	064H
	DB	00H
	DB	0ffH
	DB	088H
	DB	068H
	DB	08H
	DB	0ffH
	DB	088H
	DB	064H
	DB	00H
	DB	0ffH
	DB	088H
	DB	064H
	DB	00H
	DB	0ffH
	DB	088H
	DB	068H
	DB	08H
	DB	0ffH
	DB	088H
	DB	064H
	DB	00H
	DB	0ffH
	DB	088H
	DB	064H
	DB	00H
	DB	0ffH
	DB	088H
	DB	068H
	DB	00H
	DB	0ffH
	DB	088H
	DB	064H
	DB	00H
	DB	0ffH
	DB	088H
	DB	064H
	DB	00H
	DB	0ffH
	DB	088H
	DB	068H
	DB	08H
	DB	0ffH
	DB	088H
	DB	064H
	DB	00H
	DB	0ffH
	DB	088H
	DB	064H
	DB	00H
	DB	0ffH
	DB	088H
	DB	068H
	DB	08H
	DB	0ffH
	DB	088H
	DB	064H
	DB	00H
	DB	0ffH
	DB	088H
	DB	064H
	DB	00H
	DB	0ffH
	DB	088H
	DB	068H
	DB	00H
	DB	0ffH
	DB	088H
	DB	064H
	DB	00H
	DB	0ffH
	DB	088H
	DB	064H
	DB	00H
	DB	0ffH
	DB	088H
	DB	068H
	DB	08H
	DB	0ffH
	DB	088H
	DB	064H
	DB	00H
	DB	0ffH
	DB	088H
	DB	064H
	DB	00H
	DB	0ffH
	DB	088H
	DB	068H
	DB	08H
	DB	0ffH
	DB	088H
	DB	064H
	DB	00H
	DB	0ffH
	DB	088H
	DB	064H
	DB	00H
	DB	0ffH
	DB	088H
	DB	068H
	DB	00H
	DB	0ffH
	DB	088H
	DB	064H
	DB	00H
	DB	0ffH
	DB	088H
	DB	064H
	DB	00H
	DB	0ffH
	DB	088H
	DB	064H
	DB	00H
	DB	0ffH
	DB	088H
	DB	064H
	DB	00H
	DB	0ffH
	DB	088H
	DB	064H
	DB	00H
	DB	0ffH
	DB	088H
	DB	064H
	DB	00H
	DB	0ffH
	DB	088H
	DB	064H
	DB	00H
	DB	0ffH
	DB	088H
	DB	064H
	DB	00H
	DB	0ffH
	DB	088H
	DB	064H
	DB	00H
	DB	0ffH
	DB	088H
	DB	064H
	DB	00H
	DB	0ffH
	DB	080H
	DB	05cH
	DB	00H
	DB	0ffH
	DB	068H
	DB	050H
	DB	00H
	DB	0ffH
	DB	00H
	DB	00H
	DB	00H
	DB	00H
	DB	00H
	DB	00H
	DB	00H
	DB	00H
	DB	00H
	DB	00H
	DB	00H
	DB	00H
	DB	00H
	DB	00H
	DB	00H
	DB	00H
	DB	00H
	DB	00H
	DB	00H
	DB	00H
	DB	00H
	DB	00H
	DB	00H
	DB	00H
	DB	00H
	DB	00H
	DB	00H
	DB	00H
	DB	00H
	DB	00H
	DB	00H
	DB	00H
	DB	00H
	DB	00H
	DB	00H
	DB	00H
	DB	00H
	DB	00H
	DB	00H
	DB	00H
	DB	068H
	DB	050H
	DB	00H
	DB	0ffH
	DB	080H
	DB	05cH
	DB	00H
	DB	0ffH
	DB	088H
	DB	064H
	DB	00H
	DB	0ffH
	DB	088H
	DB	064H
	DB	00H
	DB	0ffH
	DB	088H
	DB	064H
	DB	00H
	DB	0ffH
	DB	088H
	DB	068H
	DB	00H
	DB	0ffH
	DB	088H
	DB	068H
	DB	00H
	DB	0ffH
	DB	088H
	DB	064H
	DB	00H
	DB	0ffH
	DB	088H
	DB	068H
	DB	00H
	DB	0ffH
	DB	088H
	DB	068H
	DB	00H
	DB	0ffH
	DB	088H
	DB	064H
	DB	00H
	DB	0ffH
	DB	088H
	DB	064H
	DB	00H
	DB	0ffH
	DB	088H
	DB	068H
	DB	00H
	DB	0ffH
	DB	088H
	DB	064H
	DB	00H
	DB	0ffH
	DB	088H
	DB	064H
	DB	00H
	DB	0ffH
	DB	088H
	DB	064H
	DB	00H
	DB	0ffH
	DB	088H
	DB	064H
	DB	00H
	DB	0ffH
	DB	088H
	DB	068H
	DB	00H
	DB	0ffH
	DB	088H
	DB	064H
	DB	00H
	DB	0ffH
	DB	088H
	DB	064H
	DB	00H
	DB	0ffH
	DB	088H
	DB	064H
	DB	00H
	DB	0ffH
	DB	088H
	DB	068H
	DB	00H
	DB	0ffH
	DB	088H
	DB	064H
	DB	00H
	DB	0ffH
	DB	088H
	DB	064H
	DB	00H
	DB	0ffH
	DB	088H
	DB	068H
	DB	00H
	DB	0ffH
	DB	088H
	DB	064H
	DB	00H
	DB	0ffH
	DB	088H
	DB	064H
	DB	00H
	DB	0ffH
	DB	088H
	DB	064H
	DB	00H
	DB	0ffH
	DB	088H
	DB	068H
	DB	00H
	DB	0ffH
	DB	088H
	DB	064H
	DB	00H
	DB	0ffH
	DB	088H
	DB	064H
	DB	00H
	DB	0ffH
	DB	088H
	DB	064H
	DB	00H
	DB	0ffH
	DB	088H
	DB	068H
	DB	00H
	DB	0ffH
	DB	088H
	DB	064H
	DB	00H
	DB	0ffH
	DB	088H
	DB	064H
	DB	00H
	DB	0ffH
	DB	088H
	DB	064H
	DB	00H
	DB	0ffH
	DB	088H
	DB	068H
	DB	00H
	DB	0ffH
	DB	088H
	DB	064H
	DB	00H
	DB	0ffH
	DB	088H
	DB	064H
	DB	00H
	DB	0ffH
	DB	088H
	DB	068H
	DB	00H
	DB	0ffH
	DB	088H
	DB	064H
	DB	00H
	DB	0ffH
	DB	088H
	DB	064H
	DB	00H
	DB	0ffH
	DB	088H
	DB	064H
	DB	00H
	DB	0ffH
	DB	088H
	DB	068H
	DB	00H
	DB	0ffH
	DB	088H
	DB	064H
	DB	00H
	DB	0ffH
	DB	088H
	DB	064H
	DB	00H
	DB	0ffH
	DB	088H
	DB	064H
	DB	00H
	DB	0ffH
	DB	088H
	DB	068H
	DB	00H
	DB	0ffH
	DB	088H
	DB	064H
	DB	00H
	DB	0ffH
	DB	088H
	DB	064H
	DB	00H
	DB	0ffH
	DB	088H
	DB	064H
	DB	00H
	DB	0ffH
	DB	088H
	DB	068H
	DB	00H
	DB	0ffH
	DB	088H
	DB	064H
	DB	00H
	DB	0ffH
	DB	088H
	DB	064H
	DB	00H
	DB	0ffH
	DB	088H
	DB	068H
	DB	00H
	DB	0ffH
	DB	088H
	DB	064H
	DB	00H
	DB	0ffH
	DB	088H
	DB	064H
	DB	00H
	DB	0ffH
	DB	088H
	DB	064H
	DB	00H
	DB	0ffH
	DB	088H
	DB	068H
	DB	00H
	DB	0ffH
	DB	088H
	DB	064H
	DB	00H
	DB	0ffH
	DB	088H
	DB	064H
	DB	00H
	DB	0ffH
	DB	088H
	DB	064H
	DB	00H
	DB	0ffH
	DB	088H
	DB	068H
	DB	00H
	DB	0ffH
	DB	088H
	DB	064H
	DB	00H
	DB	0ffH
	DB	088H
	DB	064H
	DB	00H
	DB	0ffH
	DB	088H
	DB	064H
	DB	00H
	DB	0ffH
	DB	088H
	DB	068H
	DB	00H
	DB	0ffH
	DB	088H
	DB	064H
	DB	00H
	DB	0ffH
	DB	088H
	DB	064H
	DB	00H
	DB	0ffH
	DB	088H
	DB	068H
	DB	00H
	DB	0ffH
	DB	088H
	DB	064H
	DB	00H
	DB	0ffH
	DB	088H
	DB	064H
	DB	00H
	DB	0ffH
	DB	088H
	DB	064H
	DB	00H
	DB	0ffH
	DB	088H
	DB	068H
	DB	00H
	DB	0ffH
	DB	088H
	DB	064H
	DB	00H
	DB	0ffH
	DB	088H
	DB	064H
	DB	00H
	DB	0ffH
	DB	088H
	DB	064H
	DB	00H
	DB	0ffH
	DB	088H
	DB	068H
	DB	00H
	DB	0ffH
	DB	088H
	DB	064H
	DB	00H
	DB	0ffH
	DB	088H
	DB	064H
	DB	00H
	DB	0ffH
	DB	088H
	DB	064H
	DB	00H
	DB	0ffH
	DB	088H
	DB	068H
	DB	00H
	DB	0ffH
	DB	088H
	DB	064H
	DB	00H
	DB	0ffH
	DB	088H
	DB	064H
	DB	00H
	DB	0ffH
	DB	088H
	DB	068H
	DB	00H
	DB	0ffH
	DB	088H
	DB	064H
	DB	00H
	DB	0ffH
	DB	088H
	DB	064H
	DB	00H
	DB	0ffH
	DB	088H
	DB	064H
	DB	00H
	DB	0ffH
	DB	088H
	DB	068H
	DB	00H
	DB	0ffH
	DB	088H
	DB	064H
	DB	00H
	DB	0ffH
	DB	088H
	DB	064H
	DB	00H
	DB	0ffH
	DB	088H
	DB	064H
	DB	00H
	DB	0ffH
	DB	088H
	DB	068H
	DB	00H
	DB	0ffH
	DB	088H
	DB	064H
	DB	00H
	DB	0ffH
	DB	088H
	DB	064H
	DB	00H
	DB	0ffH
	DB	088H
	DB	064H
	DB	00H
	DB	0ffH
	DB	088H
	DB	068H
	DB	00H
	DB	0ffH
	DB	088H
	DB	064H
	DB	00H
	DB	0ffH
	DB	088H
	DB	064H
	DB	00H
	DB	0ffH
	DB	088H
	DB	068H
	DB	00H
	DB	0ffH
	DB	088H
	DB	064H
	DB	00H
	DB	0ffH
	DB	088H
	DB	064H
	DB	00H
	DB	0ffH
	DB	088H
	DB	064H
	DB	00H
	DB	0ffH
	DB	088H
	DB	068H
	DB	00H
	DB	0ffH
	DB	088H
	DB	064H
	DB	00H
	DB	0ffH
	DB	088H
	DB	064H
	DB	00H
	DB	0ffH
	DB	088H
	DB	064H
	DB	00H
	DB	0ffH
	DB	088H
	DB	068H
	DB	00H
	DB	0ffH
	DB	088H
	DB	064H
	DB	00H
	DB	0ffH
	DB	088H
	DB	064H
	DB	00H
	DB	0ffH
	DB	088H
	DB	064H
	DB	00H
	DB	0ffH
	DB	088H
	DB	068H
	DB	00H
	DB	0ffH
	DB	088H
	DB	064H
	DB	00H
	DB	0ffH
	DB	088H
	DB	064H
	DB	00H
	DB	0ffH
	DB	088H
	DB	068H
	DB	00H
	DB	0ffH
	DB	088H
	DB	064H
	DB	00H
	DB	0ffH
	DB	088H
	DB	064H
	DB	00H
	DB	0ffH
	DB	088H
	DB	064H
	DB	00H
	DB	0ffH
	DB	088H
	DB	068H
	DB	00H
	DB	0ffH
	DB	088H
	DB	064H
	DB	00H
	DB	0ffH
	DB	088H
	DB	064H
	DB	00H
	DB	0ffH
	DB	088H
	DB	064H
	DB	00H
	DB	0ffH
	DB	088H
	DB	068H
	DB	00H
	DB	0ffH
	DB	088H
	DB	064H
	DB	00H
	DB	0ffH
	DB	088H
	DB	064H
	DB	00H
	DB	0ffH
	DB	088H
	DB	064H
	DB	00H
	DB	0ffH
	DB	088H
	DB	068H
	DB	00H
	DB	0ffH
	DB	088H
	DB	064H
	DB	00H
	DB	0ffH
	DB	088H
	DB	064H
	DB	00H
	DB	0ffH
	DB	088H
	DB	068H
	DB	00H
	DB	0ffH
	DB	088H
	DB	064H
	DB	00H
	DB	0ffH
	DB	088H
	DB	064H
	DB	00H
	DB	0ffH
	DB	088H
	DB	064H
	DB	00H
	DB	0ffH
	DB	088H
	DB	068H
	DB	00H
	DB	0ffH
	DB	088H
	DB	064H
	DB	00H
	DB	0ffH
	DB	088H
	DB	064H
	DB	00H
	DB	0ffH
	DB	088H
	DB	064H
	DB	00H
	DB	0ffH
	DB	088H
	DB	068H
	DB	00H
	DB	0ffH
	DB	088H
	DB	064H
	DB	00H
	DB	0ffH
	DB	088H
	DB	064H
	DB	00H
	DB	0ffH
	DB	088H
	DB	064H
	DB	00H
	DB	0ffH
	DB	088H
	DB	068H
	DB	00H
	DB	0ffH
	DB	088H
	DB	064H
	DB	00H
	DB	0ffH
	DB	088H
	DB	064H
	DB	00H
	DB	0ffH
	DB	088H
	DB	068H
	DB	00H
	DB	0ffH
	DB	088H
	DB	064H
	DB	00H
	DB	0ffH
	DB	088H
	DB	064H
	DB	00H
	DB	0ffH
	DB	088H
	DB	064H
	DB	08H
	DB	0ffH
	DB	088H
	DB	068H
	DB	00H
	DB	0ffH
	DB	088H
	DB	064H
	DB	00H
	DB	0ffH
	DB	088H
	DB	068H
	DB	08H
	DB	0ffH
	DB	088H
	DB	064H
	DB	00H
	DB	0ffH
	DB	088H
	DB	068H
	DB	00H
	DB	0ffH
	DB	088H
	DB	064H
	DB	00H
	DB	0ffH
	DB	088H
	DB	068H
	DB	00H
	DB	0ffH
	DB	088H
	DB	064H
	DB	00H
	DB	0ffH
	DB	088H
	DB	064H
	DB	08H
	DB	0ffH
	DB	088H
	DB	064H
	DB	00H
	DB	0ffH
	DB	080H
	DB	05cH
	DB	00H
	DB	0ffH
	DB	070H
	DB	050H
	DB	00H
	DB	0ffH
	DB	00H
	DB	00H
	DB	00H
	DB	00H
	DB	00H
	DB	00H
	DB	00H
	DB	00H
	DB	00H
	DB	00H
	DB	00H
	DB	00H
	DB	00H
	DB	00H
	DB	00H
	DB	00H
	DB	00H
	DB	00H
	DB	00H
	DB	00H
	DB	00H
	DB	00H
	DB	00H
	DB	00H
	DB	00H
	DB	00H
	DB	00H
	DB	00H
	DB	00H
	DB	00H
	DB	00H
	DB	00H
	DB	00H
	DB	00H
	DB	00H
	DB	00H
	DB	00H
	DB	00H
	DB	00H
	DB	00H
	DB	070H
	DB	050H
	DB	00H
	DB	0ffH
	DB	080H
	DB	05cH
	DB	00H
	DB	0ffH
	DB	088H
	DB	064H
	DB	08H
	DB	0ffH
	DB	088H
	DB	068H
	DB	00H
	DB	0ffH
	DB	088H
	DB	064H
	DB	00H
	DB	0ffH
	DB	088H
	DB	068H
	DB	00H
	DB	0ffH
	DB	088H
	DB	068H
	DB	00H
	DB	0ffH
	DB	088H
	DB	064H
	DB	00H
	DB	0ffH
	DB	088H
	DB	068H
	DB	08H
	DB	0ffH
	DB	088H
	DB	068H
	DB	00H
	DB	0ffH
	DB	088H
	DB	068H
	DB	00H
	DB	0ffH
	DB	088H
	DB	068H
	DB	08H
	DB	0ffH
	DB	088H
	DB	064H
	DB	00H
	DB	0ffH
	DB	088H
	DB	068H
	DB	00H
	DB	0ffH
	DB	088H
	DB	068H
	DB	08H
	DB	0ffH
	DB	088H
	DB	068H
	DB	00H
	DB	0ffH
	DB	088H
	DB	068H
	DB	00H
	DB	0ffH
	DB	088H
	DB	064H
	DB	00H
	DB	0ffH
	DB	088H
	DB	068H
	DB	00H
	DB	0ffH
	DB	088H
	DB	068H
	DB	00H
	DB	0ffH
	DB	088H
	DB	068H
	DB	08H
	DB	0ffH
	DB	088H
	DB	064H
	DB	00H
	DB	0ffH
	DB	088H
	DB	068H
	DB	00H
	DB	0ffH
	DB	088H
	DB	068H
	DB	08H
	DB	0ffH
	DB	088H
	DB	064H
	DB	00H
	DB	0ffH
	DB	088H
	DB	068H
	DB	00H
	DB	0ffH
	DB	088H
	DB	068H
	DB	00H
	DB	0ffH
	DB	088H
	DB	068H
	DB	00H
	DB	0ffH
	DB	088H
	DB	064H
	DB	00H
	DB	0ffH
	DB	088H
	DB	068H
	DB	08H
	DB	0ffH
	DB	088H
	DB	068H
	DB	00H
	DB	0ffH
	DB	088H
	DB	068H
	DB	00H
	DB	0ffH
	DB	088H
	DB	064H
	DB	08H
	DB	0ffH
	DB	088H
	DB	068H
	DB	00H
	DB	0ffH
	DB	088H
	DB	068H
	DB	00H
	DB	0ffH
	DB	088H
	DB	068H
	DB	00H
	DB	0ffH
	DB	088H
	DB	064H
	DB	00H
	DB	0ffH
	DB	088H
	DB	068H
	DB	00H
	DB	0ffH
	DB	088H
	DB	068H
	DB	08H
	DB	0ffH
	DB	088H
	DB	064H
	DB	00H
	DB	0ffH
	DB	088H
	DB	068H
	DB	00H
	DB	0ffH
	DB	088H
	DB	068H
	DB	08H
	DB	0ffH
	DB	088H
	DB	068H
	DB	00H
	DB	0ffH
	DB	088H
	DB	064H
	DB	00H
	DB	0ffH
	DB	088H
	DB	068H
	DB	00H
	DB	0ffH
	DB	088H
	DB	068H
	DB	00H
	DB	0ffH
	DB	088H
	DB	068H
	DB	00H
	DB	0ffH
	DB	088H
	DB	064H
	DB	08H
	DB	0ffH
	DB	088H
	DB	068H
	DB	00H
	DB	0ffH
	DB	088H
	DB	068H
	DB	00H
	DB	0ffH
	DB	088H
	DB	068H
	DB	08H
	DB	0ffH
	DB	088H
	DB	064H
	DB	00H
	DB	0ffH
	DB	088H
	DB	068H
	DB	00H
	DB	0ffH
	DB	088H
	DB	068H
	DB	00H
	DB	0ffH
	DB	088H
	DB	064H
	DB	00H
	DB	0ffH
	DB	088H
	DB	068H
	DB	00H
	DB	0ffH
	DB	088H
	DB	068H
	DB	08H
	DB	0ffH
	DB	088H
	DB	068H
	DB	00H
	DB	0ffH
	DB	088H
	DB	064H
	DB	00H
	DB	0ffH
	DB	088H
	DB	068H
	DB	08H
	DB	0ffH
	DB	088H
	DB	068H
	DB	00H
	DB	0ffH
	DB	088H
	DB	068H
	DB	00H
	DB	0ffH
	DB	088H
	DB	064H
	DB	00H
	DB	0ffH
	DB	088H
	DB	068H
	DB	00H
	DB	0ffH
	DB	088H
	DB	068H
	DB	00H
	DB	0ffH
	DB	088H
	DB	068H
	DB	08H
	DB	0ffH
	DB	088H
	DB	064H
	DB	00H
	DB	0ffH
	DB	088H
	DB	068H
	DB	00H
	DB	0ffH
	DB	088H
	DB	068H
	DB	08H
	DB	0ffH
	DB	088H
	DB	064H
	DB	00H
	DB	0ffH
	DB	088H
	DB	068H
	DB	00H
	DB	0ffH
	DB	088H
	DB	068H
	DB	00H
	DB	0ffH
	DB	088H
	DB	068H
	DB	00H
	DB	0ffH
	DB	088H
	DB	064H
	DB	00H
	DB	0ffH
	DB	088H
	DB	068H
	DB	08H
	DB	0ffH
	DB	088H
	DB	068H
	DB	00H
	DB	0ffH
	DB	088H
	DB	068H
	DB	00H
	DB	0ffH
	DB	088H
	DB	064H
	DB	08H
	DB	0ffH
	DB	088H
	DB	068H
	DB	00H
	DB	0ffH
	DB	088H
	DB	068H
	DB	00H
	DB	0ffH
	DB	088H
	DB	068H
	DB	00H
	DB	0ffH
	DB	088H
	DB	064H
	DB	00H
	DB	0ffH
	DB	088H
	DB	068H
	DB	00H
	DB	0ffH
	DB	088H
	DB	068H
	DB	08H
	DB	0ffH
	DB	088H
	DB	064H
	DB	00H
	DB	0ffH
	DB	088H
	DB	068H
	DB	00H
	DB	0ffH
	DB	088H
	DB	068H
	DB	08H
	DB	0ffH
	DB	088H
	DB	068H
	DB	00H
	DB	0ffH
	DB	088H
	DB	064H
	DB	00H
	DB	0ffH
	DB	088H
	DB	068H
	DB	00H
	DB	0ffH
	DB	088H
	DB	068H
	DB	00H
	DB	0ffH
	DB	088H
	DB	068H
	DB	00H
	DB	0ffH
	DB	088H
	DB	064H
	DB	08H
	DB	0ffH
	DB	088H
	DB	068H
	DB	00H
	DB	0ffH
	DB	088H
	DB	068H
	DB	00H
	DB	0ffH
	DB	088H
	DB	068H
	DB	08H
	DB	0ffH
	DB	088H
	DB	064H
	DB	00H
	DB	0ffH
	DB	088H
	DB	068H
	DB	00H
	DB	0ffH
	DB	088H
	DB	068H
	DB	00H
	DB	0ffH
	DB	088H
	DB	064H
	DB	00H
	DB	0ffH
	DB	088H
	DB	068H
	DB	00H
	DB	0ffH
	DB	088H
	DB	068H
	DB	08H
	DB	0ffH
	DB	088H
	DB	068H
	DB	00H
	DB	0ffH
	DB	088H
	DB	064H
	DB	00H
	DB	0ffH
	DB	088H
	DB	068H
	DB	08H
	DB	0ffH
	DB	088H
	DB	068H
	DB	00H
	DB	0ffH
	DB	088H
	DB	068H
	DB	00H
	DB	0ffH
	DB	088H
	DB	064H
	DB	00H
	DB	0ffH
	DB	088H
	DB	068H
	DB	00H
	DB	0ffH
	DB	088H
	DB	068H
	DB	00H
	DB	0ffH
	DB	088H
	DB	068H
	DB	08H
	DB	0ffH
	DB	088H
	DB	064H
	DB	00H
	DB	0ffH
	DB	088H
	DB	068H
	DB	00H
	DB	0ffH
	DB	088H
	DB	068H
	DB	08H
	DB	0ffH
	DB	088H
	DB	064H
	DB	00H
	DB	0ffH
	DB	088H
	DB	068H
	DB	00H
	DB	0ffH
	DB	088H
	DB	068H
	DB	00H
	DB	0ffH
	DB	088H
	DB	068H
	DB	00H
	DB	0ffH
	DB	088H
	DB	064H
	DB	00H
	DB	0ffH
	DB	088H
	DB	068H
	DB	08H
	DB	0ffH
	DB	088H
	DB	068H
	DB	00H
	DB	0ffH
	DB	088H
	DB	068H
	DB	00H
	DB	0ffH
	DB	088H
	DB	064H
	DB	08H
	DB	0ffH
	DB	088H
	DB	068H
	DB	00H
	DB	0ffH
	DB	088H
	DB	068H
	DB	00H
	DB	0ffH
	DB	088H
	DB	068H
	DB	00H
	DB	0ffH
	DB	088H
	DB	064H
	DB	00H
	DB	0ffH
	DB	088H
	DB	068H
	DB	00H
	DB	0ffH
	DB	088H
	DB	068H
	DB	08H
	DB	0ffH
	DB	088H
	DB	064H
	DB	00H
	DB	0ffH
	DB	088H
	DB	068H
	DB	00H
	DB	0ffH
	DB	088H
	DB	068H
	DB	08H
	DB	0ffH
	DB	088H
	DB	068H
	DB	00H
	DB	0ffH
	DB	088H
	DB	064H
	DB	00H
	DB	0ffH
	DB	088H
	DB	068H
	DB	00H
	DB	0ffH
	DB	088H
	DB	068H
	DB	00H
	DB	0ffH
	DB	088H
	DB	068H
	DB	00H
	DB	0ffH
	DB	088H
	DB	064H
	DB	08H
	DB	0ffH
	DB	088H
	DB	068H
	DB	00H
	DB	0ffH
	DB	088H
	DB	068H
	DB	00H
	DB	0ffH
	DB	088H
	DB	068H
	DB	08H
	DB	0ffH
	DB	088H
	DB	064H
	DB	00H
	DB	0ffH
	DB	088H
	DB	068H
	DB	00H
	DB	0ffH
	DB	088H
	DB	068H
	DB	00H
	DB	0ffH
	DB	088H
	DB	064H
	DB	00H
	DB	0ffH
	DB	088H
	DB	068H
	DB	00H
	DB	0ffH
	DB	088H
	DB	068H
	DB	00H
	DB	0ffH
	DB	088H
	DB	068H
	DB	00H
	DB	0ffH
	DB	088H
	DB	064H
	DB	00H
	DB	0ffH
	DB	088H
	DB	068H
	DB	00H
	DB	0ffH
	DB	088H
	DB	068H
	DB	00H
	DB	0ffH
	DB	088H
	DB	068H
	DB	00H
	DB	0ffH
	DB	088H
	DB	064H
	DB	08H
	DB	0ffH
	DB	088H
	DB	068H
	DB	00H
	DB	0ffH
	DB	088H
	DB	068H
	DB	00H
	DB	0ffH
	DB	088H
	DB	068H
	DB	00H
	DB	0ffH
	DB	088H
	DB	068H
	DB	00H
	DB	0ffH
	DB	088H
	DB	064H
	DB	00H
	DB	0ffH
	DB	080H
	DB	05cH
	DB	00H
	DB	0ffH
	DB	068H
	DB	050H
	DB	00H
	DB	0ffH
	DB	00H
	DB	00H
	DB	00H
	DB	00H
	DB	00H
	DB	00H
	DB	00H
	DB	00H
	DB	00H
	DB	00H
	DB	00H
	DB	00H
	DB	00H
	DB	00H
	DB	00H
	DB	00H
	DB	00H
	DB	00H
	DB	00H
	DB	00H
	DB	00H
	DB	00H
	DB	00H
	DB	00H
	DB	00H
	DB	00H
	DB	00H
	DB	00H
	DB	00H
	DB	00H
	DB	00H
	DB	00H
	DB	00H
	DB	00H
	DB	00H
	DB	00H
	DB	00H
	DB	00H
	DB	00H
	DB	00H
	DB	068H
	DB	050H
	DB	00H
	DB	0ffH
	DB	080H
	DB	05cH
	DB	00H
	DB	0ffH
	DB	088H
	DB	064H
	DB	00H
	DB	0ffH
	DB	088H
	DB	064H
	DB	00H
	DB	0ffH
	DB	088H
	DB	068H
	DB	00H
	DB	0ffH
	DB	088H
	DB	064H
	DB	08H
	DB	0ffH
	DB	088H
	DB	064H
	DB	00H
	DB	0ffH
	DB	088H
	DB	064H
	DB	00H
	DB	0ffH
	DB	088H
	DB	064H
	DB	00H
	DB	0ffH
	DB	088H
	DB	064H
	DB	00H
	DB	0ffH
	DB	088H
	DB	064H
	DB	00H
	DB	0ffH
	DB	088H
	DB	068H
	DB	00H
	DB	0ffH
	DB	088H
	DB	064H
	DB	00H
	DB	0ffH
	DB	088H
	DB	064H
	DB	00H
	DB	0ffH
	DB	088H
	DB	068H
	DB	00H
	DB	0ffH
	DB	088H
	DB	064H
	DB	00H
	DB	0ffH
	DB	088H
	DB	064H
	DB	00H
	DB	0ffH
	DB	088H
	DB	068H
	DB	08H
	DB	0ffH
	DB	088H
	DB	064H
	DB	00H
	DB	0ffH
	DB	088H
	DB	068H
	DB	00H
	DB	0ffH
	DB	088H
	DB	064H
	DB	00H
	DB	0ffH
	DB	088H
	DB	064H
	DB	00H
	DB	0ffH
	DB	088H
	DB	068H
	DB	00H
	DB	0ffH
	DB	088H
	DB	064H
	DB	00H
	DB	0ffH
	DB	088H
	DB	064H
	DB	00H
	DB	0ffH
	DB	088H
	DB	068H
	DB	00H
	DB	0ffH
	DB	088H
	DB	064H
	DB	08H
	DB	0ffH
	DB	088H
	DB	064H
	DB	00H
	DB	0ffH
	DB	088H
	DB	068H
	DB	00H
	DB	0ffH
	DB	088H
	DB	064H
	DB	00H
	DB	0ffH
	DB	088H
	DB	068H
	DB	00H
	DB	0ffH
	DB	088H
	DB	064H
	DB	00H
	DB	0ffH
	DB	088H
	DB	064H
	DB	00H
	DB	0ffH
	DB	088H
	DB	068H
	DB	00H
	DB	0ffH
	DB	088H
	DB	064H
	DB	00H
	DB	0ffH
	DB	088H
	DB	064H
	DB	08H
	DB	0ffH
	DB	088H
	DB	068H
	DB	00H
	DB	0ffH
	DB	088H
	DB	064H
	DB	00H
	DB	0ffH
	DB	088H
	DB	068H
	DB	00H
	DB	0ffH
	DB	088H
	DB	064H
	DB	00H
	DB	0ffH
	DB	088H
	DB	064H
	DB	00H
	DB	0ffH
	DB	088H
	DB	068H
	DB	00H
	DB	0ffH
	DB	088H
	DB	064H
	DB	00H
	DB	0ffH
	DB	088H
	DB	064H
	DB	00H
	DB	0ffH
	DB	088H
	DB	068H
	DB	08H
	DB	0ffH
	DB	088H
	DB	064H
	DB	00H
	DB	0ffH
	DB	088H
	DB	064H
	DB	00H
	DB	0ffH
	DB	088H
	DB	068H
	DB	00H
	DB	0ffH
	DB	088H
	DB	064H
	DB	00H
	DB	0ffH
	DB	088H
	DB	068H
	DB	00H
	DB	0ffH
	DB	088H
	DB	064H
	DB	00H
	DB	0ffH
	DB	088H
	DB	064H
	DB	00H
	DB	0ffH
	DB	088H
	DB	068H
	DB	00H
	DB	0ffH
	DB	088H
	DB	064H
	DB	08H
	DB	0ffH
	DB	088H
	DB	064H
	DB	00H
	DB	0ffH
	DB	088H
	DB	068H
	DB	00H
	DB	0ffH
	DB	088H
	DB	064H
	DB	00H
	DB	0ffH
	DB	088H
	DB	064H
	DB	00H
	DB	0ffH
	DB	088H
	DB	068H
	DB	00H
	DB	0ffH
	DB	088H
	DB	064H
	DB	00H
	DB	0ffH
	DB	088H
	DB	068H
	DB	00H
	DB	0ffH
	DB	088H
	DB	064H
	DB	00H
	DB	0ffH
	DB	088H
	DB	064H
	DB	08H
	DB	0ffH
	DB	088H
	DB	068H
	DB	00H
	DB	0ffH
	DB	088H
	DB	064H
	DB	00H
	DB	0ffH
	DB	088H
	DB	064H
	DB	00H
	DB	0ffH
	DB	088H
	DB	068H
	DB	00H
	DB	0ffH
	DB	088H
	DB	064H
	DB	00H
	DB	0ffH
	DB	088H
	DB	068H
	DB	00H
	DB	0ffH
	DB	088H
	DB	064H
	DB	00H
	DB	0ffH
	DB	088H
	DB	064H
	DB	00H
	DB	0ffH
	DB	088H
	DB	068H
	DB	08H
	DB	0ffH
	DB	088H
	DB	064H
	DB	00H
	DB	0ffH
	DB	088H
	DB	064H
	DB	00H
	DB	0ffH
	DB	088H
	DB	068H
	DB	00H
	DB	0ffH
	DB	088H
	DB	064H
	DB	00H
	DB	0ffH
	DB	088H
	DB	064H
	DB	00H
	DB	0ffH
	DB	088H
	DB	068H
	DB	00H
	DB	0ffH
	DB	088H
	DB	064H
	DB	00H
	DB	0ffH
	DB	088H
	DB	068H
	DB	00H
	DB	0ffH
	DB	088H
	DB	064H
	DB	08H
	DB	0ffH
	DB	088H
	DB	064H
	DB	00H
	DB	0ffH
	DB	088H
	DB	068H
	DB	00H
	DB	0ffH
	DB	088H
	DB	064H
	DB	00H
	DB	0ffH
	DB	088H
	DB	064H
	DB	00H
	DB	0ffH
	DB	088H
	DB	068H
	DB	00H
	DB	0ffH
	DB	088H
	DB	064H
	DB	00H
	DB	0ffH
	DB	088H
	DB	064H
	DB	00H
	DB	0ffH
	DB	088H
	DB	068H
	DB	00H
	DB	0ffH
	DB	088H
	DB	064H
	DB	08H
	DB	0ffH
	DB	088H
	DB	068H
	DB	00H
	DB	0ffH
	DB	088H
	DB	064H
	DB	00H
	DB	0ffH
	DB	088H
	DB	064H
	DB	00H
	DB	0ffH
	DB	088H
	DB	068H
	DB	00H
	DB	0ffH
	DB	088H
	DB	064H
	DB	00H
	DB	0ffH
	DB	088H
	DB	064H
	DB	00H
	DB	0ffH
	DB	088H
	DB	068H
	DB	00H
	DB	0ffH
	DB	088H
	DB	064H
	DB	00H
	DB	0ffH
	DB	088H
	DB	068H
	DB	08H
	DB	0ffH
	DB	088H
	DB	064H
	DB	00H
	DB	0ffH
	DB	088H
	DB	064H
	DB	00H
	DB	0ffH
	DB	088H
	DB	068H
	DB	00H
	DB	0ffH
	DB	088H
	DB	064H
	DB	00H
	DB	0ffH
	DB	088H
	DB	064H
	DB	00H
	DB	0ffH
	DB	088H
	DB	068H
	DB	00H
	DB	0ffH
	DB	088H
	DB	064H
	DB	00H
	DB	0ffH
	DB	088H
	DB	064H
	DB	00H
	DB	0ffH
	DB	088H
	DB	068H
	DB	08H
	DB	0ffH
	DB	088H
	DB	064H
	DB	00H
	DB	0ffH
	DB	088H
	DB	068H
	DB	00H
	DB	0ffH
	DB	088H
	DB	064H
	DB	00H
	DB	0ffH
	DB	088H
	DB	064H
	DB	00H
	DB	0ffH
	DB	088H
	DB	068H
	DB	00H
	DB	0ffH
	DB	088H
	DB	064H
	DB	00H
	DB	0ffH
	DB	088H
	DB	064H
	DB	00H
	DB	0ffH
	DB	088H
	DB	068H
	DB	00H
	DB	0ffH
	DB	088H
	DB	064H
	DB	08H
	DB	0ffH
	DB	088H
	DB	064H
	DB	00H
	DB	0ffH
	DB	088H
	DB	068H
	DB	00H
	DB	0ffH
	DB	088H
	DB	064H
	DB	00H
	DB	0ffH
	DB	088H
	DB	068H
	DB	00H
	DB	0ffH
	DB	088H
	DB	064H
	DB	00H
	DB	0ffH
	DB	088H
	DB	064H
	DB	00H
	DB	0ffH
	DB	088H
	DB	068H
	DB	00H
	DB	0ffH
	DB	088H
	DB	064H
	DB	00H
	DB	0ffH
	DB	088H
	DB	064H
	DB	08H
	DB	0ffH
	DB	088H
	DB	068H
	DB	00H
	DB	0ffH
	DB	088H
	DB	064H
	DB	00H
	DB	0ffH
	DB	088H
	DB	068H
	DB	00H
	DB	0ffH
	DB	088H
	DB	064H
	DB	00H
	DB	0ffH
	DB	088H
	DB	064H
	DB	00H
	DB	0ffH
	DB	088H
	DB	068H
	DB	00H
	DB	0ffH
	DB	088H
	DB	064H
	DB	00H
	DB	0ffH
	DB	088H
	DB	064H
	DB	00H
	DB	0ffH
	DB	088H
	DB	068H
	DB	08H
	DB	0ffH
	DB	088H
	DB	064H
	DB	00H
	DB	0ffH
	DB	088H
	DB	064H
	DB	00H
	DB	0ffH
	DB	088H
	DB	068H
	DB	00H
	DB	0ffH
	DB	088H
	DB	064H
	DB	00H
	DB	0ffH
	DB	088H
	DB	068H
	DB	00H
	DB	0ffH
	DB	088H
	DB	064H
	DB	00H
	DB	0ffH
	DB	088H
	DB	064H
	DB	00H
	DB	0ffH
	DB	088H
	DB	068H
	DB	00H
	DB	0ffH
	DB	088H
	DB	064H
	DB	08H
	DB	0ffH
	DB	088H
	DB	064H
	DB	00H
	DB	0ffH
	DB	088H
	DB	068H
	DB	00H
	DB	0ffH
	DB	088H
	DB	064H
	DB	08H
	DB	0ffH
	DB	088H
	DB	064H
	DB	00H
	DB	0ffH
	DB	088H
	DB	068H
	DB	00H
	DB	0ffH
	DB	088H
	DB	064H
	DB	00H
	DB	0ffH
	DB	088H
	DB	064H
	DB	00H
	DB	0ffH
	DB	088H
	DB	068H
	DB	00H
	DB	0ffH
	DB	088H
	DB	064H
	DB	00H
	DB	0ffH
	DB	088H
	DB	064H
	DB	00H
	DB	0ffH
	DB	088H
	DB	064H
	DB	00H
	DB	0ffH
	DB	088H
	DB	064H
	DB	08H
	DB	0ffH
	DB	088H
	DB	068H
	DB	00H
	DB	0ffH
	DB	088H
	DB	064H
	DB	00H
	DB	0ffH
	DB	080H
	DB	05cH
	DB	08H
	DB	0ffH
	DB	070H
	DB	050H
	DB	00H
	DB	0ffH
	DB	00H
	DB	00H
	DB	00H
	DB	00H
	DB	00H
	DB	00H
	DB	00H
	DB	00H
	DB	00H
	DB	00H
	DB	00H
	DB	00H
	DB	00H
	DB	00H
	DB	00H
	DB	00H
	DB	00H
	DB	00H
	DB	00H
	DB	00H
	DB	00H
	DB	00H
	DB	00H
	DB	00H
	DB	00H
	DB	00H
	DB	00H
	DB	00H
	DB	00H
	DB	00H
	DB	00H
	DB	00H
	DB	00H
	DB	00H
	DB	00H
	DB	00H
	DB	00H
	DB	00H
	DB	00H
	DB	00H
	DB	070H
	DB	050H
	DB	00H
	DB	0ffH
	DB	080H
	DB	05cH
	DB	00H
	DB	0ffH
	DB	088H
	DB	064H
	DB	00H
	DB	0ffH
	DB	088H
	DB	068H
	DB	00H
	DB	0ffH
	DB	090H
	DB	064H
	DB	00H
	DB	0ffH
	DB	090H
	DB	068H
	DB	00H
	DB	0ffH
	DB	088H
	DB	068H
	DB	00H
	DB	0ffH
	DB	090H
	DB	068H
	DB	00H
	DB	0ffH
	DB	090H
	DB	068H
	DB	00H
	DB	0ffH
	DB	090H
	DB	064H
	DB	00H
	DB	0ffH
	DB	090H
	DB	068H
	DB	00H
	DB	0ffH
	DB	090H
	DB	064H
	DB	00H
	DB	0ffH
	DB	090H
	DB	068H
	DB	00H
	DB	0ffH
	DB	090H
	DB	068H
	DB	00H
	DB	0ffH
	DB	088H
	DB	064H
	DB	00H
	DB	0ffH
	DB	090H
	DB	064H
	DB	00H
	DB	0ffH
	DB	090H
	DB	068H
	DB	00H
	DB	0ffH
	DB	090H
	DB	068H
	DB	00H
	DB	0ffH
	DB	090H
	DB	064H
	DB	00H
	DB	0ffH
	DB	088H
	DB	064H
	DB	00H
	DB	0ffH
	DB	090H
	DB	068H
	DB	00H
	DB	0ffH
	DB	090H
	DB	068H
	DB	00H
	DB	0ffH
	DB	090H
	DB	064H
	DB	00H
	DB	0ffH
	DB	090H
	DB	068H
	DB	00H
	DB	0ffH
	DB	088H
	DB	068H
	DB	00H
	DB	0ffH
	DB	090H
	DB	064H
	DB	00H
	DB	0ffH
	DB	090H
	DB	068H
	DB	00H
	DB	0ffH
	DB	090H
	DB	064H
	DB	00H
	DB	0ffH
	DB	090H
	DB	068H
	DB	00H
	DB	0ffH
	DB	088H
	DB	064H
	DB	00H
	DB	0ffH
	DB	090H
	DB	064H
	DB	00H
	DB	0ffH
	DB	090H
	DB	068H
	DB	00H
	DB	0ffH
	DB	090H
	DB	068H
	DB	00H
	DB	0ffH
	DB	090H
	DB	064H
	DB	00H
	DB	0ffH
	DB	088H
	DB	068H
	DB	00H
	DB	0ffH
	DB	090H
	DB	064H
	DB	00H
	DB	0ffH
	DB	090H
	DB	068H
	DB	00H
	DB	0ffH
	DB	090H
	DB	064H
	DB	00H
	DB	0ffH
	DB	090H
	DB	068H
	DB	00H
	DB	0ffH
	DB	088H
	DB	068H
	DB	00H
	DB	0ffH
	DB	090H
	DB	064H
	DB	00H
	DB	0ffH
	DB	090H
	DB	068H
	DB	00H
	DB	0ffH
	DB	090H
	DB	064H
	DB	00H
	DB	0ffH
	DB	090H
	DB	068H
	DB	00H
	DB	0ffH
	DB	090H
	DB	068H
	DB	00H
	DB	0ffH
	DB	090H
	DB	064H
	DB	00H
	DB	0ffH
	DB	088H
	DB	068H
	DB	00H
	DB	0ffH
	DB	090H
	DB	064H
	DB	00H
	DB	0ffH
	DB	090H
	DB	068H
	DB	00H
	DB	0ffH
	DB	090H
	DB	064H
	DB	00H
	DB	0ffH
	DB	090H
	DB	068H
	DB	00H
	DB	0ffH
	DB	088H
	DB	068H
	DB	00H
	DB	0ffH
	DB	090H
	DB	064H
	DB	00H
	DB	0ffH
	DB	090H
	DB	068H
	DB	00H
	DB	0ffH
	DB	090H
	DB	068H
	DB	00H
	DB	0ffH
	DB	090H
	DB	064H
	DB	00H
	DB	0ffH
	DB	088H
	DB	068H
	DB	00H
	DB	0ffH
	DB	090H
	DB	064H
	DB	00H
	DB	0ffH
	DB	090H
	DB	068H
	DB	00H
	DB	0ffH
	DB	090H
	DB	064H
	DB	00H
	DB	0ffH
	DB	090H
	DB	064H
	DB	00H
	DB	0ffH
	DB	088H
	DB	068H
	DB	00H
	DB	0ffH
	DB	090H
	DB	068H
	DB	00H
	DB	0ffH
	DB	090H
	DB	064H
	DB	00H
	DB	0ffH
	DB	090H
	DB	068H
	DB	00H
	DB	0ffH
	DB	090H
	DB	064H
	DB	00H
	DB	0ffH
	DB	090H
	DB	068H
	DB	00H
	DB	0ffH
	DB	090H
	DB	064H
	DB	00H
	DB	0ffH
	DB	090H
	DB	068H
	DB	00H
	DB	0ffH
	DB	088H
	DB	068H
	DB	00H
	DB	0ffH
	DB	090H
	DB	064H
	DB	00H
	DB	0ffH
	DB	090H
	DB	068H
	DB	00H
	DB	0ffH
	DB	090H
	DB	064H
	DB	00H
	DB	0ffH
	DB	090H
	DB	068H
	DB	00H
	DB	0ffH
	DB	088H
	DB	068H
	DB	00H
	DB	0ffH
	DB	090H
	DB	064H
	DB	00H
	DB	0ffH
	DB	090H
	DB	068H
	DB	00H
	DB	0ffH
	DB	090H
	DB	064H
	DB	00H
	DB	0ffH
	DB	090H
	DB	068H
	DB	00H
	DB	0ffH
	DB	088H
	DB	064H
	DB	00H
	DB	0ffH
	DB	090H
	DB	068H
	DB	00H
	DB	0ffH
	DB	090H
	DB	068H
	DB	00H
	DB	0ffH
	DB	090H
	DB	064H
	DB	00H
	DB	0ffH
	DB	090H
	DB	068H
	DB	00H
	DB	0ffH
	DB	088H
	DB	068H
	DB	00H
	DB	0ffH
	DB	090H
	DB	064H
	DB	00H
	DB	0ffH
	DB	090H
	DB	068H
	DB	00H
	DB	0ffH
	DB	090H
	DB	064H
	DB	00H
	DB	0ffH
	DB	090H
	DB	068H
	DB	00H
	DB	0ffH
	DB	090H
	DB	064H
	DB	00H
	DB	0ffH
	DB	090H
	DB	064H
	DB	00H
	DB	0ffH
	DB	090H
	DB	068H
	DB	00H
	DB	0ffH
	DB	090H
	DB	068H
	DB	00H
	DB	0ffH
	DB	088H
	DB	064H
	DB	00H
	DB	0ffH
	DB	090H
	DB	068H
	DB	00H
	DB	0ffH
	DB	090H
	DB	064H
	DB	00H
	DB	0ffH
	DB	090H
	DB	068H
	DB	00H
	DB	0ffH
	DB	090H
	DB	064H
	DB	00H
	DB	0ffH
	DB	088H
	DB	068H
	DB	00H
	DB	0ffH
	DB	090H
	DB	068H
	DB	00H
	DB	0ffH
	DB	090H
	DB	064H
	DB	00H
	DB	0ffH
	DB	090H
	DB	068H
	DB	00H
	DB	0ffH
	DB	090H
	DB	064H
	DB	00H
	DB	0ffH
	DB	088H
	DB	068H
	DB	00H
	DB	0ffH
	DB	090H
	DB	068H
	DB	00H
	DB	0ffH
	DB	090H
	DB	064H
	DB	00H
	DB	0ffH
	DB	090H
	DB	068H
	DB	00H
	DB	0ffH
	DB	090H
	DB	064H
	DB	00H
	DB	0ffH
	DB	088H
	DB	068H
	DB	00H
	DB	0ffH
	DB	090H
	DB	064H
	DB	00H
	DB	0ffH
	DB	090H
	DB	068H
	DB	00H
	DB	0ffH
	DB	090H
	DB	068H
	DB	00H
	DB	0ffH
	DB	090H
	DB	064H
	DB	00H
	DB	0ffH
	DB	090H
	DB	068H
	DB	00H
	DB	0ffH
	DB	090H
	DB	068H
	DB	00H
	DB	0ffH
	DB	090H
	DB	064H
	DB	00H
	DB	0ffH
	DB	090H
	DB	068H
	DB	00H
	DB	0ffH
	DB	088H
	DB	064H
	DB	00H
	DB	0ffH
	DB	090H
	DB	068H
	DB	00H
	DB	0ffH
	DB	090H
	DB	064H
	DB	00H
	DB	0ffH
	DB	090H
	DB	064H
	DB	00H
	DB	0ffH
	DB	090H
	DB	068H
	DB	00H
	DB	0ffH
	DB	088H
	DB	068H
	DB	00H
	DB	0ffH
	DB	090H
	DB	064H
	DB	00H
	DB	0ffH
	DB	090H
	DB	068H
	DB	00H
	DB	0ffH
	DB	090H
	DB	064H
	DB	00H
	DB	0ffH
	DB	090H
	DB	068H
	DB	00H
	DB	0ffH
	DB	088H
	DB	064H
	DB	00H
	DB	0ffH
	DB	090H
	DB	068H
	DB	00H
	DB	0ffH
	DB	090H
	DB	068H
	DB	00H
	DB	0ffH
	DB	090H
	DB	064H
	DB	00H
	DB	0ffH
	DB	090H
	DB	068H
	DB	00H
	DB	0ffH
	DB	088H
	DB	064H
	DB	00H
	DB	0ffH
	DB	090H
	DB	068H
	DB	00H
	DB	0ffH
	DB	090H
	DB	068H
	DB	00H
	DB	0ffH
	DB	090H
	DB	064H
	DB	00H
	DB	0ffH
	DB	090H
	DB	068H
	DB	00H
	DB	0ffH
	DB	090H
	DB	064H
	DB	00H
	DB	0ffH
	DB	090H
	DB	068H
	DB	00H
	DB	0ffH
	DB	090H
	DB	064H
	DB	00H
	DB	0ffH
	DB	090H
	DB	068H
	DB	00H
	DB	0ffH
	DB	090H
	DB	068H
	DB	00H
	DB	0ffH
	DB	090H
	DB	064H
	DB	00H
	DB	0ffH
	DB	090H
	DB	068H
	DB	00H
	DB	0ffH
	DB	090H
	DB	068H
	DB	00H
	DB	0ffH
	DB	090H
	DB	064H
	DB	00H
	DB	0ffH
	DB	090H
	DB	068H
	DB	00H
	DB	0ffH
	DB	090H
	DB	064H
	DB	00H
	DB	0ffH
	DB	090H
	DB	068H
	DB	00H
	DB	0ffH
	DB	088H
	DB	064H
	DB	08H
	DB	0ffH
	DB	090H
	DB	068H
	DB	00H
	DB	0ffH
	DB	090H
	DB	064H
	DB	00H
	DB	0ffH
	DB	090H
	DB	068H
	DB	00H
	DB	0ffH
	DB	090H
	DB	068H
	DB	00H
	DB	0ffH
	DB	088H
	DB	064H
	DB	00H
	DB	0ffH
	DB	090H
	DB	068H
	DB	00H
	DB	0ffH
	DB	088H
	DB	064H
	DB	00H
	DB	0ffH
	DB	088H
	DB	064H
	DB	00H
	DB	0ffH
	DB	080H
	DB	05cH
	DB	00H
	DB	0ffH
	DB	070H
	DB	050H
	DB	00H
	DB	0ffH
	DB	00H
	DB	00H
	DB	00H
	DB	00H
	DB	00H
	DB	00H
	DB	00H
	DB	00H
	DB	00H
	DB	00H
	DB	00H
	DB	00H
	DB	00H
	DB	00H
	DB	00H
	DB	00H
	DB	00H
	DB	00H
	DB	00H
	DB	00H
	DB	00H
	DB	00H
	DB	00H
	DB	00H
	DB	00H
	DB	00H
	DB	00H
	DB	00H
	DB	00H
	DB	00H
	DB	00H
	DB	00H
	DB	00H
	DB	00H
	DB	00H
	DB	00H
	DB	00H
	DB	00H
	DB	00H
	DB	00H
	DB	070H
	DB	050H
	DB	00H
	DB	0ffH
	DB	080H
	DB	05cH
	DB	00H
	DB	0ffH
	DB	088H
	DB	064H
	DB	08H
	DB	0ffH
	DB	088H
	DB	068H
	DB	00H
	DB	0ffH
	DB	088H
	DB	068H
	DB	00H
	DB	0ffH
	DB	088H
	DB	068H
	DB	00H
	DB	0ffH
	DB	090H
	DB	068H
	DB	00H
	DB	0ffH
	DB	088H
	DB	068H
	DB	08H
	DB	0ffH
	DB	088H
	DB	068H
	DB	00H
	DB	0ffH
	DB	088H
	DB	068H
	DB	00H
	DB	0ffH
	DB	088H
	DB	068H
	DB	08H
	DB	0ffH
	DB	088H
	DB	068H
	DB	00H
	DB	0ffH
	DB	088H
	DB	068H
	DB	00H
	DB	0ffH
	DB	088H
	DB	068H
	DB	08H
	DB	0ffH
	DB	090H
	DB	068H
	DB	00H
	DB	0ffH
	DB	088H
	DB	068H
	DB	00H
	DB	0ffH
	DB	088H
	DB	068H
	DB	08H
	DB	0ffH
	DB	088H
	DB	068H
	DB	00H
	DB	0ffH
	DB	088H
	DB	068H
	DB	00H
	DB	0ffH
	DB	090H
	DB	068H
	DB	08H
	DB	0ffH
	DB	088H
	DB	068H
	DB	00H
	DB	0ffH
	DB	088H
	DB	068H
	DB	00H
	DB	0ffH
	DB	088H
	DB	068H
	DB	08H
	DB	0ffH
	DB	088H
	DB	068H
	DB	00H
	DB	0ffH
	DB	090H
	DB	068H
	DB	00H
	DB	0ffH
	DB	088H
	DB	068H
	DB	08H
	DB	0ffH
	DB	088H
	DB	068H
	DB	00H
	DB	0ffH
	DB	088H
	DB	068H
	DB	00H
	DB	0ffH
	DB	088H
	DB	068H
	DB	08H
	DB	0ffH
	DB	090H
	DB	068H
	DB	00H
	DB	0ffH
	DB	088H
	DB	068H
	DB	00H
	DB	0ffH
	DB	088H
	DB	068H
	DB	08H
	DB	0ffH
	DB	088H
	DB	068H
	DB	00H
	DB	0ffH
	DB	088H
	DB	068H
	DB	00H
	DB	0ffH
	DB	090H
	DB	068H
	DB	08H
	DB	0ffH
	DB	088H
	DB	068H
	DB	00H
	DB	0ffH
	DB	088H
	DB	068H
	DB	00H
	DB	0ffH
	DB	088H
	DB	068H
	DB	08H
	DB	0ffH
	DB	088H
	DB	068H
	DB	00H
	DB	0ffH
	DB	090H
	DB	068H
	DB	00H
	DB	0ffH
	DB	088H
	DB	068H
	DB	08H
	DB	0ffH
	DB	088H
	DB	068H
	DB	00H
	DB	0ffH
	DB	088H
	DB	068H
	DB	00H
	DB	0ffH
	DB	088H
	DB	068H
	DB	08H
	DB	0ffH
	DB	088H
	DB	068H
	DB	00H
	DB	0ffH
	DB	088H
	DB	068H
	DB	00H
	DB	0ffH
	DB	090H
	DB	068H
	DB	08H
	DB	0ffH
	DB	088H
	DB	068H
	DB	00H
	DB	0ffH
	DB	088H
	DB	068H
	DB	00H
	DB	0ffH
	DB	088H
	DB	068H
	DB	08H
	DB	0ffH
	DB	088H
	DB	068H
	DB	00H
	DB	0ffH
	DB	090H
	DB	068H
	DB	00H
	DB	0ffH
	DB	088H
	DB	068H
	DB	08H
	DB	0ffH
	DB	088H
	DB	068H
	DB	00H
	DB	0ffH
	DB	088H
	DB	068H
	DB	00H
	DB	0ffH
	DB	088H
	DB	068H
	DB	08H
	DB	0ffH
	DB	090H
	DB	068H
	DB	00H
	DB	0ffH
	DB	088H
	DB	068H
	DB	00H
	DB	0ffH
	DB	088H
	DB	068H
	DB	08H
	DB	0ffH
	DB	088H
	DB	068H
	DB	00H
	DB	0ffH
	DB	088H
	DB	068H
	DB	00H
	DB	0ffH
	DB	090H
	DB	068H
	DB	08H
	DB	0ffH
	DB	088H
	DB	068H
	DB	00H
	DB	0ffH
	DB	088H
	DB	068H
	DB	00H
	DB	0ffH
	DB	088H
	DB	068H
	DB	08H
	DB	0ffH
	DB	088H
	DB	068H
	DB	00H
	DB	0ffH
	DB	088H
	DB	068H
	DB	00H
	DB	0ffH
	DB	088H
	DB	068H
	DB	08H
	DB	0ffH
	DB	088H
	DB	068H
	DB	00H
	DB	0ffH
	DB	090H
	DB	068H
	DB	00H
	DB	0ffH
	DB	088H
	DB	068H
	DB	08H
	DB	0ffH
	DB	088H
	DB	068H
	DB	00H
	DB	0ffH
	DB	088H
	DB	068H
	DB	00H
	DB	0ffH
	DB	088H
	DB	068H
	DB	08H
	DB	0ffH
	DB	090H
	DB	068H
	DB	00H
	DB	0ffH
	DB	088H
	DB	068H
	DB	00H
	DB	0ffH
	DB	088H
	DB	068H
	DB	08H
	DB	0ffH
	DB	088H
	DB	068H
	DB	00H
	DB	0ffH
	DB	088H
	DB	068H
	DB	00H
	DB	0ffH
	DB	090H
	DB	068H
	DB	08H
	DB	0ffH
	DB	088H
	DB	068H
	DB	00H
	DB	0ffH
	DB	088H
	DB	068H
	DB	00H
	DB	0ffH
	DB	088H
	DB	068H
	DB	08H
	DB	0ffH
	DB	088H
	DB	068H
	DB	00H
	DB	0ffH
	DB	090H
	DB	068H
	DB	00H
	DB	0ffH
	DB	088H
	DB	068H
	DB	08H
	DB	0ffH
	DB	088H
	DB	068H
	DB	00H
	DB	0ffH
	DB	088H
	DB	068H
	DB	00H
	DB	0ffH
	DB	088H
	DB	068H
	DB	08H
	DB	0ffH
	DB	088H
	DB	068H
	DB	00H
	DB	0ffH
	DB	088H
	DB	068H
	DB	00H
	DB	0ffH
	DB	088H
	DB	068H
	DB	08H
	DB	0ffH
	DB	088H
	DB	068H
	DB	00H
	DB	0ffH
	DB	090H
	DB	068H
	DB	00H
	DB	0ffH
	DB	088H
	DB	068H
	DB	08H
	DB	0ffH
	DB	088H
	DB	068H
	DB	00H
	DB	0ffH
	DB	088H
	DB	068H
	DB	00H
	DB	0ffH
	DB	088H
	DB	068H
	DB	08H
	DB	0ffH
	DB	090H
	DB	068H
	DB	00H
	DB	0ffH
	DB	088H
	DB	068H
	DB	00H
	DB	0ffH
	DB	088H
	DB	068H
	DB	08H
	DB	0ffH
	DB	088H
	DB	068H
	DB	00H
	DB	0ffH
	DB	088H
	DB	068H
	DB	00H
	DB	0ffH
	DB	090H
	DB	068H
	DB	08H
	DB	0ffH
	DB	088H
	DB	068H
	DB	00H
	DB	0ffH
	DB	088H
	DB	068H
	DB	00H
	DB	0ffH
	DB	088H
	DB	068H
	DB	08H
	DB	0ffH
	DB	088H
	DB	068H
	DB	00H
	DB	0ffH
	DB	090H
	DB	068H
	DB	00H
	DB	0ffH
	DB	088H
	DB	068H
	DB	08H
	DB	0ffH
	DB	088H
	DB	068H
	DB	00H
	DB	0ffH
	DB	088H
	DB	068H
	DB	00H
	DB	0ffH
	DB	088H
	DB	068H
	DB	08H
	DB	0ffH
	DB	088H
	DB	068H
	DB	00H
	DB	0ffH
	DB	088H
	DB	068H
	DB	00H
	DB	0ffH
	DB	088H
	DB	068H
	DB	08H
	DB	0ffH
	DB	088H
	DB	068H
	DB	00H
	DB	0ffH
	DB	090H
	DB	068H
	DB	00H
	DB	0ffH
	DB	088H
	DB	068H
	DB	08H
	DB	0ffH
	DB	088H
	DB	068H
	DB	00H
	DB	0ffH
	DB	088H
	DB	068H
	DB	00H
	DB	0ffH
	DB	088H
	DB	068H
	DB	08H
	DB	0ffH
	DB	090H
	DB	068H
	DB	00H
	DB	0ffH
	DB	088H
	DB	068H
	DB	00H
	DB	0ffH
	DB	088H
	DB	068H
	DB	08H
	DB	0ffH
	DB	088H
	DB	068H
	DB	00H
	DB	0ffH
	DB	088H
	DB	068H
	DB	00H
	DB	0ffH
	DB	090H
	DB	068H
	DB	08H
	DB	0ffH
	DB	088H
	DB	068H
	DB	00H
	DB	0ffH
	DB	088H
	DB	068H
	DB	00H
	DB	0ffH
	DB	088H
	DB	068H
	DB	08H
	DB	0ffH
	DB	088H
	DB	068H
	DB	00H
	DB	0ffH
	DB	090H
	DB	068H
	DB	00H
	DB	0ffH
	DB	088H
	DB	068H
	DB	08H
	DB	0ffH
	DB	088H
	DB	068H
	DB	00H
	DB	0ffH
	DB	088H
	DB	068H
	DB	00H
	DB	0ffH
	DB	088H
	DB	068H
	DB	08H
	DB	0ffH
	DB	088H
	DB	068H
	DB	00H
	DB	0ffH
	DB	088H
	DB	068H
	DB	00H
	DB	0ffH
	DB	088H
	DB	068H
	DB	08H
	DB	0ffH
	DB	088H
	DB	068H
	DB	00H
	DB	0ffH
	DB	088H
	DB	068H
	DB	00H
	DB	0ffH
	DB	088H
	DB	068H
	DB	08H
	DB	0ffH
	DB	088H
	DB	068H
	DB	00H
	DB	0ffH
	DB	088H
	DB	068H
	DB	00H
	DB	0ffH
	DB	088H
	DB	068H
	DB	00H
	DB	0ffH
	DB	088H
	DB	068H
	DB	00H
	DB	0ffH
	DB	088H
	DB	068H
	DB	00H
	DB	0ffH
	DB	088H
	DB	068H
	DB	00H
	DB	0ffH
	DB	090H
	DB	068H
	DB	00H
	DB	0ffH
	DB	088H
	DB	068H
	DB	00H
	DB	0ffH
	DB	088H
	DB	068H
	DB	08H
	DB	0ffH
	DB	088H
	DB	068H
	DB	00H
	DB	0ffH
	DB	088H
	DB	068H
	DB	00H
	DB	0ffH
	DB	090H
	DB	068H
	DB	08H
	DB	0ffH
	DB	088H
	DB	068H
	DB	00H
	DB	0ffH
	DB	090H
	DB	068H
	DB	00H
	DB	0ffH
	DB	088H
	DB	064H
	DB	00H
	DB	0ffH
	DB	080H
	DB	060H
	DB	00H
	DB	0ffH
	DB	070H
	DB	050H
	DB	00H
	DB	0ffH
	DB	00H
	DB	00H
	DB	00H
	DB	00H
	DB	00H
	DB	00H
	DB	00H
	DB	00H
	DB	00H
	DB	00H
	DB	00H
	DB	00H
	DB	00H
	DB	00H
	DB	00H
	DB	00H
	DB	00H
	DB	00H
	DB	00H
	DB	00H
	DB	00H
	DB	00H
	DB	00H
	DB	00H
	DB	00H
	DB	00H
	DB	00H
	DB	00H
	DB	00H
	DB	00H
	DB	00H
	DB	00H
	DB	00H
	DB	00H
	DB	00H
	DB	00H
	DB	00H
	DB	00H
	DB	00H
	DB	00H
	DB	070H
	DB	050H
	DB	00H
	DB	0ffH
	DB	080H
	DB	060H
	DB	00H
	DB	0ffH
	DB	088H
	DB	064H
	DB	00H
	DB	0ffH
	DB	090H
	DB	068H
	DB	00H
	DB	0ffH
	DB	090H
	DB	068H
	DB	00H
	DB	0ffH
	DB	088H
	DB	064H
	DB	08H
	DB	0ffH
	DB	090H
	DB	068H
	DB	00H
	DB	0ffH
	DB	090H
	DB	064H
	DB	00H
	DB	0ffH
	DB	088H
	DB	068H
	DB	00H
	DB	0ffH
	DB	090H
	DB	068H
	DB	00H
	DB	0ffH
	DB	090H
	DB	064H
	DB	00H
	DB	0ffH
	DB	088H
	DB	068H
	DB	00H
	DB	0ffH
	DB	090H
	DB	068H
	DB	00H
	DB	0ffH
	DB	090H
	DB	064H
	DB	00H
	DB	0ffH
	DB	088H
	DB	068H
	DB	00H
	DB	0ffH
	DB	090H
	DB	068H
	DB	00H
	DB	0ffH
	DB	090H
	DB	068H
	DB	00H
	DB	0ffH
	DB	088H
	DB	064H
	DB	00H
	DB	0ffH
	DB	090H
	DB	068H
	DB	00H
	DB	0ffH
	DB	090H
	DB	068H
	DB	00H
	DB	0ffH
	DB	088H
	DB	064H
	DB	00H
	DB	0ffH
	DB	090H
	DB	068H
	DB	00H
	DB	0ffH
	DB	090H
	DB	068H
	DB	00H
	DB	0ffH
	DB	088H
	DB	064H
	DB	00H
	DB	0ffH
	DB	090H
	DB	068H
	DB	00H
	DB	0ffH
	DB	090H
	DB	068H
	DB	00H
	DB	0ffH
	DB	088H
	DB	064H
	DB	00H
	DB	0ffH
	DB	090H
	DB	068H
	DB	00H
	DB	0ffH
	DB	090H
	DB	068H
	DB	00H
	DB	0ffH
	DB	088H
	DB	068H
	DB	00H
	DB	0ffH
	DB	090H
	DB	068H
	DB	00H
	DB	0ffH
	DB	090H
	DB	064H
	DB	00H
	DB	0ffH
	DB	088H
	DB	068H
	DB	00H
	DB	0ffH
	DB	090H
	DB	068H
	DB	00H
	DB	0ffH
	DB	090H
	DB	064H
	DB	00H
	DB	0ffH
	DB	088H
	DB	068H
	DB	00H
	DB	0ffH
	DB	090H
	DB	068H
	DB	00H
	DB	0ffH
	DB	090H
	DB	064H
	DB	00H
	DB	0ffH
	DB	088H
	DB	068H
	DB	00H
	DB	0ffH
	DB	090H
	DB	068H
	DB	00H
	DB	0ffH
	DB	090H
	DB	064H
	DB	00H
	DB	0ffH
	DB	088H
	DB	068H
	DB	00H
	DB	0ffH
	DB	090H
	DB	068H
	DB	00H
	DB	0ffH
	DB	090H
	DB	064H
	DB	00H
	DB	0ffH
	DB	088H
	DB	068H
	DB	00H
	DB	0ffH
	DB	090H
	DB	068H
	DB	00H
	DB	0ffH
	DB	090H
	DB	064H
	DB	00H
	DB	0ffH
	DB	088H
	DB	068H
	DB	00H
	DB	0ffH
	DB	090H
	DB	068H
	DB	00H
	DB	0ffH
	DB	090H
	DB	064H
	DB	00H
	DB	0ffH
	DB	088H
	DB	068H
	DB	00H
	DB	0ffH
	DB	090H
	DB	064H
	DB	00H
	DB	0ffH
	DB	090H
	DB	068H
	DB	00H
	DB	0ffH
	DB	088H
	DB	068H
	DB	00H
	DB	0ffH
	DB	090H
	DB	064H
	DB	00H
	DB	0ffH
	DB	090H
	DB	068H
	DB	00H
	DB	0ffH
	DB	088H
	DB	068H
	DB	00H
	DB	0ffH
	DB	090H
	DB	068H
	DB	00H
	DB	0ffH
	DB	090H
	DB	068H
	DB	00H
	DB	0ffH
	DB	088H
	DB	068H
	DB	00H
	DB	0ffH
	DB	090H
	DB	068H
	DB	00H
	DB	0ffH
	DB	090H
	DB	064H
	DB	00H
	DB	0ffH
	DB	088H
	DB	068H
	DB	00H
	DB	0ffH
	DB	090H
	DB	068H
	DB	00H
	DB	0ffH
	DB	090H
	DB	064H
	DB	00H
	DB	0ffH
	DB	088H
	DB	068H
	DB	00H
	DB	0ffH
	DB	090H
	DB	068H
	DB	00H
	DB	0ffH
	DB	090H
	DB	064H
	DB	00H
	DB	0ffH
	DB	088H
	DB	068H
	DB	00H
	DB	0ffH
	DB	090H
	DB	068H
	DB	00H
	DB	0ffH
	DB	090H
	DB	064H
	DB	00H
	DB	0ffH
	DB	088H
	DB	068H
	DB	00H
	DB	0ffH
	DB	090H
	DB	068H
	DB	00H
	DB	0ffH
	DB	090H
	DB	064H
	DB	00H
	DB	0ffH
	DB	088H
	DB	068H
	DB	00H
	DB	0ffH
	DB	090H
	DB	068H
	DB	00H
	DB	0ffH
	DB	090H
	DB	064H
	DB	00H
	DB	0ffH
	DB	088H
	DB	068H
	DB	00H
	DB	0ffH
	DB	090H
	DB	068H
	DB	00H
	DB	0ffH
	DB	090H
	DB	064H
	DB	00H
	DB	0ffH
	DB	088H
	DB	068H
	DB	00H
	DB	0ffH
	DB	090H
	DB	064H
	DB	00H
	DB	0ffH
	DB	090H
	DB	068H
	DB	00H
	DB	0ffH
	DB	088H
	DB	068H
	DB	00H
	DB	0ffH
	DB	090H
	DB	064H
	DB	00H
	DB	0ffH
	DB	090H
	DB	068H
	DB	00H
	DB	0ffH
	DB	088H
	DB	068H
	DB	00H
	DB	0ffH
	DB	090H
	DB	068H
	DB	00H
	DB	0ffH
	DB	090H
	DB	068H
	DB	00H
	DB	0ffH
	DB	088H
	DB	068H
	DB	00H
	DB	0ffH
	DB	090H
	DB	068H
	DB	00H
	DB	0ffH
	DB	088H
	DB	064H
	DB	00H
	DB	0ffH
	DB	090H
	DB	068H
	DB	00H
	DB	0ffH
	DB	090H
	DB	068H
	DB	00H
	DB	0ffH
	DB	088H
	DB	064H
	DB	00H
	DB	0ffH
	DB	090H
	DB	068H
	DB	00H
	DB	0ffH
	DB	090H
	DB	068H
	DB	00H
	DB	0ffH
	DB	088H
	DB	064H
	DB	00H
	DB	0ffH
	DB	090H
	DB	068H
	DB	00H
	DB	0ffH
	DB	090H
	DB	068H
	DB	00H
	DB	0ffH
	DB	088H
	DB	064H
	DB	00H
	DB	0ffH
	DB	090H
	DB	068H
	DB	00H
	DB	0ffH
	DB	090H
	DB	068H
	DB	00H
	DB	0ffH
	DB	088H
	DB	064H
	DB	00H
	DB	0ffH
	DB	090H
	DB	068H
	DB	00H
	DB	0ffH
	DB	090H
	DB	068H
	DB	00H
	DB	0ffH
	DB	088H
	DB	064H
	DB	00H
	DB	0ffH
	DB	090H
	DB	068H
	DB	00H
	DB	0ffH
	DB	090H
	DB	068H
	DB	00H
	DB	0ffH
	DB	088H
	DB	064H
	DB	00H
	DB	0ffH
	DB	090H
	DB	068H
	DB	00H
	DB	0ffH
	DB	090H
	DB	064H
	DB	00H
	DB	0ffH
	DB	088H
	DB	068H
	DB	00H
	DB	0ffH
	DB	090H
	DB	068H
	DB	00H
	DB	0ffH
	DB	090H
	DB	064H
	DB	00H
	DB	0ffH
	DB	088H
	DB	068H
	DB	00H
	DB	0ffH
	DB	090H
	DB	068H
	DB	00H
	DB	0ffH
	DB	090H
	DB	068H
	DB	00H
	DB	0ffH
	DB	088H
	DB	068H
	DB	00H
	DB	0ffH
	DB	090H
	DB	068H
	DB	00H
	DB	0ffH
	DB	090H
	DB	068H
	DB	00H
	DB	0ffH
	DB	088H
	DB	064H
	DB	00H
	DB	0ffH
	DB	090H
	DB	068H
	DB	00H
	DB	0ffH
	DB	090H
	DB	068H
	DB	00H
	DB	0ffH
	DB	088H
	DB	064H
	DB	00H
	DB	0ffH
	DB	090H
	DB	068H
	DB	00H
	DB	0ffH
	DB	090H
	DB	068H
	DB	00H
	DB	0ffH
	DB	088H
	DB	064H
	DB	00H
	DB	0ffH
	DB	090H
	DB	068H
	DB	00H
	DB	0ffH
	DB	090H
	DB	068H
	DB	00H
	DB	0ffH
	DB	088H
	DB	064H
	DB	00H
	DB	0ffH
	DB	090H
	DB	068H
	DB	00H
	DB	0ffH
	DB	090H
	DB	068H
	DB	00H
	DB	0ffH
	DB	088H
	DB	064H
	DB	00H
	DB	0ffH
	DB	090H
	DB	068H
	DB	00H
	DB	0ffH
	DB	090H
	DB	068H
	DB	00H
	DB	0ffH
	DB	088H
	DB	064H
	DB	00H
	DB	0ffH
	DB	090H
	DB	068H
	DB	00H
	DB	0ffH
	DB	090H
	DB	068H
	DB	00H
	DB	0ffH
	DB	088H
	DB	064H
	DB	00H
	DB	0ffH
	DB	090H
	DB	068H
	DB	00H
	DB	0ffH
	DB	090H
	DB	064H
	DB	00H
	DB	0ffH
	DB	088H
	DB	068H
	DB	00H
	DB	0ffH
	DB	090H
	DB	068H
	DB	00H
	DB	0ffH
	DB	090H
	DB	064H
	DB	00H
	DB	0ffH
	DB	088H
	DB	068H
	DB	08H
	DB	0ffH
	DB	090H
	DB	068H
	DB	00H
	DB	0ffH
	DB	088H
	DB	068H
	DB	00H
	DB	0ffH
	DB	090H
	DB	064H
	DB	08H
	DB	0ffH
	DB	090H
	DB	068H
	DB	00H
	DB	0ffH
	DB	088H
	DB	068H
	DB	00H
	DB	0ffH
	DB	090H
	DB	068H
	DB	00H
	DB	0ffH
	DB	090H
	DB	064H
	DB	00H
	DB	0ffH
	DB	088H
	DB	068H
	DB	00H
	DB	0ffH
	DB	090H
	DB	068H
	DB	00H
	DB	0ffH
	DB	088H
	DB	068H
	DB	00H
	DB	0ffH
	DB	090H
	DB	068H
	DB	00H
	DB	0ffH
	DB	088H
	DB	064H
	DB	08H
	DB	0ffH
	DB	080H
	DB	05cH
	DB	00H
	DB	0ffH
	DB	070H
	DB	050H
	DB	00H
	DB	0ffH
	DB	00H
	DB	00H
	DB	00H
	DB	00H
	DB	00H
	DB	00H
	DB	00H
	DB	00H
	DB	00H
	DB	00H
	DB	00H
	DB	00H
	DB	00H
	DB	00H
	DB	00H
	DB	00H
	DB	00H
	DB	00H
	DB	00H
	DB	00H
	DB	00H
	DB	00H
	DB	00H
	DB	00H
	DB	00H
	DB	00H
	DB	00H
	DB	00H
	DB	00H
	DB	00H
	DB	00H
	DB	00H
	DB	00H
	DB	00H
	DB	00H
	DB	00H
	DB	00H
	DB	00H
	DB	00H
	DB	00H
	DB	070H
	DB	050H
	DB	00H
	DB	0ffH
	DB	080H
	DB	060H
	DB	00H
	DB	0ffH
	DB	088H
	DB	064H
	DB	00H
	DB	0ffH
	DB	088H
	DB	068H
	DB	00H
	DB	0ffH
	DB	090H
	DB	068H
	DB	00H
	DB	0ffH
	DB	088H
	DB	068H
	DB	00H
	DB	0ffH
	DB	088H
	DB	068H
	DB	00H
	DB	0ffH
	DB	090H
	DB	068H
	DB	00H
	DB	0ffH
	DB	088H
	DB	064H
	DB	00H
	DB	0ffH
	DB	090H
	DB	068H
	DB	00H
	DB	0ffH
	DB	090H
	DB	068H
	DB	00H
	DB	0ffH
	DB	088H
	DB	068H
	DB	08H
	DB	0ffH
	DB	090H
	DB	068H
	DB	00H
	DB	0ffH
	DB	088H
	DB	064H
	DB	00H
	DB	0ffH
	DB	088H
	DB	068H
	DB	00H
	DB	0ffH
	DB	090H
	DB	068H
	DB	00H
	DB	0ffH
	DB	088H
	DB	064H
	DB	00H
	DB	0ffH
	DB	090H
	DB	068H
	DB	00H
	DB	0ffH
	DB	088H
	DB	068H
	DB	00H
	DB	0ffH
	DB	088H
	DB	068H
	DB	00H
	DB	0ffH
	DB	090H
	DB	064H
	DB	00H
	DB	0ffH
	DB	088H
	DB	068H
	DB	00H
	DB	0ffH
	DB	090H
	DB	068H
	DB	00H
	DB	0ffH
	DB	088H
	DB	064H
	DB	00H
	DB	0ffH
	DB	088H
	DB	068H
	DB	00H
	DB	0ffH
	DB	090H
	DB	068H
	DB	00H
	DB	0ffH
	DB	088H
	DB	068H
	DB	00H
	DB	0ffH
	DB	090H
	DB	064H
	DB	00H
	DB	0ffH
	DB	088H
	DB	068H
	DB	00H
	DB	0ffH
	DB	088H
	DB	068H
	DB	00H
	DB	0ffH
	DB	090H
	DB	064H
	DB	00H
	DB	0ffH
	DB	088H
	DB	068H
	DB	00H
	DB	0ffH
	DB	090H
	DB	068H
	DB	00H
	DB	0ffH
	DB	088H
	DB	068H
	DB	00H
	DB	0ffH
	DB	088H
	DB	068H
	DB	00H
	DB	0ffH
	DB	090H
	DB	068H
	DB	00H
	DB	0ffH
	DB	088H
	DB	064H
	DB	00H
	DB	0ffH
	DB	090H
	DB	068H
	DB	00H
	DB	0ffH
	DB	088H
	DB	068H
	DB	00H
	DB	0ffH
	DB	088H
	DB	064H
	DB	00H
	DB	0ffH
	DB	090H
	DB	068H
	DB	00H
	DB	0ffH
	DB	088H
	DB	068H
	DB	00H
	DB	0ffH
	DB	090H
	DB	068H
	DB	00H
	DB	0ffH
	DB	090H
	DB	064H
	DB	00H
	DB	0ffH
	DB	088H
	DB	068H
	DB	00H
	DB	0ffH
	DB	088H
	DB	068H
	DB	00H
	DB	0ffH
	DB	090H
	DB	064H
	DB	00H
	DB	0ffH
	DB	088H
	DB	068H
	DB	00H
	DB	0ffH
	DB	090H
	DB	068H
	DB	00H
	DB	0ffH
	DB	088H
	DB	068H
	DB	00H
	DB	0ffH
	DB	088H
	DB	068H
	DB	00H
	DB	0ffH
	DB	090H
	DB	068H
	DB	00H
	DB	0ffH
	DB	088H
	DB	064H
	DB	00H
	DB	0ffH
	DB	090H
	DB	068H
	DB	00H
	DB	0ffH
	DB	088H
	DB	068H
	DB	00H
	DB	0ffH
	DB	090H
	DB	064H
	DB	00H
	DB	0ffH
	DB	088H
	DB	068H
	DB	00H
	DB	0ffH
	DB	088H
	DB	064H
	DB	00H
	DB	0ffH
	DB	090H
	DB	064H
	DB	00H
	DB	0ffH
	DB	088H
	DB	068H
	DB	00H
	DB	0ffH
	DB	090H
	DB	068H
	DB	00H
	DB	0ffH
	DB	088H
	DB	064H
	DB	00H
	DB	0ffH
	DB	088H
	DB	068H
	DB	00H
	DB	0ffH
	DB	090H
	DB	068H
	DB	00H
	DB	0ffH
	DB	090H
	DB	068H
	DB	00H
	DB	0ffH
	DB	088H
	DB	068H
	DB	00H
	DB	0ffH
	DB	090H
	DB	068H
	DB	00H
	DB	0ffH
	DB	088H
	DB	064H
	DB	00H
	DB	0ffH
	DB	088H
	DB	068H
	DB	00H
	DB	0ffH
	DB	090H
	DB	068H
	DB	00H
	DB	0ffH
	DB	088H
	DB	064H
	DB	00H
	DB	0ffH
	DB	090H
	DB	068H
	DB	00H
	DB	0ffH
	DB	088H
	DB	068H
	DB	00H
	DB	0ffH
	DB	090H
	DB	064H
	DB	00H
	DB	0ffH
	DB	088H
	DB	068H
	DB	00H
	DB	0ffH
	DB	088H
	DB	068H
	DB	00H
	DB	0ffH
	DB	090H
	DB	064H
	DB	00H
	DB	0ffH
	DB	088H
	DB	068H
	DB	00H
	DB	0ffH
	DB	090H
	DB	068H
	DB	00H
	DB	0ffH
	DB	088H
	DB	068H
	DB	00H
	DB	0ffH
	DB	088H
	DB	068H
	DB	00H
	DB	0ffH
	DB	090H
	DB	068H
	DB	00H
	DB	0ffH
	DB	090H
	DB	064H
	DB	00H
	DB	0ffH
	DB	088H
	DB	068H
	DB	00H
	DB	0ffH
	DB	088H
	DB	068H
	DB	00H
	DB	0ffH
	DB	090H
	DB	064H
	DB	00H
	DB	0ffH
	DB	088H
	DB	068H
	DB	00H
	DB	0ffH
	DB	090H
	DB	064H
	DB	00H
	DB	0ffH
	DB	088H
	DB	064H
	DB	00H
	DB	0ffH
	DB	090H
	DB	068H
	DB	00H
	DB	0ffH
	DB	090H
	DB	068H
	DB	00H
	DB	0ffH
	DB	088H
	DB	064H
	DB	00H
	DB	0ffH
	DB	090H
	DB	068H
	DB	00H
	DB	0ffH
	DB	088H
	DB	068H
	DB	00H
	DB	0ffH
	DB	088H
	DB	068H
	DB	00H
	DB	0ffH
	DB	090H
	DB	068H
	DB	00H
	DB	0ffH
	DB	090H
	DB	068H
	DB	00H
	DB	0ffH
	DB	088H
	DB	064H
	DB	00H
	DB	0ffH
	DB	088H
	DB	068H
	DB	00H
	DB	0ffH
	DB	090H
	DB	068H
	DB	00H
	DB	0ffH
	DB	088H
	DB	064H
	DB	00H
	DB	0ffH
	DB	090H
	DB	068H
	DB	00H
	DB	0ffH
	DB	088H
	DB	068H
	DB	00H
	DB	0ffH
	DB	088H
	DB	064H
	DB	00H
	DB	0ffH
	DB	090H
	DB	068H
	DB	00H
	DB	0ffH
	DB	088H
	DB	068H
	DB	00H
	DB	0ffH
	DB	090H
	DB	064H
	DB	00H
	DB	0ffH
	DB	088H
	DB	068H
	DB	00H
	DB	0ffH
	DB	088H
	DB	068H
	DB	00H
	DB	0ffH
	DB	090H
	DB	068H
	DB	00H
	DB	0ffH
	DB	088H
	DB	068H
	DB	00H
	DB	0ffH
	DB	090H
	DB	068H
	DB	00H
	DB	0ffH
	DB	088H
	DB	064H
	DB	00H
	DB	0ffH
	DB	090H
	DB	068H
	DB	00H
	DB	0ffH
	DB	090H
	DB	068H
	DB	00H
	DB	0ffH
	DB	088H
	DB	064H
	DB	00H
	DB	0ffH
	DB	088H
	DB	068H
	DB	00H
	DB	0ffH
	DB	090H
	DB	064H
	DB	00H
	DB	0ffH
	DB	088H
	DB	064H
	DB	00H
	DB	0ffH
	DB	090H
	DB	068H
	DB	00H
	DB	0ffH
	DB	088H
	DB	068H
	DB	00H
	DB	0ffH
	DB	088H
	DB	064H
	DB	00H
	DB	0ffH
	DB	090H
	DB	068H
	DB	00H
	DB	0ffH
	DB	088H
	DB	068H
	DB	00H
	DB	0ffH
	DB	090H
	DB	068H
	DB	00H
	DB	0ffH
	DB	088H
	DB	068H
	DB	00H
	DB	0ffH
	DB	090H
	DB	068H
	DB	00H
	DB	0ffH
	DB	088H
	DB	064H
	DB	00H
	DB	0ffH
	DB	088H
	DB	068H
	DB	00H
	DB	0ffH
	DB	090H
	DB	068H
	DB	00H
	DB	0ffH
	DB	088H
	DB	064H
	DB	00H
	DB	0ffH
	DB	090H
	DB	068H
	DB	00H
	DB	0ffH
	DB	088H
	DB	068H
	DB	00H
	DB	0ffH
	DB	088H
	DB	064H
	DB	00H
	DB	0ffH
	DB	090H
	DB	068H
	DB	00H
	DB	0ffH
	DB	090H
	DB	068H
	DB	00H
	DB	0ffH
	DB	088H
	DB	064H
	DB	00H
	DB	0ffH
	DB	090H
	DB	068H
	DB	00H
	DB	0ffH
	DB	088H
	DB	068H
	DB	00H
	DB	0ffH
	DB	090H
	DB	068H
	DB	00H
	DB	0ffH
	DB	088H
	DB	068H
	DB	00H
	DB	0ffH
	DB	090H
	DB	068H
	DB	00H
	DB	0ffH
	DB	088H
	DB	064H
	DB	00H
	DB	0ffH
	DB	090H
	DB	068H
	DB	00H
	DB	0ffH
	DB	088H
	DB	068H
	DB	00H
	DB	0ffH
	DB	090H
	DB	064H
	DB	00H
	DB	0ffH
	DB	090H
	DB	068H
	DB	00H
	DB	0ffH
	DB	088H
	DB	068H
	DB	00H
	DB	0ffH
	DB	090H
	DB	064H
	DB	00H
	DB	0ffH
	DB	088H
	DB	068H
	DB	00H
	DB	0ffH
	DB	088H
	DB	068H
	DB	00H
	DB	0ffH
	DB	090H
	DB	064H
	DB	00H
	DB	0ffH
	DB	090H
	DB	068H
	DB	00H
	DB	0ffH
	DB	088H
	DB	068H
	DB	00H
	DB	0ffH
	DB	088H
	DB	064H
	DB	00H
	DB	0ffH
	DB	090H
	DB	068H
	DB	00H
	DB	0ffH
	DB	088H
	DB	068H
	DB	00H
	DB	0ffH
	DB	088H
	DB	064H
	DB	00H
	DB	0ffH
	DB	080H
	DB	060H
	DB	00H
	DB	0ffH
	DB	070H
	DB	050H
	DB	00H
	DB	0ffH
	DB	00H
	DB	00H
	DB	00H
	DB	00H
	DB	00H
	DB	00H
	DB	00H
	DB	00H
	DB	00H
	DB	00H
	DB	00H
	DB	00H
	DB	00H
	DB	00H
	DB	00H
	DB	00H
	DB	00H
	DB	00H
	DB	00H
	DB	00H
	DB	00H
	DB	00H
	DB	00H
	DB	00H
	DB	00H
	DB	00H
	DB	00H
	DB	00H
	DB	00H
	DB	00H
	DB	00H
	DB	00H
	DB	00H
	DB	00H
	DB	00H
	DB	00H
	DB	00H
	DB	00H
	DB	00H
	DB	00H
	DB	070H
	DB	050H
	DB	00H
	DB	0ffH
	DB	080H
	DB	060H
	DB	00H
	DB	0ffH
	DB	088H
	DB	064H
	DB	08H
	DB	0ffH
	DB	090H
	DB	068H
	DB	00H
	DB	0ffH
	DB	090H
	DB	068H
	DB	00H
	DB	0ffH
	DB	090H
	DB	068H
	DB	00H
	DB	0ffH
	DB	090H
	DB	068H
	DB	00H
	DB	0ffH
	DB	090H
	DB	068H
	DB	08H
	DB	0ffH
	DB	088H
	DB	068H
	DB	00H
	DB	0ffH
	DB	090H
	DB	068H
	DB	00H
	DB	0ffH
	DB	088H
	DB	068H
	DB	00H
	DB	0ffH
	DB	090H
	DB	068H
	DB	00H
	DB	0ffH
	DB	090H
	DB	068H
	DB	00H
	DB	0ffH
	DB	090H
	DB	068H
	DB	08H
	DB	0ffH
	DB	090H
	DB	068H
	DB	00H
	DB	0ffH
	DB	088H
	DB	068H
	DB	00H
	DB	0ffH
	DB	090H
	DB	068H
	DB	08H
	DB	0ffH
	DB	090H
	DB	068H
	DB	00H
	DB	0ffH
	DB	090H
	DB	068H
	DB	00H
	DB	0ffH
	DB	090H
	DB	068H
	DB	08H
	DB	0ffH
	DB	090H
	DB	068H
	DB	00H
	DB	0ffH
	DB	088H
	DB	068H
	DB	00H
	DB	0ffH
	DB	090H
	DB	068H
	DB	08H
	DB	0ffH
	DB	090H
	DB	068H
	DB	00H
	DB	0ffH
	DB	090H
	DB	068H
	DB	00H
	DB	0ffH
	DB	090H
	DB	068H
	DB	08H
	DB	0ffH
	DB	090H
	DB	068H
	DB	00H
	DB	0ffH
	DB	088H
	DB	068H
	DB	00H
	DB	0ffH
	DB	090H
	DB	068H
	DB	08H
	DB	0ffH
	DB	090H
	DB	068H
	DB	00H
	DB	0ffH
	DB	090H
	DB	068H
	DB	00H
	DB	0ffH
	DB	090H
	DB	068H
	DB	08H
	DB	0ffH
	DB	090H
	DB	068H
	DB	00H
	DB	0ffH
	DB	090H
	DB	068H
	DB	00H
	DB	0ffH
	DB	090H
	DB	068H
	DB	08H
	DB	0ffH
	DB	090H
	DB	068H
	DB	00H
	DB	0ffH
	DB	088H
	DB	068H
	DB	00H
	DB	0ffH
	DB	090H
	DB	068H
	DB	08H
	DB	0ffH
	DB	090H
	DB	068H
	DB	00H
	DB	0ffH
	DB	090H
	DB	068H
	DB	00H
	DB	0ffH
	DB	090H
	DB	068H
	DB	08H
	DB	0ffH
	DB	088H
	DB	068H
	DB	00H
	DB	0ffH
	DB	090H
	DB	068H
	DB	00H
	DB	0ffH
	DB	090H
	DB	068H
	DB	08H
	DB	0ffH
	DB	088H
	DB	068H
	DB	00H
	DB	0ffH
	DB	090H
	DB	068H
	DB	00H
	DB	0ffH
	DB	090H
	DB	068H
	DB	08H
	DB	0ffH
	DB	090H
	DB	068H
	DB	00H
	DB	0ffH
	DB	088H
	DB	068H
	DB	00H
	DB	0ffH
	DB	090H
	DB	068H
	DB	08H
	DB	0ffH
	DB	090H
	DB	068H
	DB	00H
	DB	0ffH
	DB	090H
	DB	068H
	DB	00H
	DB	0ffH
	DB	090H
	DB	068H
	DB	08H
	DB	0ffH
	DB	088H
	DB	068H
	DB	00H
	DB	0ffH
	DB	090H
	DB	068H
	DB	00H
	DB	0ffH
	DB	090H
	DB	068H
	DB	08H
	DB	0ffH
	DB	090H
	DB	068H
	DB	00H
	DB	0ffH
	DB	090H
	DB	068H
	DB	00H
	DB	0ffH
	DB	088H
	DB	068H
	DB	08H
	DB	0ffH
	DB	090H
	DB	068H
	DB	00H
	DB	0ffH
	DB	090H
	DB	068H
	DB	00H
	DB	0ffH
	DB	090H
	DB	068H
	DB	08H
	DB	0ffH
	DB	088H
	DB	068H
	DB	00H
	DB	0ffH
	DB	090H
	DB	068H
	DB	00H
	DB	0ffH
	DB	088H
	DB	068H
	DB	08H
	DB	0ffH
	DB	090H
	DB	068H
	DB	00H
	DB	0ffH
	DB	090H
	DB	068H
	DB	00H
	DB	0ffH
	DB	090H
	DB	068H
	DB	08H
	DB	0ffH
	DB	090H
	DB	068H
	DB	00H
	DB	0ffH
	DB	088H
	DB	068H
	DB	00H
	DB	0ffH
	DB	090H
	DB	068H
	DB	08H
	DB	0ffH
	DB	090H
	DB	068H
	DB	00H
	DB	0ffH
	DB	088H
	DB	068H
	DB	00H
	DB	0ffH
	DB	090H
	DB	068H
	DB	08H
	DB	0ffH
	DB	090H
	DB	068H
	DB	00H
	DB	0ffH
	DB	090H
	DB	068H
	DB	00H
	DB	0ffH
	DB	090H
	DB	068H
	DB	08H
	DB	0ffH
	DB	090H
	DB	068H
	DB	00H
	DB	0ffH
	DB	088H
	DB	068H
	DB	00H
	DB	0ffH
	DB	090H
	DB	068H
	DB	08H
	DB	0ffH
	DB	090H
	DB	068H
	DB	00H
	DB	0ffH
	DB	088H
	DB	068H
	DB	00H
	DB	0ffH
	DB	090H
	DB	068H
	DB	08H
	DB	0ffH
	DB	090H
	DB	068H
	DB	00H
	DB	0ffH
	DB	090H
	DB	068H
	DB	00H
	DB	0ffH
	DB	088H
	DB	068H
	DB	08H
	DB	0ffH
	DB	090H
	DB	068H
	DB	00H
	DB	0ffH
	DB	090H
	DB	068H
	DB	00H
	DB	0ffH
	DB	088H
	DB	068H
	DB	08H
	DB	0ffH
	DB	090H
	DB	068H
	DB	00H
	DB	0ffH
	DB	090H
	DB	068H
	DB	00H
	DB	0ffH
	DB	088H
	DB	068H
	DB	08H
	DB	0ffH
	DB	090H
	DB	068H
	DB	00H
	DB	0ffH
	DB	090H
	DB	068H
	DB	00H
	DB	0ffH
	DB	090H
	DB	068H
	DB	08H
	DB	0ffH
	DB	088H
	DB	068H
	DB	00H
	DB	0ffH
	DB	090H
	DB	068H
	DB	00H
	DB	0ffH
	DB	090H
	DB	068H
	DB	08H
	DB	0ffH
	DB	090H
	DB	068H
	DB	00H
	DB	0ffH
	DB	088H
	DB	068H
	DB	00H
	DB	0ffH
	DB	090H
	DB	068H
	DB	08H
	DB	0ffH
	DB	090H
	DB	068H
	DB	00H
	DB	0ffH
	DB	090H
	DB	068H
	DB	00H
	DB	0ffH
	DB	090H
	DB	068H
	DB	08H
	DB	0ffH
	DB	088H
	DB	068H
	DB	00H
	DB	0ffH
	DB	090H
	DB	068H
	DB	00H
	DB	0ffH
	DB	090H
	DB	068H
	DB	08H
	DB	0ffH
	DB	090H
	DB	068H
	DB	00H
	DB	0ffH
	DB	090H
	DB	068H
	DB	00H
	DB	0ffH
	DB	090H
	DB	068H
	DB	08H
	DB	0ffH
	DB	088H
	DB	068H
	DB	00H
	DB	0ffH
	DB	090H
	DB	068H
	DB	00H
	DB	0ffH
	DB	090H
	DB	068H
	DB	08H
	DB	0ffH
	DB	088H
	DB	068H
	DB	00H
	DB	0ffH
	DB	090H
	DB	068H
	DB	00H
	DB	0ffH
	DB	090H
	DB	068H
	DB	08H
	DB	0ffH
	DB	090H
	DB	068H
	DB	00H
	DB	0ffH
	DB	088H
	DB	068H
	DB	00H
	DB	0ffH
	DB	090H
	DB	068H
	DB	08H
	DB	0ffH
	DB	090H
	DB	068H
	DB	00H
	DB	0ffH
	DB	090H
	DB	068H
	DB	00H
	DB	0ffH
	DB	090H
	DB	068H
	DB	08H
	DB	0ffH
	DB	088H
	DB	068H
	DB	00H
	DB	0ffH
	DB	090H
	DB	068H
	DB	00H
	DB	0ffH
	DB	090H
	DB	068H
	DB	08H
	DB	0ffH
	DB	088H
	DB	068H
	DB	00H
	DB	0ffH
	DB	090H
	DB	068H
	DB	00H
	DB	0ffH
	DB	090H
	DB	068H
	DB	08H
	DB	0ffH
	DB	090H
	DB	068H
	DB	00H
	DB	0ffH
	DB	090H
	DB	068H
	DB	00H
	DB	0ffH
	DB	090H
	DB	068H
	DB	08H
	DB	0ffH
	DB	088H
	DB	068H
	DB	00H
	DB	0ffH
	DB	090H
	DB	068H
	DB	00H
	DB	0ffH
	DB	090H
	DB	068H
	DB	08H
	DB	0ffH
	DB	088H
	DB	068H
	DB	00H
	DB	0ffH
	DB	090H
	DB	068H
	DB	00H
	DB	0ffH
	DB	090H
	DB	068H
	DB	08H
	DB	0ffH
	DB	088H
	DB	068H
	DB	00H
	DB	0ffH
	DB	090H
	DB	068H
	DB	00H
	DB	0ffH
	DB	090H
	DB	068H
	DB	08H
	DB	0ffH
	DB	088H
	DB	068H
	DB	00H
	DB	0ffH
	DB	090H
	DB	068H
	DB	00H
	DB	0ffH
	DB	090H
	DB	068H
	DB	08H
	DB	0ffH
	DB	088H
	DB	068H
	DB	00H
	DB	0ffH
	DB	090H
	DB	068H
	DB	00H
	DB	0ffH
	DB	090H
	DB	068H
	DB	00H
	DB	0ffH
	DB	088H
	DB	068H
	DB	00H
	DB	0ffH
	DB	090H
	DB	068H
	DB	00H
	DB	0ffH
	DB	090H
	DB	068H
	DB	00H
	DB	0ffH
	DB	090H
	DB	068H
	DB	00H
	DB	0ffH
	DB	088H
	DB	068H
	DB	08H
	DB	0ffH
	DB	090H
	DB	068H
	DB	00H
	DB	0ffH
	DB	090H
	DB	068H
	DB	00H
	DB	0ffH
	DB	090H
	DB	068H
	DB	08H
	DB	0ffH
	DB	090H
	DB	068H
	DB	00H
	DB	0ffH
	DB	090H
	DB	068H
	DB	00H
	DB	0ffH
	DB	090H
	DB	068H
	DB	08H
	DB	0ffH
	DB	088H
	DB	064H
	DB	00H
	DB	0ffH
	DB	080H
	DB	060H
	DB	00H
	DB	0ffH
	DB	070H
	DB	054H
	DB	08H
	DB	0ffH
	DB	00H
	DB	00H
	DB	00H
	DB	00H
	DB	00H
	DB	00H
	DB	00H
	DB	00H
	DB	00H
	DB	00H
	DB	00H
	DB	00H
	DB	00H
	DB	00H
	DB	00H
	DB	00H
	DB	00H
	DB	00H
	DB	00H
	DB	00H
	DB	00H
	DB	00H
	DB	00H
	DB	00H
	DB	00H
	DB	00H
	DB	00H
	DB	00H
	DB	00H
	DB	00H
	DB	00H
	DB	00H
	DB	00H
	DB	00H
	DB	00H
	DB	00H
	DB	00H
	DB	00H
	DB	00H
	DB	00H
	DB	070H
	DB	054H
	DB	00H
	DB	0ffH
	DB	080H
	DB	060H
	DB	00H
	DB	0ffH
	DB	088H
	DB	064H
	DB	00H
	DB	0ffH
	DB	090H
	DB	068H
	DB	00H
	DB	0ffH
	DB	088H
	DB	068H
	DB	00H
	DB	0ffH
	DB	090H
	DB	068H
	DB	08H
	DB	0ffH
	DB	088H
	DB	068H
	DB	00H
	DB	0ffH
	DB	090H
	DB	068H
	DB	00H
	DB	0ffH
	DB	090H
	DB	068H
	DB	00H
	DB	0ffH
	DB	088H
	DB	068H
	DB	00H
	DB	0ffH
	DB	090H
	DB	068H
	DB	08H
	DB	0ffH
	DB	088H
	DB	068H
	DB	00H
	DB	0ffH
	DB	090H
	DB	068H
	DB	00H
	DB	0ffH
	DB	088H
	DB	068H
	DB	00H
	DB	0ffH
	DB	090H
	DB	068H
	DB	00H
	DB	0ffH
	DB	090H
	DB	068H
	DB	00H
	DB	0ffH
	DB	088H
	DB	068H
	DB	00H
	DB	0ffH
	DB	090H
	DB	068H
	DB	00H
	DB	0ffH
	DB	088H
	DB	068H
	DB	00H
	DB	0ffH
	DB	090H
	DB	068H
	DB	00H
	DB	0ffH
	DB	090H
	DB	068H
	DB	00H
	DB	0ffH
	DB	088H
	DB	068H
	DB	00H
	DB	0ffH
	DB	090H
	DB	068H
	DB	00H
	DB	0ffH
	DB	090H
	DB	068H
	DB	00H
	DB	0ffH
	DB	088H
	DB	068H
	DB	00H
	DB	0ffH
	DB	088H
	DB	068H
	DB	00H
	DB	0ffH
	DB	090H
	DB	068H
	DB	00H
	DB	0ffH
	DB	090H
	DB	068H
	DB	00H
	DB	0ffH
	DB	088H
	DB	068H
	DB	00H
	DB	0ffH
	DB	090H
	DB	068H
	DB	00H
	DB	0ffH
	DB	088H
	DB	068H
	DB	00H
	DB	0ffH
	DB	088H
	DB	068H
	DB	00H
	DB	0ffH
	DB	090H
	DB	068H
	DB	00H
	DB	0ffH
	DB	088H
	DB	068H
	DB	00H
	DB	0ffH
	DB	090H
	DB	068H
	DB	00H
	DB	0ffH
	DB	088H
	DB	068H
	DB	00H
	DB	0ffH
	DB	090H
	DB	068H
	DB	00H
	DB	0ffH
	DB	090H
	DB	068H
	DB	00H
	DB	0ffH
	DB	088H
	DB	068H
	DB	00H
	DB	0ffH
	DB	090H
	DB	068H
	DB	00H
	DB	0ffH
	DB	088H
	DB	068H
	DB	00H
	DB	0ffH
	DB	090H
	DB	068H
	DB	00H
	DB	0ffH
	DB	088H
	DB	068H
	DB	00H
	DB	0ffH
	DB	090H
	DB	068H
	DB	00H
	DB	0ffH
	DB	090H
	DB	068H
	DB	00H
	DB	0ffH
	DB	088H
	DB	068H
	DB	00H
	DB	0ffH
	DB	090H
	DB	068H
	DB	00H
	DB	0ffH
	DB	090H
	DB	068H
	DB	00H
	DB	0ffH
	DB	088H
	DB	068H
	DB	00H
	DB	0ffH
	DB	090H
	DB	068H
	DB	00H
	DB	0ffH
	DB	090H
	DB	068H
	DB	00H
	DB	0ffH
	DB	088H
	DB	068H
	DB	00H
	DB	0ffH
	DB	090H
	DB	068H
	DB	00H
	DB	0ffH
	DB	088H
	DB	068H
	DB	00H
	DB	0ffH
	DB	090H
	DB	068H
	DB	00H
	DB	0ffH
	DB	088H
	DB	068H
	DB	00H
	DB	0ffH
	DB	090H
	DB	068H
	DB	00H
	DB	0ffH
	DB	090H
	DB	068H
	DB	00H
	DB	0ffH
	DB	088H
	DB	068H
	DB	00H
	DB	0ffH
	DB	090H
	DB	068H
	DB	00H
	DB	0ffH
	DB	090H
	DB	068H
	DB	00H
	DB	0ffH
	DB	088H
	DB	068H
	DB	00H
	DB	0ffH
	DB	090H
	DB	068H
	DB	00H
	DB	0ffH
	DB	090H
	DB	068H
	DB	00H
	DB	0ffH
	DB	088H
	DB	068H
	DB	00H
	DB	0ffH
	DB	090H
	DB	068H
	DB	00H
	DB	0ffH
	DB	088H
	DB	068H
	DB	00H
	DB	0ffH
	DB	090H
	DB	068H
	DB	00H
	DB	0ffH
	DB	090H
	DB	068H
	DB	00H
	DB	0ffH
	DB	088H
	DB	068H
	DB	00H
	DB	0ffH
	DB	090H
	DB	068H
	DB	00H
	DB	0ffH
	DB	090H
	DB	068H
	DB	00H
	DB	0ffH
	DB	088H
	DB	068H
	DB	00H
	DB	0ffH
	DB	090H
	DB	068H
	DB	00H
	DB	0ffH
	DB	090H
	DB	068H
	DB	00H
	DB	0ffH
	DB	088H
	DB	068H
	DB	00H
	DB	0ffH
	DB	088H
	DB	068H
	DB	00H
	DB	0ffH
	DB	090H
	DB	068H
	DB	00H
	DB	0ffH
	DB	090H
	DB	068H
	DB	00H
	DB	0ffH
	DB	090H
	DB	068H
	DB	00H
	DB	0ffH
	DB	088H
	DB	068H
	DB	00H
	DB	0ffH
	DB	090H
	DB	068H
	DB	00H
	DB	0ffH
	DB	088H
	DB	068H
	DB	00H
	DB	0ffH
	DB	090H
	DB	068H
	DB	00H
	DB	0ffH
	DB	090H
	DB	068H
	DB	00H
	DB	0ffH
	DB	088H
	DB	068H
	DB	00H
	DB	0ffH
	DB	090H
	DB	068H
	DB	00H
	DB	0ffH
	DB	090H
	DB	068H
	DB	00H
	DB	0ffH
	DB	088H
	DB	068H
	DB	00H
	DB	0ffH
	DB	090H
	DB	068H
	DB	00H
	DB	0ffH
	DB	090H
	DB	068H
	DB	00H
	DB	0ffH
	DB	088H
	DB	068H
	DB	00H
	DB	0ffH
	DB	090H
	DB	068H
	DB	00H
	DB	0ffH
	DB	090H
	DB	068H
	DB	00H
	DB	0ffH
	DB	088H
	DB	068H
	DB	00H
	DB	0ffH
	DB	090H
	DB	068H
	DB	00H
	DB	0ffH
	DB	088H
	DB	068H
	DB	00H
	DB	0ffH
	DB	090H
	DB	068H
	DB	00H
	DB	0ffH
	DB	090H
	DB	068H
	DB	00H
	DB	0ffH
	DB	088H
	DB	068H
	DB	00H
	DB	0ffH
	DB	090H
	DB	068H
	DB	00H
	DB	0ffH
	DB	088H
	DB	068H
	DB	00H
	DB	0ffH
	DB	090H
	DB	068H
	DB	00H
	DB	0ffH
	DB	090H
	DB	068H
	DB	00H
	DB	0ffH
	DB	088H
	DB	068H
	DB	00H
	DB	0ffH
	DB	090H
	DB	068H
	DB	00H
	DB	0ffH
	DB	088H
	DB	068H
	DB	00H
	DB	0ffH
	DB	088H
	DB	068H
	DB	00H
	DB	0ffH
	DB	090H
	DB	068H
	DB	00H
	DB	0ffH
	DB	090H
	DB	068H
	DB	00H
	DB	0ffH
	DB	088H
	DB	068H
	DB	00H
	DB	0ffH
	DB	090H
	DB	068H
	DB	00H
	DB	0ffH
	DB	090H
	DB	068H
	DB	00H
	DB	0ffH
	DB	088H
	DB	068H
	DB	00H
	DB	0ffH
	DB	088H
	DB	068H
	DB	00H
	DB	0ffH
	DB	090H
	DB	068H
	DB	00H
	DB	0ffH
	DB	090H
	DB	068H
	DB	00H
	DB	0ffH
	DB	088H
	DB	068H
	DB	00H
	DB	0ffH
	DB	090H
	DB	068H
	DB	00H
	DB	0ffH
	DB	088H
	DB	068H
	DB	00H
	DB	0ffH
	DB	090H
	DB	068H
	DB	00H
	DB	0ffH
	DB	090H
	DB	068H
	DB	00H
	DB	0ffH
	DB	088H
	DB	068H
	DB	00H
	DB	0ffH
	DB	090H
	DB	068H
	DB	00H
	DB	0ffH
	DB	090H
	DB	068H
	DB	00H
	DB	0ffH
	DB	088H
	DB	068H
	DB	00H
	DB	0ffH
	DB	090H
	DB	068H
	DB	00H
	DB	0ffH
	DB	090H
	DB	068H
	DB	00H
	DB	0ffH
	DB	088H
	DB	068H
	DB	00H
	DB	0ffH
	DB	088H
	DB	068H
	DB	00H
	DB	0ffH
	DB	090H
	DB	068H
	DB	00H
	DB	0ffH
	DB	090H
	DB	068H
	DB	00H
	DB	0ffH
	DB	090H
	DB	068H
	DB	00H
	DB	0ffH
	DB	088H
	DB	068H
	DB	00H
	DB	0ffH
	DB	090H
	DB	068H
	DB	00H
	DB	0ffH
	DB	088H
	DB	068H
	DB	00H
	DB	0ffH
	DB	090H
	DB	068H
	DB	00H
	DB	0ffH
	DB	090H
	DB	068H
	DB	00H
	DB	0ffH
	DB	088H
	DB	068H
	DB	00H
	DB	0ffH
	DB	090H
	DB	068H
	DB	00H
	DB	0ffH
	DB	090H
	DB	068H
	DB	00H
	DB	0ffH
	DB	088H
	DB	068H
	DB	00H
	DB	0ffH
	DB	090H
	DB	068H
	DB	00H
	DB	0ffH
	DB	090H
	DB	068H
	DB	00H
	DB	0ffH
	DB	088H
	DB	068H
	DB	08H
	DB	0ffH
	DB	090H
	DB	068H
	DB	00H
	DB	0ffH
	DB	088H
	DB	068H
	DB	00H
	DB	0ffH
	DB	090H
	DB	068H
	DB	08H
	DB	0ffH
	DB	090H
	DB	068H
	DB	00H
	DB	0ffH
	DB	088H
	DB	068H
	DB	00H
	DB	0ffH
	DB	090H
	DB	068H
	DB	00H
	DB	0ffH
	DB	088H
	DB	068H
	DB	00H
	DB	0ffH
	DB	088H
	DB	068H
	DB	00H
	DB	0ffH
	DB	090H
	DB	068H
	DB	00H
	DB	0ffH
	DB	088H
	DB	068H
	DB	00H
	DB	0ffH
	DB	090H
	DB	068H
	DB	00H
	DB	0ffH
	DB	090H
	DB	068H
	DB	00H
	DB	0ffH
	DB	088H
	DB	064H
	DB	00H
	DB	0ffH
	DB	080H
	DB	060H
	DB	00H
	DB	0ffH
	DB	070H
	DB	050H
	DB	00H
	DB	0ffH
	DB	00H
	DB	00H
	DB	00H
	DB	00H
	DB	00H
	DB	00H
	DB	00H
	DB	00H
	DB	00H
	DB	00H
	DB	00H
	DB	00H
	DB	00H
	DB	00H
	DB	00H
	DB	00H
	DB	00H
	DB	00H
	DB	00H
	DB	00H
	DB	00H
	DB	00H
	DB	00H
	DB	00H
	DB	00H
	DB	00H
	DB	00H
	DB	00H
	DB	00H
	DB	00H
	DB	00H
	DB	00H
	DB	00H
	DB	00H
	DB	00H
	DB	00H
	DB	00H
	DB	00H
	DB	00H
	DB	00H
	DB	070H
	DB	050H
	DB	00H
	DB	0ffH
	DB	080H
	DB	060H
	DB	00H
	DB	0ffH
	DB	088H
	DB	068H
	DB	00H
	DB	0ffH
	DB	090H
	DB	068H
	DB	00H
	DB	0ffH
	DB	090H
	DB	068H
	DB	00H
	DB	0ffH
	DB	088H
	DB	068H
	DB	00H
	DB	0ffH
	DB	090H
	DB	068H
	DB	00H
	DB	0ffH
	DB	088H
	DB	068H
	DB	00H
	DB	0ffH
	DB	090H
	DB	068H
	DB	00H
	DB	0ffH
	DB	090H
	DB	068H
	DB	00H
	DB	0ffH
	DB	088H
	DB	068H
	DB	00H
	DB	0ffH
	DB	090H
	DB	068H
	DB	00H
	DB	0ffH
	DB	090H
	DB	068H
	DB	00H
	DB	0ffH
	DB	088H
	DB	068H
	DB	00H
	DB	0ffH
	DB	090H
	DB	068H
	DB	00H
	DB	0ffH
	DB	090H
	DB	068H
	DB	00H
	DB	0ffH
	DB	088H
	DB	068H
	DB	00H
	DB	0ffH
	DB	090H
	DB	068H
	DB	08H
	DB	0ffH
	DB	088H
	DB	068H
	DB	00H
	DB	0ffH
	DB	088H
	DB	068H
	DB	00H
	DB	0ffH
	DB	090H
	DB	068H
	DB	00H
	DB	0ffH
	DB	090H
	DB	068H
	DB	08H
	DB	0ffH
	DB	088H
	DB	068H
	DB	00H
	DB	0ffH
	DB	090H
	DB	068H
	DB	00H
	DB	0ffH
	DB	088H
	DB	068H
	DB	00H
	DB	0ffH
	DB	090H
	DB	068H
	DB	00H
	DB	0ffH
	DB	090H
	DB	068H
	DB	08H
	DB	0ffH
	DB	088H
	DB	068H
	DB	00H
	DB	0ffH
	DB	090H
	DB	068H
	DB	00H
	DB	0ffH
	DB	090H
	DB	068H
	DB	00H
	DB	0ffH
	DB	088H
	DB	068H
	DB	08H
	DB	0ffH
	DB	090H
	DB	068H
	DB	00H
	DB	0ffH
	DB	088H
	DB	068H
	DB	00H
	DB	0ffH
	DB	090H
	DB	068H
	DB	00H
	DB	0ffH
	DB	088H
	DB	068H
	DB	00H
	DB	0ffH
	DB	090H
	DB	068H
	DB	08H
	DB	0ffH
	DB	090H
	DB	068H
	DB	00H
	DB	0ffH
	DB	088H
	DB	068H
	DB	00H
	DB	0ffH
	DB	090H
	DB	068H
	DB	00H
	DB	0ffH
	DB	088H
	DB	068H
	DB	08H
	DB	0ffH
	DB	090H
	DB	068H
	DB	00H
	DB	0ffH
	DB	090H
	DB	068H
	DB	00H
	DB	0ffH
	DB	088H
	DB	068H
	DB	00H
	DB	0ffH
	DB	090H
	DB	068H
	DB	00H
	DB	0ffH
	DB	090H
	DB	068H
	DB	08H
	DB	0ffH
	DB	088H
	DB	068H
	DB	00H
	DB	0ffH
	DB	088H
	DB	068H
	DB	00H
	DB	0ffH
	DB	090H
	DB	068H
	DB	00H
	DB	0ffH
	DB	090H
	DB	068H
	DB	08H
	DB	0ffH
	DB	088H
	DB	068H
	DB	00H
	DB	0ffH
	DB	088H
	DB	068H
	DB	00H
	DB	0ffH
	DB	090H
	DB	068H
	DB	00H
	DB	0ffH
	DB	090H
	DB	068H
	DB	00H
	DB	0ffH
	DB	090H
	DB	068H
	DB	08H
	DB	0ffH
	DB	088H
	DB	068H
	DB	00H
	DB	0ffH
	DB	090H
	DB	068H
	DB	00H
	DB	0ffH
	DB	088H
	DB	068H
	DB	00H
	DB	0ffH
	DB	090H
	DB	068H
	DB	08H
	DB	0ffH
	DB	088H
	DB	068H
	DB	00H
	DB	0ffH
	DB	090H
	DB	068H
	DB	00H
	DB	0ffH
	DB	088H
	DB	068H
	DB	00H
	DB	0ffH
	DB	090H
	DB	068H
	DB	00H
	DB	0ffH
	DB	090H
	DB	068H
	DB	08H
	DB	0ffH
	DB	088H
	DB	068H
	DB	00H
	DB	0ffH
	DB	090H
	DB	068H
	DB	00H
	DB	0ffH
	DB	090H
	DB	068H
	DB	00H
	DB	0ffH
	DB	088H
	DB	068H
	DB	08H
	DB	0ffH
	DB	088H
	DB	068H
	DB	00H
	DB	0ffH
	DB	090H
	DB	068H
	DB	00H
	DB	0ffH
	DB	090H
	DB	068H
	DB	00H
	DB	0ffH
	DB	088H
	DB	068H
	DB	00H
	DB	0ffH
	DB	090H
	DB	068H
	DB	08H
	DB	0ffH
	DB	090H
	DB	068H
	DB	00H
	DB	0ffH
	DB	088H
	DB	068H
	DB	00H
	DB	0ffH
	DB	090H
	DB	068H
	DB	00H
	DB	0ffH
	DB	088H
	DB	068H
	DB	08H
	DB	0ffH
	DB	090H
	DB	068H
	DB	00H
	DB	0ffH
	DB	088H
	DB	068H
	DB	00H
	DB	0ffH
	DB	090H
	DB	068H
	DB	00H
	DB	0ffH
	DB	088H
	DB	068H
	DB	00H
	DB	0ffH
	DB	090H
	DB	068H
	DB	08H
	DB	0ffH
	DB	090H
	DB	068H
	DB	00H
	DB	0ffH
	DB	088H
	DB	068H
	DB	00H
	DB	0ffH
	DB	090H
	DB	068H
	DB	00H
	DB	0ffH
	DB	088H
	DB	068H
	DB	08H
	DB	0ffH
	DB	090H
	DB	068H
	DB	00H
	DB	0ffH
	DB	090H
	DB	068H
	DB	00H
	DB	0ffH
	DB	088H
	DB	068H
	DB	00H
	DB	0ffH
	DB	090H
	DB	068H
	DB	00H
	DB	0ffH
	DB	088H
	DB	068H
	DB	08H
	DB	0ffH
	DB	090H
	DB	068H
	DB	00H
	DB	0ffH
	DB	088H
	DB	068H
	DB	00H
	DB	0ffH
	DB	090H
	DB	068H
	DB	00H
	DB	0ffH
	DB	088H
	DB	068H
	DB	08H
	DB	0ffH
	DB	090H
	DB	068H
	DB	00H
	DB	0ffH
	DB	090H
	DB	068H
	DB	00H
	DB	0ffH
	DB	088H
	DB	068H
	DB	00H
	DB	0ffH
	DB	088H
	DB	068H
	DB	00H
	DB	0ffH
	DB	090H
	DB	068H
	DB	08H
	DB	0ffH
	DB	090H
	DB	068H
	DB	00H
	DB	0ffH
	DB	088H
	DB	068H
	DB	00H
	DB	0ffH
	DB	090H
	DB	068H
	DB	00H
	DB	0ffH
	DB	088H
	DB	068H
	DB	08H
	DB	0ffH
	DB	090H
	DB	068H
	DB	00H
	DB	0ffH
	DB	090H
	DB	068H
	DB	00H
	DB	0ffH
	DB	088H
	DB	068H
	DB	00H
	DB	0ffH
	DB	090H
	DB	068H
	DB	00H
	DB	0ffH
	DB	090H
	DB	068H
	DB	08H
	DB	0ffH
	DB	088H
	DB	068H
	DB	00H
	DB	0ffH
	DB	090H
	DB	068H
	DB	00H
	DB	0ffH
	DB	088H
	DB	068H
	DB	00H
	DB	0ffH
	DB	090H
	DB	068H
	DB	08H
	DB	0ffH
	DB	090H
	DB	068H
	DB	00H
	DB	0ffH
	DB	088H
	DB	068H
	DB	00H
	DB	0ffH
	DB	090H
	DB	068H
	DB	00H
	DB	0ffH
	DB	090H
	DB	068H
	DB	00H
	DB	0ffH
	DB	088H
	DB	068H
	DB	08H
	DB	0ffH
	DB	090H
	DB	068H
	DB	00H
	DB	0ffH
	DB	090H
	DB	068H
	DB	00H
	DB	0ffH
	DB	088H
	DB	068H
	DB	00H
	DB	0ffH
	DB	088H
	DB	068H
	DB	08H
	DB	0ffH
	DB	090H
	DB	068H
	DB	00H
	DB	0ffH
	DB	090H
	DB	068H
	DB	00H
	DB	0ffH
	DB	088H
	DB	068H
	DB	00H
	DB	0ffH
	DB	090H
	DB	068H
	DB	00H
	DB	0ffH
	DB	090H
	DB	068H
	DB	08H
	DB	0ffH
	DB	088H
	DB	068H
	DB	00H
	DB	0ffH
	DB	090H
	DB	068H
	DB	00H
	DB	0ffH
	DB	088H
	DB	068H
	DB	00H
	DB	0ffH
	DB	090H
	DB	068H
	DB	08H
	DB	0ffH
	DB	088H
	DB	068H
	DB	00H
	DB	0ffH
	DB	090H
	DB	068H
	DB	00H
	DB	0ffH
	DB	088H
	DB	068H
	DB	00H
	DB	0ffH
	DB	090H
	DB	068H
	DB	00H
	DB	0ffH
	DB	090H
	DB	068H
	DB	08H
	DB	0ffH
	DB	088H
	DB	068H
	DB	00H
	DB	0ffH
	DB	090H
	DB	068H
	DB	00H
	DB	0ffH
	DB	090H
	DB	068H
	DB	00H
	DB	0ffH
	DB	088H
	DB	068H
	DB	08H
	DB	0ffH
	DB	090H
	DB	068H
	DB	00H
	DB	0ffH
	DB	090H
	DB	068H
	DB	00H
	DB	0ffH
	DB	088H
	DB	068H
	DB	00H
	DB	0ffH
	DB	090H
	DB	068H
	DB	00H
	DB	0ffH
	DB	090H
	DB	068H
	DB	00H
	DB	0ffH
	DB	088H
	DB	068H
	DB	00H
	DB	0ffH
	DB	090H
	DB	068H
	DB	00H
	DB	0ffH
	DB	090H
	DB	068H
	DB	00H
	DB	0ffH
	DB	088H
	DB	068H
	DB	00H
	DB	0ffH
	DB	088H
	DB	068H
	DB	00H
	DB	0ffH
	DB	090H
	DB	068H
	DB	00H
	DB	0ffH
	DB	090H
	DB	068H
	DB	00H
	DB	0ffH
	DB	090H
	DB	068H
	DB	00H
	DB	0ffH
	DB	088H
	DB	068H
	DB	00H
	DB	0ffH
	DB	090H
	DB	068H
	DB	00H
	DB	0ffH
	DB	088H
	DB	068H
	DB	00H
	DB	0ffH
	DB	088H
	DB	068H
	DB	00H
	DB	0ffH
	DB	090H
	DB	068H
	DB	00H
	DB	0ffH
	DB	088H
	DB	068H
	DB	00H
	DB	0ffH
	DB	080H
	DB	060H
	DB	00H
	DB	0ffH
	DB	070H
	DB	050H
	DB	00H
	DB	0ffH
	DB	00H
	DB	00H
	DB	00H
	DB	00H
	DB	00H
	DB	00H
	DB	00H
	DB	00H
	DB	00H
	DB	00H
	DB	00H
	DB	00H
	DB	00H
	DB	00H
	DB	00H
	DB	00H
	DB	00H
	DB	00H
	DB	00H
	DB	00H
	DB	00H
	DB	00H
	DB	00H
	DB	00H
	DB	00H
	DB	00H
	DB	00H
	DB	00H
	DB	00H
	DB	00H
	DB	00H
	DB	00H
	DB	00H
	DB	00H
	DB	00H
	DB	00H
	DB	00H
	DB	00H
	DB	00H
	DB	00H
	DB	070H
	DB	054H
	DB	00H
	DB	0ffH
	DB	080H
	DB	060H
	DB	00H
	DB	0ffH
	DB	088H
	DB	068H
	DB	08H
	DB	0ffH
	DB	090H
	DB	068H
	DB	00H
	DB	0ffH
	DB	090H
	DB	068H
	DB	00H
	DB	0ffH
	DB	090H
	DB	068H
	DB	00H
	DB	0ffH
	DB	090H
	DB	068H
	DB	00H
	DB	0ffH
	DB	090H
	DB	068H
	DB	00H
	DB	0ffH
	DB	090H
	DB	068H
	DB	08H
	DB	0ffH
	DB	090H
	DB	068H
	DB	00H
	DB	0ffH
	DB	090H
	DB	068H
	DB	00H
	DB	0ffH
	DB	090H
	DB	068H
	DB	00H
	DB	0ffH
	DB	090H
	DB	068H
	DB	00H
	DB	0ffH
	DB	090H
	DB	068H
	DB	08H
	DB	0ffH
	DB	090H
	DB	068H
	DB	00H
	DB	0ffH
	DB	090H
	DB	068H
	DB	00H
	DB	0ffH
	DB	090H
	DB	068H
	DB	00H
	DB	0ffH
	DB	090H
	DB	068H
	DB	00H
	DB	0ffH
	DB	090H
	DB	068H
	DB	00H
	DB	0ffH
	DB	090H
	DB	068H
	DB	00H
	DB	0ffH
	DB	090H
	DB	068H
	DB	00H
	DB	0ffH
	DB	090H
	DB	068H
	DB	00H
	DB	0ffH
	DB	090H
	DB	068H
	DB	00H
	DB	0ffH
	DB	090H
	DB	068H
	DB	08H
	DB	0ffH
	DB	090H
	DB	068H
	DB	00H
	DB	0ffH
	DB	090H
	DB	068H
	DB	00H
	DB	0ffH
	DB	090H
	DB	068H
	DB	00H
	DB	0ffH
	DB	090H
	DB	068H
	DB	00H
	DB	0ffH
	DB	090H
	DB	068H
	DB	00H
	DB	0ffH
	DB	090H
	DB	068H
	DB	00H
	DB	0ffH
	DB	090H
	DB	068H
	DB	00H
	DB	0ffH
	DB	090H
	DB	068H
	DB	00H
	DB	0ffH
	DB	090H
	DB	068H
	DB	08H
	DB	0ffH
	DB	090H
	DB	068H
	DB	00H
	DB	0ffH
	DB	090H
	DB	068H
	DB	00H
	DB	0ffH
	DB	090H
	DB	068H
	DB	00H
	DB	0ffH
	DB	090H
	DB	068H
	DB	00H
	DB	0ffH
	DB	090H
	DB	068H
	DB	00H
	DB	0ffH
	DB	090H
	DB	068H
	DB	00H
	DB	0ffH
	DB	090H
	DB	068H
	DB	00H
	DB	0ffH
	DB	090H
	DB	068H
	DB	00H
	DB	0ffH
	DB	090H
	DB	068H
	DB	08H
	DB	0ffH
	DB	090H
	DB	068H
	DB	00H
	DB	0ffH
	DB	090H
	DB	068H
	DB	00H
	DB	0ffH
	DB	090H
	DB	068H
	DB	00H
	DB	0ffH
	DB	090H
	DB	068H
	DB	00H
	DB	0ffH
	DB	090H
	DB	068H
	DB	00H
	DB	0ffH
	DB	090H
	DB	068H
	DB	00H
	DB	0ffH
	DB	090H
	DB	068H
	DB	00H
	DB	0ffH
	DB	090H
	DB	068H
	DB	00H
	DB	0ffH
	DB	090H
	DB	068H
	DB	08H
	DB	0ffH
	DB	090H
	DB	068H
	DB	00H
	DB	0ffH
	DB	090H
	DB	068H
	DB	00H
	DB	0ffH
	DB	090H
	DB	068H
	DB	00H
	DB	0ffH
	DB	090H
	DB	068H
	DB	00H
	DB	0ffH
	DB	090H
	DB	068H
	DB	00H
	DB	0ffH
	DB	090H
	DB	068H
	DB	00H
	DB	0ffH
	DB	090H
	DB	068H
	DB	00H
	DB	0ffH
	DB	090H
	DB	068H
	DB	00H
	DB	0ffH
	DB	090H
	DB	068H
	DB	08H
	DB	0ffH
	DB	090H
	DB	068H
	DB	00H
	DB	0ffH
	DB	090H
	DB	068H
	DB	00H
	DB	0ffH
	DB	090H
	DB	068H
	DB	00H
	DB	0ffH
	DB	090H
	DB	068H
	DB	00H
	DB	0ffH
	DB	090H
	DB	068H
	DB	00H
	DB	0ffH
	DB	090H
	DB	068H
	DB	00H
	DB	0ffH
	DB	090H
	DB	068H
	DB	00H
	DB	0ffH
	DB	090H
	DB	068H
	DB	00H
	DB	0ffH
	DB	090H
	DB	068H
	DB	08H
	DB	0ffH
	DB	090H
	DB	068H
	DB	00H
	DB	0ffH
	DB	090H
	DB	068H
	DB	00H
	DB	0ffH
	DB	090H
	DB	068H
	DB	00H
	DB	0ffH
	DB	090H
	DB	068H
	DB	00H
	DB	0ffH
	DB	090H
	DB	068H
	DB	00H
	DB	0ffH
	DB	090H
	DB	068H
	DB	00H
	DB	0ffH
	DB	090H
	DB	068H
	DB	00H
	DB	0ffH
	DB	090H
	DB	068H
	DB	00H
	DB	0ffH
	DB	090H
	DB	068H
	DB	08H
	DB	0ffH
	DB	090H
	DB	068H
	DB	00H
	DB	0ffH
	DB	090H
	DB	068H
	DB	00H
	DB	0ffH
	DB	090H
	DB	068H
	DB	00H
	DB	0ffH
	DB	090H
	DB	068H
	DB	00H
	DB	0ffH
	DB	090H
	DB	068H
	DB	00H
	DB	0ffH
	DB	090H
	DB	068H
	DB	00H
	DB	0ffH
	DB	090H
	DB	068H
	DB	00H
	DB	0ffH
	DB	090H
	DB	068H
	DB	00H
	DB	0ffH
	DB	090H
	DB	068H
	DB	08H
	DB	0ffH
	DB	090H
	DB	068H
	DB	00H
	DB	0ffH
	DB	090H
	DB	068H
	DB	00H
	DB	0ffH
	DB	090H
	DB	068H
	DB	00H
	DB	0ffH
	DB	090H
	DB	068H
	DB	00H
	DB	0ffH
	DB	090H
	DB	068H
	DB	00H
	DB	0ffH
	DB	090H
	DB	068H
	DB	00H
	DB	0ffH
	DB	090H
	DB	068H
	DB	00H
	DB	0ffH
	DB	090H
	DB	068H
	DB	00H
	DB	0ffH
	DB	090H
	DB	068H
	DB	08H
	DB	0ffH
	DB	090H
	DB	068H
	DB	00H
	DB	0ffH
	DB	090H
	DB	068H
	DB	00H
	DB	0ffH
	DB	090H
	DB	068H
	DB	00H
	DB	0ffH
	DB	090H
	DB	068H
	DB	00H
	DB	0ffH
	DB	090H
	DB	068H
	DB	00H
	DB	0ffH
	DB	090H
	DB	068H
	DB	00H
	DB	0ffH
	DB	090H
	DB	068H
	DB	00H
	DB	0ffH
	DB	090H
	DB	068H
	DB	00H
	DB	0ffH
	DB	090H
	DB	068H
	DB	08H
	DB	0ffH
	DB	090H
	DB	068H
	DB	00H
	DB	0ffH
	DB	090H
	DB	068H
	DB	00H
	DB	0ffH
	DB	090H
	DB	068H
	DB	00H
	DB	0ffH
	DB	090H
	DB	068H
	DB	00H
	DB	0ffH
	DB	090H
	DB	068H
	DB	00H
	DB	0ffH
	DB	090H
	DB	068H
	DB	00H
	DB	0ffH
	DB	090H
	DB	068H
	DB	00H
	DB	0ffH
	DB	090H
	DB	068H
	DB	00H
	DB	0ffH
	DB	090H
	DB	068H
	DB	08H
	DB	0ffH
	DB	090H
	DB	068H
	DB	00H
	DB	0ffH
	DB	090H
	DB	068H
	DB	00H
	DB	0ffH
	DB	090H
	DB	068H
	DB	00H
	DB	0ffH
	DB	090H
	DB	068H
	DB	00H
	DB	0ffH
	DB	090H
	DB	068H
	DB	00H
	DB	0ffH
	DB	090H
	DB	068H
	DB	00H
	DB	0ffH
	DB	090H
	DB	068H
	DB	00H
	DB	0ffH
	DB	090H
	DB	068H
	DB	00H
	DB	0ffH
	DB	090H
	DB	068H
	DB	08H
	DB	0ffH
	DB	090H
	DB	068H
	DB	00H
	DB	0ffH
	DB	090H
	DB	068H
	DB	00H
	DB	0ffH
	DB	090H
	DB	068H
	DB	00H
	DB	0ffH
	DB	090H
	DB	068H
	DB	00H
	DB	0ffH
	DB	090H
	DB	068H
	DB	00H
	DB	0ffH
	DB	090H
	DB	068H
	DB	00H
	DB	0ffH
	DB	090H
	DB	068H
	DB	00H
	DB	0ffH
	DB	090H
	DB	068H
	DB	00H
	DB	0ffH
	DB	090H
	DB	068H
	DB	08H
	DB	0ffH
	DB	090H
	DB	068H
	DB	00H
	DB	0ffH
	DB	090H
	DB	068H
	DB	00H
	DB	0ffH
	DB	090H
	DB	068H
	DB	00H
	DB	0ffH
	DB	090H
	DB	068H
	DB	00H
	DB	0ffH
	DB	090H
	DB	068H
	DB	00H
	DB	0ffH
	DB	090H
	DB	068H
	DB	00H
	DB	0ffH
	DB	088H
	DB	068H
	DB	00H
	DB	0ffH
	DB	090H
	DB	068H
	DB	00H
	DB	0ffH
	DB	090H
	DB	068H
	DB	08H
	DB	0ffH
	DB	090H
	DB	068H
	DB	00H
	DB	0ffH
	DB	090H
	DB	068H
	DB	00H
	DB	0ffH
	DB	090H
	DB	068H
	DB	08H
	DB	0ffH
	DB	090H
	DB	068H
	DB	00H
	DB	0ffH
	DB	090H
	DB	068H
	DB	00H
	DB	0ffH
	DB	090H
	DB	068H
	DB	00H
	DB	0ffH
	DB	090H
	DB	068H
	DB	00H
	DB	0ffH
	DB	090H
	DB	068H
	DB	08H
	DB	0ffH
	DB	090H
	DB	068H
	DB	00H
	DB	0ffH
	DB	090H
	DB	068H
	DB	00H
	DB	0ffH
	DB	090H
	DB	068H
	DB	08H
	DB	0ffH
	DB	090H
	DB	068H
	DB	00H
	DB	0ffH
	DB	090H
	DB	068H
	DB	00H
	DB	0ffH
	DB	090H
	DB	068H
	DB	08H
	DB	0ffH
	DB	090H
	DB	068H
	DB	00H
	DB	0ffH
	DB	090H
	DB	068H
	DB	00H
	DB	0ffH
	DB	088H
	DB	068H
	DB	08H
	DB	0ffH
	DB	080H
	DB	060H
	DB	00H
	DB	0ffH
	DB	070H
	DB	054H
	DB	00H
	DB	0ffH
	DB	00H
	DB	00H
	DB	00H
	DB	00H
	DB	00H
	DB	00H
	DB	00H
	DB	00H
	DB	00H
	DB	00H
	DB	00H
	DB	00H
	DB	00H
	DB	00H
	DB	00H
	DB	00H
	DB	00H
	DB	00H
	DB	00H
	DB	00H
	DB	00H
	DB	00H
	DB	00H
	DB	00H
	DB	00H
	DB	00H
	DB	00H
	DB	00H
	DB	00H
	DB	00H
	DB	00H
	DB	00H
	DB	00H
	DB	00H
	DB	00H
	DB	00H
	DB	00H
	DB	00H
	DB	00H
	DB	00H
	DB	070H
	DB	054H
	DB	00H
	DB	0ffH
	DB	080H
	DB	060H
	DB	00H
	DB	0ffH
	DB	090H
	DB	068H
	DB	00H
	DB	0ffH
	DB	090H
	DB	068H
	DB	00H
	DB	0ffH
	DB	088H
	DB	068H
	DB	00H
	DB	0ffH
	DB	090H
	DB	068H
	DB	08H
	DB	0ffH
	DB	090H
	DB	068H
	DB	00H
	DB	0ffH
	DB	088H
	DB	068H
	DB	00H
	DB	0ffH
	DB	090H
	DB	068H
	DB	00H
	DB	0ffH
	DB	088H
	DB	068H
	DB	00H
	DB	0ffH
	DB	090H
	DB	068H
	DB	00H
	DB	0ffH
	DB	088H
	DB	068H
	DB	00H
	DB	0ffH
	DB	090H
	DB	068H
	DB	00H
	DB	0ffH
	DB	088H
	DB	068H
	DB	00H
	DB	0ffH
	DB	088H
	DB	068H
	DB	00H
	DB	0ffH
	DB	090H
	DB	068H
	DB	00H
	DB	0ffH
	DB	090H
	DB	068H
	DB	08H
	DB	0ffH
	DB	088H
	DB	068H
	DB	00H
	DB	0ffH
	DB	090H
	DB	068H
	DB	00H
	DB	0ffH
	DB	090H
	DB	068H
	DB	00H
	DB	0ffH
	DB	088H
	DB	068H
	DB	08H
	DB	0ffH
	DB	090H
	DB	068H
	DB	00H
	DB	0ffH
	DB	090H
	DB	068H
	DB	00H
	DB	0ffH
	DB	088H
	DB	068H
	DB	00H
	DB	0ffH
	DB	090H
	DB	068H
	DB	00H
	DB	0ffH
	DB	088H
	DB	068H
	DB	00H
	DB	0ffH
	DB	090H
	DB	068H
	DB	00H
	DB	0ffH
	DB	088H
	DB	068H
	DB	00H
	DB	0ffH
	DB	090H
	DB	068H
	DB	08H
	DB	0ffH
	DB	090H
	DB	068H
	DB	00H
	DB	0ffH
	DB	088H
	DB	068H
	DB	00H
	DB	0ffH
	DB	090H
	DB	068H
	DB	00H
	DB	0ffH
	DB	090H
	DB	068H
	DB	00H
	DB	0ffH
	DB	088H
	DB	068H
	DB	00H
	DB	0ffH
	DB	090H
	DB	068H
	DB	00H
	DB	0ffH
	DB	088H
	DB	068H
	DB	00H
	DB	0ffH
	DB	090H
	DB	068H
	DB	00H
	DB	0ffH
	DB	090H
	DB	068H
	DB	08H
	DB	0ffH
	DB	088H
	DB	068H
	DB	00H
	DB	0ffH
	DB	090H
	DB	068H
	DB	00H
	DB	0ffH
	DB	088H
	DB	068H
	DB	00H
	DB	0ffH
	DB	090H
	DB	068H
	DB	00H
	DB	0ffH
	DB	090H
	DB	068H
	DB	00H
	DB	0ffH
	DB	088H
	DB	068H
	DB	00H
	DB	0ffH
	DB	090H
	DB	068H
	DB	00H
	DB	0ffH
	DB	090H
	DB	068H
	DB	00H
	DB	0ffH
	DB	088H
	DB	068H
	DB	08H
	DB	0ffH
	DB	090H
	DB	068H
	DB	00H
	DB	0ffH
	DB	090H
	DB	068H
	DB	00H
	DB	0ffH
	DB	088H
	DB	068H
	DB	00H
	DB	0ffH
	DB	090H
	DB	068H
	DB	00H
	DB	0ffH
	DB	088H
	DB	068H
	DB	00H
	DB	0ffH
	DB	088H
	DB	068H
	DB	00H
	DB	0ffH
	DB	090H
	DB	068H
	DB	00H
	DB	0ffH
	DB	090H
	DB	068H
	DB	00H
	DB	0ffH
	DB	088H
	DB	068H
	DB	08H
	DB	0ffH
	DB	090H
	DB	068H
	DB	00H
	DB	0ffH
	DB	090H
	DB	068H
	DB	00H
	DB	0ffH
	DB	088H
	DB	068H
	DB	00H
	DB	0ffH
	DB	090H
	DB	068H
	DB	00H
	DB	0ffH
	DB	090H
	DB	068H
	DB	00H
	DB	0ffH
	DB	088H
	DB	068H
	DB	00H
	DB	0ffH
	DB	088H
	DB	068H
	DB	00H
	DB	0ffH
	DB	090H
	DB	068H
	DB	00H
	DB	0ffH
	DB	090H
	DB	068H
	DB	08H
	DB	0ffH
	DB	088H
	DB	068H
	DB	00H
	DB	0ffH
	DB	090H
	DB	068H
	DB	00H
	DB	0ffH
	DB	090H
	DB	068H
	DB	00H
	DB	0ffH
	DB	088H
	DB	068H
	DB	00H
	DB	0ffH
	DB	090H
	DB	068H
	DB	00H
	DB	0ffH
	DB	088H
	DB	068H
	DB	00H
	DB	0ffH
	DB	088H
	DB	068H
	DB	00H
	DB	0ffH
	DB	090H
	DB	068H
	DB	00H
	DB	0ffH
	DB	090H
	DB	068H
	DB	08H
	DB	0ffH
	DB	088H
	DB	068H
	DB	00H
	DB	0ffH
	DB	090H
	DB	068H
	DB	00H
	DB	0ffH
	DB	090H
	DB	068H
	DB	00H
	DB	0ffH
	DB	088H
	DB	068H
	DB	00H
	DB	0ffH
	DB	090H
	DB	068H
	DB	00H
	DB	0ffH
	DB	090H
	DB	068H
	DB	00H
	DB	0ffH
	DB	088H
	DB	068H
	DB	00H
	DB	0ffH
	DB	090H
	DB	068H
	DB	00H
	DB	0ffH
	DB	090H
	DB	068H
	DB	08H
	DB	0ffH
	DB	088H
	DB	068H
	DB	00H
	DB	0ffH
	DB	090H
	DB	068H
	DB	00H
	DB	0ffH
	DB	088H
	DB	068H
	DB	00H
	DB	0ffH
	DB	088H
	DB	068H
	DB	00H
	DB	0ffH
	DB	090H
	DB	068H
	DB	00H
	DB	0ffH
	DB	090H
	DB	068H
	DB	00H
	DB	0ffH
	DB	088H
	DB	068H
	DB	00H
	DB	0ffH
	DB	090H
	DB	068H
	DB	00H
	DB	0ffH
	DB	090H
	DB	068H
	DB	08H
	DB	0ffH
	DB	088H
	DB	068H
	DB	00H
	DB	0ffH
	DB	090H
	DB	068H
	DB	00H
	DB	0ffH
	DB	088H
	DB	068H
	DB	00H
	DB	0ffH
	DB	090H
	DB	068H
	DB	00H
	DB	0ffH
	DB	090H
	DB	068H
	DB	00H
	DB	0ffH
	DB	090H
	DB	068H
	DB	00H
	DB	0ffH
	DB	088H
	DB	068H
	DB	00H
	DB	0ffH
	DB	090H
	DB	068H
	DB	00H
	DB	0ffH
	DB	090H
	DB	068H
	DB	08H
	DB	0ffH
	DB	088H
	DB	068H
	DB	00H
	DB	0ffH
	DB	090H
	DB	068H
	DB	00H
	DB	0ffH
	DB	088H
	DB	068H
	DB	00H
	DB	0ffH
	DB	090H
	DB	068H
	DB	00H
	DB	0ffH
	DB	090H
	DB	068H
	DB	00H
	DB	0ffH
	DB	088H
	DB	068H
	DB	00H
	DB	0ffH
	DB	090H
	DB	068H
	DB	00H
	DB	0ffH
	DB	090H
	DB	068H
	DB	00H
	DB	0ffH
	DB	088H
	DB	068H
	DB	08H
	DB	0ffH
	DB	090H
	DB	068H
	DB	00H
	DB	0ffH
	DB	088H
	DB	068H
	DB	00H
	DB	0ffH
	DB	090H
	DB	068H
	DB	00H
	DB	0ffH
	DB	088H
	DB	068H
	DB	00H
	DB	0ffH
	DB	090H
	DB	068H
	DB	00H
	DB	0ffH
	DB	088H
	DB	068H
	DB	00H
	DB	0ffH
	DB	090H
	DB	068H
	DB	00H
	DB	0ffH
	DB	088H
	DB	068H
	DB	00H
	DB	0ffH
	DB	090H
	DB	068H
	DB	08H
	DB	0ffH
	DB	090H
	DB	068H
	DB	00H
	DB	0ffH
	DB	088H
	DB	068H
	DB	00H
	DB	0ffH
	DB	090H
	DB	068H
	DB	00H
	DB	0ffH
	DB	088H
	DB	068H
	DB	00H
	DB	0ffH
	DB	090H
	DB	068H
	DB	00H
	DB	0ffH
	DB	088H
	DB	068H
	DB	00H
	DB	0ffH
	DB	088H
	DB	068H
	DB	00H
	DB	0ffH
	DB	090H
	DB	068H
	DB	00H
	DB	0ffH
	DB	090H
	DB	068H
	DB	08H
	DB	0ffH
	DB	088H
	DB	068H
	DB	00H
	DB	0ffH
	DB	090H
	DB	068H
	DB	00H
	DB	0ffH
	DB	090H
	DB	068H
	DB	00H
	DB	0ffH
	DB	088H
	DB	068H
	DB	00H
	DB	0ffH
	DB	090H
	DB	068H
	DB	00H
	DB	0ffH
	DB	088H
	DB	068H
	DB	00H
	DB	0ffH
	DB	090H
	DB	068H
	DB	00H
	DB	0ffH
	DB	088H
	DB	068H
	DB	00H
	DB	0ffH
	DB	090H
	DB	068H
	DB	08H
	DB	0ffH
	DB	090H
	DB	068H
	DB	00H
	DB	0ffH
	DB	090H
	DB	068H
	DB	00H
	DB	0ffH
	DB	088H
	DB	068H
	DB	00H
	DB	0ffH
	DB	090H
	DB	068H
	DB	00H
	DB	0ffH
	DB	088H
	DB	068H
	DB	00H
	DB	0ffH
	DB	088H
	DB	068H
	DB	00H
	DB	0ffH
	DB	090H
	DB	068H
	DB	00H
	DB	0ffH
	DB	088H
	DB	068H
	DB	00H
	DB	0ffH
	DB	090H
	DB	068H
	DB	00H
	DB	0ffH
	DB	090H
	DB	068H
	DB	08H
	DB	0ffH
	DB	088H
	DB	068H
	DB	00H
	DB	0ffH
	DB	090H
	DB	068H
	DB	00H
	DB	0ffH
	DB	090H
	DB	068H
	DB	00H
	DB	0ffH
	DB	088H
	DB	068H
	DB	00H
	DB	0ffH
	DB	090H
	DB	068H
	DB	00H
	DB	0ffH
	DB	090H
	DB	068H
	DB	00H
	DB	0ffH
	DB	090H
	DB	068H
	DB	00H
	DB	0ffH
	DB	090H
	DB	068H
	DB	00H
	DB	0ffH
	DB	090H
	DB	068H
	DB	00H
	DB	0ffH
	DB	090H
	DB	068H
	DB	00H
	DB	0ffH
	DB	088H
	DB	068H
	DB	00H
	DB	0ffH
	DB	080H
	DB	060H
	DB	00H
	DB	0ffH
	DB	070H
	DB	054H
	DB	00H
	DB	0ffH
	DB	00H
	DB	00H
	DB	00H
	DB	00H
	DB	00H
	DB	00H
	DB	00H
	DB	00H
	DB	00H
	DB	00H
	DB	00H
	DB	00H
	DB	00H
	DB	00H
	DB	00H
	DB	00H
	DB	00H
	DB	00H
	DB	00H
	DB	00H
	DB	00H
	DB	00H
	DB	00H
	DB	00H
	DB	00H
	DB	00H
	DB	00H
	DB	00H
	DB	00H
	DB	00H
	DB	00H
	DB	00H
	DB	00H
	DB	00H
	DB	00H
	DB	00H
	DB	00H
	DB	00H
	DB	00H
	DB	00H
	DB	070H
	DB	054H
	DB	00H
	DB	0ffH
	DB	080H
	DB	060H
	DB	00H
	DB	0ffH
	DB	090H
	DB	068H
	DB	00H
	DB	0ffH
	DB	090H
	DB	068H
	DB	00H
	DB	0ffH
	DB	090H
	DB	068H
	DB	00H
	DB	0ffH
	DB	090H
	DB	068H
	DB	00H
	DB	0ffH
	DB	090H
	DB	06cH
	DB	00H
	DB	0ffH
	DB	090H
	DB	068H
	DB	00H
	DB	0ffH
	DB	090H
	DB	068H
	DB	00H
	DB	0ffH
	DB	090H
	DB	06cH
	DB	00H
	DB	0ffH
	DB	090H
	DB	068H
	DB	08H
	DB	0ffH
	DB	090H
	DB	068H
	DB	00H
	DB	0ffH
	DB	090H
	DB	06cH
	DB	00H
	DB	0ffH
	DB	090H
	DB	068H
	DB	00H
	DB	0ffH
	DB	090H
	DB	068H
	DB	00H
	DB	0ffH
	DB	090H
	DB	06cH
	DB	00H
	DB	0ffH
	DB	090H
	DB	068H
	DB	00H
	DB	0ffH
	DB	090H
	DB	06cH
	DB	00H
	DB	0ffH
	DB	090H
	DB	068H
	DB	00H
	DB	0ffH
	DB	090H
	DB	06cH
	DB	00H
	DB	0ffH
	DB	090H
	DB	068H
	DB	00H
	DB	0ffH
	DB	090H
	DB	06cH
	DB	00H
	DB	0ffH
	DB	090H
	DB	068H
	DB	00H
	DB	0ffH
	DB	090H
	DB	06cH
	DB	00H
	DB	0ffH
	DB	090H
	DB	068H
	DB	00H
	DB	0ffH
	DB	090H
	DB	068H
	DB	08H
	DB	0ffH
	DB	090H
	DB	06cH
	DB	00H
	DB	0ffH
	DB	090H
	DB	068H
	DB	00H
	DB	0ffH
	DB	090H
	DB	068H
	DB	00H
	DB	0ffH
	DB	090H
	DB	06cH
	DB	00H
	DB	0ffH
	DB	090H
	DB	068H
	DB	00H
	DB	0ffH
	DB	090H
	DB	068H
	DB	00H
	DB	0ffH
	DB	090H
	DB	06cH
	DB	00H
	DB	0ffH
	DB	090H
	DB	068H
	DB	00H
	DB	0ffH
	DB	090H
	DB	068H
	DB	08H
	DB	0ffH
	DB	090H
	DB	06cH
	DB	00H
	DB	0ffH
	DB	090H
	DB	068H
	DB	00H
	DB	0ffH
	DB	090H
	DB	068H
	DB	00H
	DB	0ffH
	DB	090H
	DB	06cH
	DB	00H
	DB	0ffH
	DB	090H
	DB	068H
	DB	00H
	DB	0ffH
	DB	090H
	DB	068H
	DB	00H
	DB	0ffH
	DB	090H
	DB	06cH
	DB	00H
	DB	0ffH
	DB	090H
	DB	068H
	DB	00H
	DB	0ffH
	DB	090H
	DB	06cH
	DB	08H
	DB	0ffH
	DB	090H
	DB	068H
	DB	00H
	DB	0ffH
	DB	090H
	DB	06cH
	DB	00H
	DB	0ffH
	DB	090H
	DB	068H
	DB	00H
	DB	0ffH
	DB	090H
	DB	068H
	DB	00H
	DB	0ffH
	DB	090H
	DB	06cH
	DB	00H
	DB	0ffH
	DB	090H
	DB	068H
	DB	00H
	DB	0ffH
	DB	090H
	DB	068H
	DB	00H
	DB	0ffH
	DB	090H
	DB	06cH
	DB	00H
	DB	0ffH
	DB	090H
	DB	068H
	DB	08H
	DB	0ffH
	DB	090H
	DB	068H
	DB	00H
	DB	0ffH
	DB	090H
	DB	06cH
	DB	00H
	DB	0ffH
	DB	090H
	DB	068H
	DB	00H
	DB	0ffH
	DB	090H
	DB	06cH
	DB	00H
	DB	0ffH
	DB	090H
	DB	06cH
	DB	00H
	DB	0ffH
	DB	090H
	DB	068H
	DB	00H
	DB	0ffH
	DB	090H
	DB	06cH
	DB	00H
	DB	0ffH
	DB	090H
	DB	068H
	DB	00H
	DB	0ffH
	DB	090H
	DB	06cH
	DB	08H
	DB	0ffH
	DB	090H
	DB	068H
	DB	00H
	DB	0ffH
	DB	090H
	DB	068H
	DB	00H
	DB	0ffH
	DB	090H
	DB	06cH
	DB	00H
	DB	0ffH
	DB	090H
	DB	068H
	DB	00H
	DB	0ffH
	DB	090H
	DB	068H
	DB	00H
	DB	0ffH
	DB	090H
	DB	06cH
	DB	00H
	DB	0ffH
	DB	090H
	DB	068H
	DB	00H
	DB	0ffH
	DB	090H
	DB	068H
	DB	00H
	DB	0ffH
	DB	090H
	DB	06cH
	DB	08H
	DB	0ffH
	DB	090H
	DB	068H
	DB	00H
	DB	0ffH
	DB	090H
	DB	06cH
	DB	00H
	DB	0ffH
	DB	090H
	DB	068H
	DB	00H
	DB	0ffH
	DB	090H
	DB	06cH
	DB	00H
	DB	0ffH
	DB	090H
	DB	068H
	DB	00H
	DB	0ffH
	DB	090H
	DB	06cH
	DB	00H
	DB	0ffH
	DB	090H
	DB	068H
	DB	00H
	DB	0ffH
	DB	090H
	DB	068H
	DB	00H
	DB	0ffH
	DB	090H
	DB	06cH
	DB	08H
	DB	0ffH
	DB	090H
	DB	068H
	DB	00H
	DB	0ffH
	DB	090H
	DB	068H
	DB	00H
	DB	0ffH
	DB	090H
	DB	06cH
	DB	00H
	DB	0ffH
	DB	090H
	DB	068H
	DB	00H
	DB	0ffH
	DB	090H
	DB	06cH
	DB	00H
	DB	0ffH
	DB	090H
	DB	068H
	DB	00H
	DB	0ffH
	DB	090H
	DB	06cH
	DB	00H
	DB	0ffH
	DB	090H
	DB	06cH
	DB	00H
	DB	0ffH
	DB	090H
	DB	068H
	DB	08H
	DB	0ffH
	DB	090H
	DB	06cH
	DB	00H
	DB	0ffH
	DB	090H
	DB	068H
	DB	00H
	DB	0ffH
	DB	090H
	DB	06cH
	DB	00H
	DB	0ffH
	DB	090H
	DB	068H
	DB	00H
	DB	0ffH
	DB	090H
	DB	068H
	DB	00H
	DB	0ffH
	DB	090H
	DB	06cH
	DB	00H
	DB	0ffH
	DB	090H
	DB	068H
	DB	00H
	DB	0ffH
	DB	090H
	DB	068H
	DB	00H
	DB	0ffH
	DB	090H
	DB	06cH
	DB	08H
	DB	0ffH
	DB	090H
	DB	068H
	DB	00H
	DB	0ffH
	DB	090H
	DB	068H
	DB	00H
	DB	0ffH
	DB	090H
	DB	06cH
	DB	00H
	DB	0ffH
	DB	090H
	DB	068H
	DB	00H
	DB	0ffH
	DB	090H
	DB	06cH
	DB	00H
	DB	0ffH
	DB	090H
	DB	068H
	DB	00H
	DB	0ffH
	DB	090H
	DB	06cH
	DB	00H
	DB	0ffH
	DB	090H
	DB	068H
	DB	00H
	DB	0ffH
	DB	090H
	DB	06cH
	DB	08H
	DB	0ffH
	DB	090H
	DB	068H
	DB	00H
	DB	0ffH
	DB	090H
	DB	068H
	DB	00H
	DB	0ffH
	DB	090H
	DB	06cH
	DB	00H
	DB	0ffH
	DB	090H
	DB	068H
	DB	00H
	DB	0ffH
	DB	090H
	DB	068H
	DB	00H
	DB	0ffH
	DB	090H
	DB	06cH
	DB	00H
	DB	0ffH
	DB	090H
	DB	068H
	DB	00H
	DB	0ffH
	DB	090H
	DB	06cH
	DB	00H
	DB	0ffH
	DB	090H
	DB	068H
	DB	08H
	DB	0ffH
	DB	090H
	DB	06cH
	DB	00H
	DB	0ffH
	DB	090H
	DB	06cH
	DB	00H
	DB	0ffH
	DB	090H
	DB	068H
	DB	00H
	DB	0ffH
	DB	090H
	DB	06cH
	DB	00H
	DB	0ffH
	DB	090H
	DB	068H
	DB	00H
	DB	0ffH
	DB	090H
	DB	06cH
	DB	00H
	DB	0ffH
	DB	090H
	DB	068H
	DB	00H
	DB	0ffH
	DB	090H
	DB	068H
	DB	00H
	DB	0ffH
	DB	090H
	DB	06cH
	DB	08H
	DB	0ffH
	DB	090H
	DB	068H
	DB	00H
	DB	0ffH
	DB	090H
	DB	068H
	DB	00H
	DB	0ffH
	DB	090H
	DB	06cH
	DB	00H
	DB	0ffH
	DB	090H
	DB	068H
	DB	00H
	DB	0ffH
	DB	090H
	DB	068H
	DB	00H
	DB	0ffH
	DB	090H
	DB	06cH
	DB	00H
	DB	0ffH
	DB	090H
	DB	068H
	DB	00H
	DB	0ffH
	DB	090H
	DB	06cH
	DB	00H
	DB	0ffH
	DB	090H
	DB	068H
	DB	08H
	DB	0ffH
	DB	090H
	DB	06cH
	DB	00H
	DB	0ffH
	DB	090H
	DB	068H
	DB	00H
	DB	0ffH
	DB	090H
	DB	06cH
	DB	00H
	DB	0ffH
	DB	090H
	DB	068H
	DB	00H
	DB	0ffH
	DB	090H
	DB	068H
	DB	00H
	DB	0ffH
	DB	090H
	DB	06cH
	DB	00H
	DB	0ffH
	DB	090H
	DB	068H
	DB	00H
	DB	0ffH
	DB	090H
	DB	068H
	DB	00H
	DB	0ffH
	DB	090H
	DB	06cH
	DB	00H
	DB	0ffH
	DB	090H
	DB	068H
	DB	00H
	DB	0ffH
	DB	090H
	DB	068H
	DB	00H
	DB	0ffH
	DB	090H
	DB	06cH
	DB	00H
	DB	0ffH
	DB	090H
	DB	068H
	DB	00H
	DB	0ffH
	DB	090H
	DB	06cH
	DB	00H
	DB	0ffH
	DB	090H
	DB	068H
	DB	00H
	DB	0ffH
	DB	090H
	DB	06cH
	DB	00H
	DB	0ffH
	DB	090H
	DB	068H
	DB	00H
	DB	0ffH
	DB	090H
	DB	06cH
	DB	00H
	DB	0ffH
	DB	090H
	DB	068H
	DB	00H
	DB	0ffH
	DB	088H
	DB	06cH
	DB	08H
	DB	0ffH
	DB	090H
	DB	068H
	DB	00H
	DB	0ffH
	DB	090H
	DB	068H
	DB	00H
	DB	0ffH
	DB	090H
	DB	068H
	DB	00H
	DB	0ffH
	DB	090H
	DB	068H
	DB	00H
	DB	0ffH
	DB	080H
	DB	060H
	DB	08H
	DB	0ffH
	DB	070H
	DB	054H
	DB	00H
	DB	0ffH
	DB	00H
	DB	00H
	DB	00H
	DB	00H
	DB	00H
	DB	00H
	DB	00H
	DB	00H
	DB	00H
	DB	00H
	DB	00H
	DB	00H
	DB	00H
	DB	00H
	DB	00H
	DB	00H
	DB	00H
	DB	00H
	DB	00H
	DB	00H
	DB	00H
	DB	00H
	DB	00H
	DB	00H
	DB	00H
	DB	00H
	DB	00H
	DB	00H
	DB	00H
	DB	00H
	DB	00H
	DB	00H
	DB	00H
	DB	00H
	DB	00H
	DB	00H
	DB	00H
	DB	00H
	DB	00H
	DB	00H
	DB	070H
	DB	054H
	DB	00H
	DB	0ffH
	DB	080H
	DB	060H
	DB	00H
	DB	0ffH
	DB	090H
	DB	068H
	DB	08H
	DB	0ffH
	DB	090H
	DB	068H
	DB	00H
	DB	0ffH
	DB	090H
	DB	06cH
	DB	00H
	DB	0ffH
	DB	090H
	DB	06cH
	DB	00H
	DB	0ffH
	DB	090H
	DB	06cH
	DB	08H
	DB	0ffH
	DB	090H
	DB	06cH
	DB	00H
	DB	0ffH
	DB	090H
	DB	06cH
	DB	00H
	DB	0ffH
	DB	090H
	DB	06cH
	DB	00H
	DB	0ffH
	DB	090H
	DB	06cH
	DB	00H
	DB	0ffH
	DB	090H
	DB	06cH
	DB	00H
	DB	0ffH
	DB	090H
	DB	06cH
	DB	08H
	DB	0ffH
	DB	090H
	DB	06cH
	DB	00H
	DB	0ffH
	DB	090H
	DB	06cH
	DB	00H
	DB	0ffH
	DB	090H
	DB	06cH
	DB	08H
	DB	0ffH
	DB	090H
	DB	06cH
	DB	00H
	DB	0ffH
	DB	090H
	DB	068H
	DB	00H
	DB	0ffH
	DB	090H
	DB	06cH
	DB	00H
	DB	0ffH
	DB	090H
	DB	06cH
	DB	08H
	DB	0ffH
	DB	090H
	DB	06cH
	DB	00H
	DB	0ffH
	DB	090H
	DB	068H
	DB	00H
	DB	0ffH
	DB	090H
	DB	06cH
	DB	00H
	DB	0ffH
	DB	090H
	DB	06cH
	DB	00H
	DB	0ffH
	DB	090H
	DB	06cH
	DB	00H
	DB	0ffH
	DB	090H
	DB	06cH
	DB	00H
	DB	0ffH
	DB	090H
	DB	06cH
	DB	00H
	DB	0ffH
	DB	090H
	DB	06cH
	DB	00H
	DB	0ffH
	DB	090H
	DB	06cH
	DB	00H
	DB	0ffH
	DB	090H
	DB	06cH
	DB	00H
	DB	0ffH
	DB	090H
	DB	06cH
	DB	08H
	DB	0ffH
	DB	090H
	DB	06cH
	DB	00H
	DB	0ffH
	DB	090H
	DB	06cH
	DB	00H
	DB	0ffH
	DB	090H
	DB	06cH
	DB	00H
	DB	0ffH
	DB	090H
	DB	06cH
	DB	00H
	DB	0ffH
	DB	090H
	DB	06cH
	DB	00H
	DB	0ffH
	DB	090H
	DB	06cH
	DB	00H
	DB	0ffH
	DB	090H
	DB	06cH
	DB	00H
	DB	0ffH
	DB	090H
	DB	06cH
	DB	00H
	DB	0ffH
	DB	090H
	DB	06cH
	DB	08H
	DB	0ffH
	DB	090H
	DB	06cH
	DB	00H
	DB	0ffH
	DB	090H
	DB	06cH
	DB	00H
	DB	0ffH
	DB	090H
	DB	06cH
	DB	00H
	DB	0ffH
	DB	090H
	DB	068H
	DB	00H
	DB	0ffH
	DB	088H
	DB	06cH
	DB	00H
	DB	0ffH
	DB	090H
	DB	06cH
	DB	00H
	DB	0ffH
	DB	090H
	DB	06cH
	DB	00H
	DB	0ffH
	DB	090H
	DB	06cH
	DB	00H
	DB	0ffH
	DB	090H
	DB	06cH
	DB	08H
	DB	0ffH
	DB	090H
	DB	06cH
	DB	00H
	DB	0ffH
	DB	090H
	DB	06cH
	DB	00H
	DB	0ffH
	DB	090H
	DB	06cH
	DB	00H
	DB	0ffH
	DB	090H
	DB	06cH
	DB	00H
	DB	0ffH
	DB	090H
	DB	06cH
	DB	00H
	DB	0ffH
	DB	090H
	DB	06cH
	DB	00H
	DB	0ffH
	DB	090H
	DB	068H
	DB	00H
	DB	0ffH
	DB	090H
	DB	06cH
	DB	00H
	DB	0ffH
	DB	090H
	DB	06cH
	DB	08H
	DB	0ffH
	DB	090H
	DB	068H
	DB	00H
	DB	0ffH
	DB	090H
	DB	06cH
	DB	00H
	DB	0ffH
	DB	090H
	DB	06cH
	DB	00H
	DB	0ffH
	DB	090H
	DB	06cH
	DB	00H
	DB	0ffH
	DB	090H
	DB	06cH
	DB	00H
	DB	0ffH
	DB	090H
	DB	06cH
	DB	00H
	DB	0ffH
	DB	090H
	DB	06cH
	DB	00H
	DB	0ffH
	DB	090H
	DB	06cH
	DB	00H
	DB	0ffH
	DB	090H
	DB	06cH
	DB	08H
	DB	0ffH
	DB	090H
	DB	06cH
	DB	00H
	DB	0ffH
	DB	090H
	DB	06cH
	DB	00H
	DB	0ffH
	DB	090H
	DB	06cH
	DB	00H
	DB	0ffH
	DB	090H
	DB	06cH
	DB	00H
	DB	0ffH
	DB	090H
	DB	06cH
	DB	00H
	DB	0ffH
	DB	090H
	DB	068H
	DB	00H
	DB	0ffH
	DB	090H
	DB	06cH
	DB	00H
	DB	0ffH
	DB	090H
	DB	06cH
	DB	00H
	DB	0ffH
	DB	090H
	DB	06cH
	DB	08H
	DB	0ffH
	DB	090H
	DB	06cH
	DB	00H
	DB	0ffH
	DB	090H
	DB	06cH
	DB	00H
	DB	0ffH
	DB	090H
	DB	06cH
	DB	00H
	DB	0ffH
	DB	090H
	DB	06cH
	DB	00H
	DB	0ffH
	DB	090H
	DB	06cH
	DB	00H
	DB	0ffH
	DB	088H
	DB	06cH
	DB	00H
	DB	0ffH
	DB	090H
	DB	06cH
	DB	00H
	DB	0ffH
	DB	090H
	DB	06cH
	DB	00H
	DB	0ffH
	DB	090H
	DB	068H
	DB	08H
	DB	0ffH
	DB	090H
	DB	06cH
	DB	00H
	DB	0ffH
	DB	090H
	DB	06cH
	DB	00H
	DB	0ffH
	DB	090H
	DB	068H
	DB	00H
	DB	0ffH
	DB	090H
	DB	06cH
	DB	00H
	DB	0ffH
	DB	090H
	DB	06cH
	DB	00H
	DB	0ffH
	DB	090H
	DB	06cH
	DB	00H
	DB	0ffH
	DB	090H
	DB	06cH
	DB	00H
	DB	0ffH
	DB	090H
	DB	06cH
	DB	00H
	DB	0ffH
	DB	090H
	DB	06cH
	DB	08H
	DB	0ffH
	DB	090H
	DB	06cH
	DB	00H
	DB	0ffH
	DB	090H
	DB	06cH
	DB	00H
	DB	0ffH
	DB	088H
	DB	06cH
	DB	00H
	DB	0ffH
	DB	090H
	DB	06cH
	DB	00H
	DB	0ffH
	DB	090H
	DB	06cH
	DB	00H
	DB	0ffH
	DB	090H
	DB	06cH
	DB	00H
	DB	0ffH
	DB	090H
	DB	06cH
	DB	00H
	DB	0ffH
	DB	090H
	DB	06cH
	DB	00H
	DB	0ffH
	DB	090H
	DB	068H
	DB	08H
	DB	0ffH
	DB	090H
	DB	06cH
	DB	00H
	DB	0ffH
	DB	090H
	DB	06cH
	DB	00H
	DB	0ffH
	DB	090H
	DB	06cH
	DB	00H
	DB	0ffH
	DB	090H
	DB	06cH
	DB	00H
	DB	0ffH
	DB	090H
	DB	06cH
	DB	00H
	DB	0ffH
	DB	090H
	DB	06cH
	DB	00H
	DB	0ffH
	DB	090H
	DB	06cH
	DB	00H
	DB	0ffH
	DB	090H
	DB	06cH
	DB	00H
	DB	0ffH
	DB	090H
	DB	06cH
	DB	08H
	DB	0ffH
	DB	090H
	DB	06cH
	DB	00H
	DB	0ffH
	DB	090H
	DB	06cH
	DB	00H
	DB	0ffH
	DB	090H
	DB	068H
	DB	00H
	DB	0ffH
	DB	090H
	DB	06cH
	DB	00H
	DB	0ffH
	DB	090H
	DB	06cH
	DB	00H
	DB	0ffH
	DB	090H
	DB	068H
	DB	00H
	DB	0ffH
	DB	090H
	DB	06cH
	DB	00H
	DB	0ffH
	DB	090H
	DB	06cH
	DB	00H
	DB	0ffH
	DB	090H
	DB	06cH
	DB	08H
	DB	0ffH
	DB	090H
	DB	06cH
	DB	00H
	DB	0ffH
	DB	090H
	DB	06cH
	DB	00H
	DB	0ffH
	DB	090H
	DB	06cH
	DB	00H
	DB	0ffH
	DB	090H
	DB	06cH
	DB	00H
	DB	0ffH
	DB	090H
	DB	06cH
	DB	00H
	DB	0ffH
	DB	090H
	DB	06cH
	DB	00H
	DB	0ffH
	DB	090H
	DB	06cH
	DB	00H
	DB	0ffH
	DB	090H
	DB	06cH
	DB	00H
	DB	0ffH
	DB	090H
	DB	06cH
	DB	08H
	DB	0ffH
	DB	090H
	DB	06cH
	DB	00H
	DB	0ffH
	DB	090H
	DB	06cH
	DB	00H
	DB	0ffH
	DB	090H
	DB	068H
	DB	00H
	DB	0ffH
	DB	090H
	DB	06cH
	DB	00H
	DB	0ffH
	DB	090H
	DB	06cH
	DB	00H
	DB	0ffH
	DB	090H
	DB	06cH
	DB	00H
	DB	0ffH
	DB	090H
	DB	06cH
	DB	00H
	DB	0ffH
	DB	088H
	DB	06cH
	DB	00H
	DB	0ffH
	DB	090H
	DB	06cH
	DB	08H
	DB	0ffH
	DB	090H
	DB	06cH
	DB	00H
	DB	0ffH
	DB	090H
	DB	06cH
	DB	00H
	DB	0ffH
	DB	090H
	DB	06cH
	DB	08H
	DB	0ffH
	DB	090H
	DB	06cH
	DB	00H
	DB	0ffH
	DB	090H
	DB	06cH
	DB	00H
	DB	0ffH
	DB	090H
	DB	06cH
	DB	08H
	DB	0ffH
	DB	090H
	DB	06cH
	DB	00H
	DB	0ffH
	DB	090H
	DB	06cH
	DB	00H
	DB	0ffH
	DB	090H
	DB	068H
	DB	00H
	DB	0ffH
	DB	090H
	DB	06cH
	DB	00H
	DB	0ffH
	DB	090H
	DB	06cH
	DB	08H
	DB	0ffH
	DB	090H
	DB	06cH
	DB	00H
	DB	0ffH
	DB	090H
	DB	068H
	DB	00H
	DB	0ffH
	DB	090H
	DB	06cH
	DB	00H
	DB	0ffH
	DB	090H
	DB	06cH
	DB	00H
	DB	0ffH
	DB	090H
	DB	06cH
	DB	00H
	DB	0ffH
	DB	090H
	DB	06cH
	DB	00H
	DB	0ffH
	DB	090H
	DB	06cH
	DB	08H
	DB	0ffH
	DB	088H
	DB	068H
	DB	00H
	DB	0ffH
	DB	080H
	DB	060H
	DB	00H
	DB	0ffH
	DB	070H
	DB	054H
	DB	00H
	DB	0ffH
	DB	00H
	DB	00H
	DB	00H
	DB	00H
	DB	00H
	DB	00H
	DB	00H
	DB	00H
	DB	00H
	DB	00H
	DB	00H
	DB	00H
	DB	00H
	DB	00H
	DB	00H
	DB	00H
	DB	00H
	DB	00H
	DB	00H
	DB	00H
	DB	00H
	DB	00H
	DB	00H
	DB	00H
	DB	00H
	DB	00H
	DB	00H
	DB	00H
	DB	00H
	DB	00H
	DB	00H
	DB	00H
	DB	00H
	DB	00H
	DB	00H
	DB	00H
	DB	00H
	DB	00H
	DB	00H
	DB	00H
	DB	070H
	DB	054H
	DB	00H
	DB	0ffH
	DB	080H
	DB	060H
	DB	00H
	DB	0ffH
	DB	090H
	DB	068H
	DB	00H
	DB	0ffH
	DB	090H
	DB	06cH
	DB	00H
	DB	0ffH
	DB	090H
	DB	068H
	DB	00H
	DB	0ffH
	DB	090H
	DB	068H
	DB	00H
	DB	0ffH
	DB	090H
	DB	068H
	DB	00H
	DB	0ffH
	DB	090H
	DB	068H
	DB	00H
	DB	0ffH
	DB	090H
	DB	068H
	DB	00H
	DB	0ffH
	DB	090H
	DB	068H
	DB	08H
	DB	0ffH
	DB	090H
	DB	068H
	DB	00H
	DB	0ffH
	DB	090H
	DB	068H
	DB	00H
	DB	0ffH
	DB	090H
	DB	068H
	DB	00H
	DB	0ffH
	DB	090H
	DB	068H
	DB	00H
	DB	0ffH
	DB	090H
	DB	068H
	DB	00H
	DB	0ffH
	DB	090H
	DB	068H
	DB	00H
	DB	0ffH
	DB	090H
	DB	06cH
	DB	00H
	DB	0ffH
	DB	090H
	DB	068H
	DB	00H
	DB	0ffH
	DB	090H
	DB	068H
	DB	00H
	DB	0ffH
	DB	090H
	DB	068H
	DB	00H
	DB	0ffH
	DB	090H
	DB	06cH
	DB	00H
	DB	0ffH
	DB	090H
	DB	068H
	DB	00H
	DB	0ffH
	DB	090H
	DB	068H
	DB	08H
	DB	0ffH
	DB	090H
	DB	068H
	DB	00H
	DB	0ffH
	DB	090H
	DB	068H
	DB	00H
	DB	0ffH
	DB	090H
	DB	068H
	DB	00H
	DB	0ffH
	DB	090H
	DB	068H
	DB	00H
	DB	0ffH
	DB	090H
	DB	068H
	DB	08H
	DB	0ffH
	DB	090H
	DB	068H
	DB	00H
	DB	0ffH
	DB	090H
	DB	068H
	DB	00H
	DB	0ffH
	DB	090H
	DB	068H
	DB	00H
	DB	0ffH
	DB	090H
	DB	068H
	DB	00H
	DB	0ffH
	DB	090H
	DB	068H
	DB	00H
	DB	0ffH
	DB	090H
	DB	068H
	DB	08H
	DB	0ffH
	DB	090H
	DB	068H
	DB	00H
	DB	0ffH
	DB	090H
	DB	068H
	DB	00H
	DB	0ffH
	DB	090H
	DB	068H
	DB	08H
	DB	0ffH
	DB	090H
	DB	068H
	DB	00H
	DB	0ffH
	DB	090H
	DB	068H
	DB	00H
	DB	0ffH
	DB	090H
	DB	068H
	DB	00H
	DB	0ffH
	DB	090H
	DB	068H
	DB	00H
	DB	0ffH
	DB	090H
	DB	068H
	DB	00H
	DB	0ffH
	DB	090H
	DB	06cH
	DB	08H
	DB	0ffH
	DB	090H
	DB	068H
	DB	00H
	DB	0ffH
	DB	090H
	DB	068H
	DB	00H
	DB	0ffH
	DB	090H
	DB	068H
	DB	08H
	DB	0ffH
	DB	090H
	DB	068H
	DB	00H
	DB	0ffH
	DB	090H
	DB	068H
	DB	00H
	DB	0ffH
	DB	090H
	DB	068H
	DB	00H
	DB	0ffH
	DB	090H
	DB	068H
	DB	00H
	DB	0ffH
	DB	090H
	DB	068H
	DB	00H
	DB	0ffH
	DB	090H
	DB	068H
	DB	08H
	DB	0ffH
	DB	090H
	DB	068H
	DB	00H
	DB	0ffH
	DB	090H
	DB	06cH
	DB	00H
	DB	0ffH
	DB	090H
	DB	068H
	DB	08H
	DB	0ffH
	DB	090H
	DB	068H
	DB	00H
	DB	0ffH
	DB	090H
	DB	068H
	DB	00H
	DB	0ffH
	DB	090H
	DB	06cH
	DB	00H
	DB	0ffH
	DB	090H
	DB	068H
	DB	00H
	DB	0ffH
	DB	090H
	DB	068H
	DB	00H
	DB	0ffH
	DB	090H
	DB	068H
	DB	08H
	DB	0ffH
	DB	090H
	DB	068H
	DB	00H
	DB	0ffH
	DB	090H
	DB	068H
	DB	00H
	DB	0ffH
	DB	090H
	DB	068H
	DB	08H
	DB	0ffH
	DB	090H
	DB	068H
	DB	00H
	DB	0ffH
	DB	090H
	DB	068H
	DB	00H
	DB	0ffH
	DB	090H
	DB	068H
	DB	00H
	DB	0ffH
	DB	090H
	DB	068H
	DB	00H
	DB	0ffH
	DB	090H
	DB	068H
	DB	00H
	DB	0ffH
	DB	090H
	DB	068H
	DB	08H
	DB	0ffH
	DB	090H
	DB	068H
	DB	00H
	DB	0ffH
	DB	090H
	DB	06cH
	DB	00H
	DB	0ffH
	DB	090H
	DB	068H
	DB	08H
	DB	0ffH
	DB	090H
	DB	068H
	DB	00H
	DB	0ffH
	DB	090H
	DB	068H
	DB	00H
	DB	0ffH
	DB	090H
	DB	068H
	DB	00H
	DB	0ffH
	DB	090H
	DB	068H
	DB	00H
	DB	0ffH
	DB	090H
	DB	068H
	DB	00H
	DB	0ffH
	DB	090H
	DB	068H
	DB	08H
	DB	0ffH
	DB	090H
	DB	068H
	DB	00H
	DB	0ffH
	DB	090H
	DB	068H
	DB	00H
	DB	0ffH
	DB	090H
	DB	068H
	DB	08H
	DB	0ffH
	DB	090H
	DB	068H
	DB	00H
	DB	0ffH
	DB	090H
	DB	068H
	DB	00H
	DB	0ffH
	DB	090H
	DB	06cH
	DB	00H
	DB	0ffH
	DB	090H
	DB	068H
	DB	00H
	DB	0ffH
	DB	090H
	DB	068H
	DB	00H
	DB	0ffH
	DB	090H
	DB	068H
	DB	08H
	DB	0ffH
	DB	090H
	DB	068H
	DB	00H
	DB	0ffH
	DB	090H
	DB	068H
	DB	00H
	DB	0ffH
	DB	090H
	DB	068H
	DB	08H
	DB	0ffH
	DB	090H
	DB	068H
	DB	00H
	DB	0ffH
	DB	090H
	DB	068H
	DB	00H
	DB	0ffH
	DB	090H
	DB	068H
	DB	00H
	DB	0ffH
	DB	090H
	DB	068H
	DB	00H
	DB	0ffH
	DB	090H
	DB	068H
	DB	00H
	DB	0ffH
	DB	090H
	DB	068H
	DB	08H
	DB	0ffH
	DB	090H
	DB	068H
	DB	00H
	DB	0ffH
	DB	090H
	DB	068H
	DB	00H
	DB	0ffH
	DB	090H
	DB	068H
	DB	08H
	DB	0ffH
	DB	090H
	DB	068H
	DB	00H
	DB	0ffH
	DB	090H
	DB	06cH
	DB	00H
	DB	0ffH
	DB	090H
	DB	068H
	DB	00H
	DB	0ffH
	DB	090H
	DB	068H
	DB	00H
	DB	0ffH
	DB	090H
	DB	068H
	DB	00H
	DB	0ffH
	DB	090H
	DB	068H
	DB	08H
	DB	0ffH
	DB	090H
	DB	068H
	DB	00H
	DB	0ffH
	DB	090H
	DB	068H
	DB	00H
	DB	0ffH
	DB	090H
	DB	068H
	DB	08H
	DB	0ffH
	DB	090H
	DB	068H
	DB	00H
	DB	0ffH
	DB	090H
	DB	068H
	DB	00H
	DB	0ffH
	DB	090H
	DB	068H
	DB	00H
	DB	0ffH
	DB	090H
	DB	068H
	DB	00H
	DB	0ffH
	DB	090H
	DB	068H
	DB	00H
	DB	0ffH
	DB	090H
	DB	06cH
	DB	08H
	DB	0ffH
	DB	090H
	DB	068H
	DB	00H
	DB	0ffH
	DB	090H
	DB	068H
	DB	00H
	DB	0ffH
	DB	090H
	DB	068H
	DB	08H
	DB	0ffH
	DB	090H
	DB	068H
	DB	00H
	DB	0ffH
	DB	090H
	DB	068H
	DB	00H
	DB	0ffH
	DB	090H
	DB	068H
	DB	00H
	DB	0ffH
	DB	090H
	DB	068H
	DB	00H
	DB	0ffH
	DB	090H
	DB	068H
	DB	00H
	DB	0ffH
	DB	090H
	DB	068H
	DB	08H
	DB	0ffH
	DB	090H
	DB	068H
	DB	00H
	DB	0ffH
	DB	090H
	DB	068H
	DB	00H
	DB	0ffH
	DB	090H
	DB	068H
	DB	08H
	DB	0ffH
	DB	090H
	DB	068H
	DB	00H
	DB	0ffH
	DB	090H
	DB	068H
	DB	00H
	DB	0ffH
	DB	090H
	DB	068H
	DB	00H
	DB	0ffH
	DB	090H
	DB	068H
	DB	00H
	DB	0ffH
	DB	090H
	DB	06cH
	DB	00H
	DB	0ffH
	DB	090H
	DB	068H
	DB	08H
	DB	0ffH
	DB	090H
	DB	068H
	DB	00H
	DB	0ffH
	DB	090H
	DB	068H
	DB	00H
	DB	0ffH
	DB	090H
	DB	068H
	DB	08H
	DB	0ffH
	DB	090H
	DB	068H
	DB	00H
	DB	0ffH
	DB	090H
	DB	068H
	DB	00H
	DB	0ffH
	DB	090H
	DB	068H
	DB	00H
	DB	0ffH
	DB	090H
	DB	068H
	DB	00H
	DB	0ffH
	DB	090H
	DB	068H
	DB	00H
	DB	0ffH
	DB	090H
	DB	068H
	DB	00H
	DB	0ffH
	DB	090H
	DB	068H
	DB	00H
	DB	0ffH
	DB	090H
	DB	068H
	DB	00H
	DB	0ffH
	DB	090H
	DB	068H
	DB	00H
	DB	0ffH
	DB	090H
	DB	068H
	DB	00H
	DB	0ffH
	DB	090H
	DB	06cH
	DB	00H
	DB	0ffH
	DB	090H
	DB	068H
	DB	00H
	DB	0ffH
	DB	090H
	DB	068H
	DB	00H
	DB	0ffH
	DB	090H
	DB	068H
	DB	00H
	DB	0ffH
	DB	090H
	DB	06cH
	DB	00H
	DB	0ffH
	DB	090H
	DB	068H
	DB	08H
	DB	0ffH
	DB	090H
	DB	068H
	DB	00H
	DB	0ffH
	DB	090H
	DB	068H
	DB	00H
	DB	0ffH
	DB	090H
	DB	068H
	DB	00H
	DB	0ffH
	DB	090H
	DB	06cH
	DB	00H
	DB	0ffH
	DB	090H
	DB	068H
	DB	00H
	DB	0ffH
	DB	090H
	DB	068H
	DB	00H
	DB	0ffH
	DB	080H
	DB	060H
	DB	00H
	DB	0ffH
	DB	070H
	DB	054H
	DB	00H
	DB	0ffH
	DB	00H
	DB	00H
	DB	00H
	DB	00H
	DB	00H
	DB	00H
	DB	00H
	DB	00H
	DB	00H
	DB	00H
	DB	00H
	DB	00H
	DB	00H
	DB	00H
	DB	00H
	DB	00H
	DB	00H
	DB	00H
	DB	00H
	DB	00H
	DB	00H
	DB	00H
	DB	00H
	DB	00H
	DB	00H
	DB	00H
	DB	00H
	DB	00H
	DB	00H
	DB	00H
	DB	00H
	DB	00H
	DB	00H
	DB	00H
	DB	00H
	DB	00H
	DB	00H
	DB	00H
	DB	00H
	DB	00H
	DB	070H
	DB	054H
	DB	00H
	DB	0ffH
	DB	080H
	DB	060H
	DB	00H
	DB	0ffH
	DB	090H
	DB	068H
	DB	00H
	DB	0ffH
	DB	090H
	DB	06cH
	DB	08H
	DB	0ffH
	DB	090H
	DB	068H
	DB	00H
	DB	0ffH
	DB	090H
	DB	06cH
	DB	00H
	DB	0ffH
	DB	090H
	DB	06cH
	DB	00H
	DB	0ffH
	DB	090H
	DB	068H
	DB	00H
	DB	0ffH
	DB	090H
	DB	06cH
	DB	00H
	DB	0ffH
	DB	090H
	DB	06cH
	DB	00H
	DB	0ffH
	DB	090H
	DB	068H
	DB	00H
	DB	0ffH
	DB	090H
	DB	06cH
	DB	00H
	DB	0ffH
	DB	090H
	DB	06cH
	DB	00H
	DB	0ffH
	DB	090H
	DB	068H
	DB	00H
	DB	0ffH
	DB	090H
	DB	06cH
	DB	00H
	DB	0ffH
	DB	090H
	DB	068H
	DB	00H
	DB	0ffH
	DB	090H
	DB	06cH
	DB	08H
	DB	0ffH
	DB	090H
	DB	06cH
	DB	00H
	DB	0ffH
	DB	090H
	DB	068H
	DB	00H
	DB	0ffH
	DB	090H
	DB	06cH
	DB	00H
	DB	0ffH
	DB	090H
	DB	068H
	DB	00H
	DB	0ffH
	DB	090H
	DB	06cH
	DB	00H
	DB	0ffH
	DB	090H
	DB	06cH
	DB	00H
	DB	0ffH
	DB	090H
	DB	06cH
	DB	00H
	DB	0ffH
	DB	090H
	DB	06cH
	DB	08H
	DB	0ffH
	DB	090H
	DB	068H
	DB	00H
	DB	0ffH
	DB	090H
	DB	06cH
	DB	00H
	DB	0ffH
	DB	090H
	DB	06cH
	DB	00H
	DB	0ffH
	DB	090H
	DB	06cH
	DB	00H
	DB	0ffH
	DB	090H
	DB	068H
	DB	00H
	DB	0ffH
	DB	090H
	DB	06cH
	DB	00H
	DB	0ffH
	DB	090H
	DB	06cH
	DB	00H
	DB	0ffH
	DB	090H
	DB	068H
	DB	00H
	DB	0ffH
	DB	090H
	DB	06cH
	DB	00H
	DB	0ffH
	DB	090H
	DB	06cH
	DB	00H
	DB	0ffH
	DB	090H
	DB	068H
	DB	00H
	DB	0ffH
	DB	090H
	DB	06cH
	DB	00H
	DB	0ffH
	DB	090H
	DB	06cH
	DB	00H
	DB	0ffH
	DB	090H
	DB	068H
	DB	00H
	DB	0ffH
	DB	090H
	DB	06cH
	DB	00H
	DB	0ffH
	DB	090H
	DB	06cH
	DB	00H
	DB	0ffH
	DB	090H
	DB	068H
	DB	00H
	DB	0ffH
	DB	090H
	DB	06cH
	DB	00H
	DB	0ffH
	DB	090H
	DB	06cH
	DB	00H
	DB	0ffH
	DB	090H
	DB	068H
	DB	00H
	DB	0ffH
	DB	090H
	DB	06cH
	DB	00H
	DB	0ffH
	DB	090H
	DB	06cH
	DB	00H
	DB	0ffH
	DB	090H
	DB	06cH
	DB	00H
	DB	0ffH
	DB	090H
	DB	068H
	DB	00H
	DB	0ffH
	DB	090H
	DB	06cH
	DB	00H
	DB	0ffH
	DB	090H
	DB	06cH
	DB	00H
	DB	0ffH
	DB	090H
	DB	068H
	DB	00H
	DB	0ffH
	DB	090H
	DB	06cH
	DB	00H
	DB	0ffH
	DB	090H
	DB	068H
	DB	00H
	DB	0ffH
	DB	090H
	DB	06cH
	DB	00H
	DB	0ffH
	DB	090H
	DB	06cH
	DB	00H
	DB	0ffH
	DB	090H
	DB	068H
	DB	00H
	DB	0ffH
	DB	090H
	DB	06cH
	DB	00H
	DB	0ffH
	DB	090H
	DB	06cH
	DB	00H
	DB	0ffH
	DB	090H
	DB	068H
	DB	00H
	DB	0ffH
	DB	090H
	DB	06cH
	DB	00H
	DB	0ffH
	DB	090H
	DB	06cH
	DB	00H
	DB	0ffH
	DB	090H
	DB	06cH
	DB	00H
	DB	0ffH
	DB	090H
	DB	068H
	DB	00H
	DB	0ffH
	DB	090H
	DB	06cH
	DB	00H
	DB	0ffH
	DB	090H
	DB	06cH
	DB	00H
	DB	0ffH
	DB	090H
	DB	068H
	DB	00H
	DB	0ffH
	DB	090H
	DB	06cH
	DB	00H
	DB	0ffH
	DB	090H
	DB	06cH
	DB	00H
	DB	0ffH
	DB	090H
	DB	068H
	DB	00H
	DB	0ffH
	DB	090H
	DB	06cH
	DB	00H
	DB	0ffH
	DB	090H
	DB	068H
	DB	00H
	DB	0ffH
	DB	090H
	DB	06cH
	DB	00H
	DB	0ffH
	DB	090H
	DB	06cH
	DB	00H
	DB	0ffH
	DB	090H
	DB	06cH
	DB	00H
	DB	0ffH
	DB	090H
	DB	068H
	DB	00H
	DB	0ffH
	DB	090H
	DB	06cH
	DB	00H
	DB	0ffH
	DB	090H
	DB	06cH
	DB	00H
	DB	0ffH
	DB	090H
	DB	068H
	DB	00H
	DB	0ffH
	DB	090H
	DB	06cH
	DB	00H
	DB	0ffH
	DB	090H
	DB	06cH
	DB	00H
	DB	0ffH
	DB	090H
	DB	068H
	DB	00H
	DB	0ffH
	DB	090H
	DB	06cH
	DB	00H
	DB	0ffH
	DB	090H
	DB	06cH
	DB	00H
	DB	0ffH
	DB	090H
	DB	068H
	DB	00H
	DB	0ffH
	DB	090H
	DB	06cH
	DB	00H
	DB	0ffH
	DB	090H
	DB	06cH
	DB	00H
	DB	0ffH
	DB	090H
	DB	06cH
	DB	00H
	DB	0ffH
	DB	090H
	DB	06cH
	DB	00H
	DB	0ffH
	DB	090H
	DB	06cH
	DB	00H
	DB	0ffH
	DB	090H
	DB	068H
	DB	00H
	DB	0ffH
	DB	090H
	DB	06cH
	DB	00H
	DB	0ffH
	DB	090H
	DB	06cH
	DB	00H
	DB	0ffH
	DB	090H
	DB	068H
	DB	00H
	DB	0ffH
	DB	090H
	DB	06cH
	DB	00H
	DB	0ffH
	DB	090H
	DB	06cH
	DB	00H
	DB	0ffH
	DB	090H
	DB	068H
	DB	00H
	DB	0ffH
	DB	090H
	DB	06cH
	DB	00H
	DB	0ffH
	DB	090H
	DB	06cH
	DB	00H
	DB	0ffH
	DB	090H
	DB	068H
	DB	00H
	DB	0ffH
	DB	090H
	DB	06cH
	DB	00H
	DB	0ffH
	DB	090H
	DB	068H
	DB	00H
	DB	0ffH
	DB	090H
	DB	06cH
	DB	00H
	DB	0ffH
	DB	090H
	DB	06cH
	DB	00H
	DB	0ffH
	DB	090H
	DB	06cH
	DB	00H
	DB	0ffH
	DB	090H
	DB	068H
	DB	00H
	DB	0ffH
	DB	090H
	DB	06cH
	DB	00H
	DB	0ffH
	DB	090H
	DB	06cH
	DB	00H
	DB	0ffH
	DB	090H
	DB	068H
	DB	00H
	DB	0ffH
	DB	090H
	DB	06cH
	DB	00H
	DB	0ffH
	DB	090H
	DB	06cH
	DB	00H
	DB	0ffH
	DB	090H
	DB	068H
	DB	00H
	DB	0ffH
	DB	090H
	DB	06cH
	DB	00H
	DB	0ffH
	DB	090H
	DB	06cH
	DB	00H
	DB	0ffH
	DB	090H
	DB	068H
	DB	00H
	DB	0ffH
	DB	090H
	DB	06cH
	DB	00H
	DB	0ffH
	DB	090H
	DB	06cH
	DB	00H
	DB	0ffH
	DB	090H
	DB	06cH
	DB	00H
	DB	0ffH
	DB	090H
	DB	06cH
	DB	00H
	DB	0ffH
	DB	090H
	DB	06cH
	DB	00H
	DB	0ffH
	DB	090H
	DB	068H
	DB	00H
	DB	0ffH
	DB	090H
	DB	06cH
	DB	00H
	DB	0ffH
	DB	090H
	DB	06cH
	DB	00H
	DB	0ffH
	DB	090H
	DB	068H
	DB	00H
	DB	0ffH
	DB	090H
	DB	06cH
	DB	00H
	DB	0ffH
	DB	090H
	DB	06cH
	DB	00H
	DB	0ffH
	DB	090H
	DB	068H
	DB	00H
	DB	0ffH
	DB	090H
	DB	06cH
	DB	00H
	DB	0ffH
	DB	090H
	DB	06cH
	DB	00H
	DB	0ffH
	DB	090H
	DB	068H
	DB	00H
	DB	0ffH
	DB	090H
	DB	06cH
	DB	00H
	DB	0ffH
	DB	090H
	DB	068H
	DB	00H
	DB	0ffH
	DB	090H
	DB	06cH
	DB	00H
	DB	0ffH
	DB	090H
	DB	06cH
	DB	00H
	DB	0ffH
	DB	090H
	DB	06cH
	DB	00H
	DB	0ffH
	DB	090H
	DB	068H
	DB	00H
	DB	0ffH
	DB	090H
	DB	06cH
	DB	00H
	DB	0ffH
	DB	090H
	DB	06cH
	DB	00H
	DB	0ffH
	DB	090H
	DB	068H
	DB	00H
	DB	0ffH
	DB	090H
	DB	06cH
	DB	00H
	DB	0ffH
	DB	090H
	DB	06cH
	DB	00H
	DB	0ffH
	DB	090H
	DB	068H
	DB	00H
	DB	0ffH
	DB	090H
	DB	06cH
	DB	00H
	DB	0ffH
	DB	090H
	DB	06cH
	DB	00H
	DB	0ffH
	DB	090H
	DB	068H
	DB	00H
	DB	0ffH
	DB	090H
	DB	06cH
	DB	08H
	DB	0ffH
	DB	090H
	DB	068H
	DB	00H
	DB	0ffH
	DB	090H
	DB	06cH
	DB	00H
	DB	0ffH
	DB	090H
	DB	06cH
	DB	08H
	DB	0ffH
	DB	090H
	DB	068H
	DB	00H
	DB	0ffH
	DB	090H
	DB	06cH
	DB	00H
	DB	0ffH
	DB	090H
	DB	06cH
	DB	00H
	DB	0ffH
	DB	090H
	DB	068H
	DB	00H
	DB	0ffH
	DB	090H
	DB	06cH
	DB	00H
	DB	0ffH
	DB	090H
	DB	06cH
	DB	08H
	DB	0ffH
	DB	090H
	DB	068H
	DB	00H
	DB	0ffH
	DB	090H
	DB	068H
	DB	00H
	DB	0ffH
	DB	090H
	DB	068H
	DB	00H
	DB	0ffH
	DB	080H
	DB	060H
	DB	00H
	DB	0ffH
	DB	070H
	DB	054H
	DB	08H
	DB	0ffH
	DB	00H
	DB	00H
	DB	00H
	DB	00H
	DB	00H
	DB	00H
	DB	00H
	DB	00H
	DB	00H
	DB	00H
	DB	00H
	DB	00H
	DB	00H
	DB	00H
	DB	00H
	DB	00H
	DB	00H
	DB	00H
	DB	00H
	DB	00H
	DB	00H
	DB	00H
	DB	00H
	DB	00H
	DB	00H
	DB	00H
	DB	00H
	DB	00H
	DB	00H
	DB	00H
	DB	00H
	DB	00H
	DB	00H
	DB	00H
	DB	00H
	DB	00H
	DB	00H
	DB	00H
	DB	00H
	DB	00H
	DB	070H
	DB	054H
	DB	00H
	DB	0ffH
	DB	088H
	DB	060H
	DB	00H
	DB	0ffH
	DB	090H
	DB	068H
	DB	00H
	DB	0ffH
	DB	090H
	DB	06cH
	DB	00H
	DB	0ffH
	DB	090H
	DB	06cH
	DB	00H
	DB	0ffH
	DB	090H
	DB	06cH
	DB	00H
	DB	0ffH
	DB	090H
	DB	06cH
	DB	00H
	DB	0ffH
	DB	090H
	DB	06cH
	DB	00H
	DB	0ffH
	DB	090H
	DB	06cH
	DB	00H
	DB	0ffH
	DB	090H
	DB	06cH
	DB	00H
	DB	0ffH
	DB	090H
	DB	06cH
	DB	00H
	DB	0ffH
	DB	090H
	DB	06cH
	DB	00H
	DB	0ffH
	DB	090H
	DB	06cH
	DB	00H
	DB	0ffH
	DB	090H
	DB	06cH
	DB	00H
	DB	0ffH
	DB	090H
	DB	06cH
	DB	00H
	DB	0ffH
	DB	090H
	DB	06cH
	DB	00H
	DB	0ffH
	DB	090H
	DB	06cH
	DB	00H
	DB	0ffH
	DB	090H
	DB	06cH
	DB	00H
	DB	0ffH
	DB	090H
	DB	06cH
	DB	00H
	DB	0ffH
	DB	090H
	DB	06cH
	DB	00H
	DB	0ffH
	DB	090H
	DB	06cH
	DB	00H
	DB	0ffH
	DB	090H
	DB	06cH
	DB	00H
	DB	0ffH
	DB	090H
	DB	06cH
	DB	00H
	DB	0ffH
	DB	090H
	DB	06cH
	DB	00H
	DB	0ffH
	DB	090H
	DB	06cH
	DB	00H
	DB	0ffH
	DB	090H
	DB	06cH
	DB	00H
	DB	0ffH
	DB	090H
	DB	06cH
	DB	00H
	DB	0ffH
	DB	090H
	DB	06cH
	DB	00H
	DB	0ffH
	DB	090H
	DB	06cH
	DB	00H
	DB	0ffH
	DB	090H
	DB	06cH
	DB	00H
	DB	0ffH
	DB	090H
	DB	06cH
	DB	00H
	DB	0ffH
	DB	090H
	DB	06cH
	DB	00H
	DB	0ffH
	DB	090H
	DB	06cH
	DB	00H
	DB	0ffH
	DB	090H
	DB	06cH
	DB	00H
	DB	0ffH
	DB	090H
	DB	06cH
	DB	00H
	DB	0ffH
	DB	090H
	DB	06cH
	DB	00H
	DB	0ffH
	DB	090H
	DB	06cH
	DB	00H
	DB	0ffH
	DB	090H
	DB	06cH
	DB	00H
	DB	0ffH
	DB	090H
	DB	06cH
	DB	00H
	DB	0ffH
	DB	090H
	DB	06cH
	DB	00H
	DB	0ffH
	DB	090H
	DB	06cH
	DB	00H
	DB	0ffH
	DB	090H
	DB	06cH
	DB	00H
	DB	0ffH
	DB	090H
	DB	06cH
	DB	00H
	DB	0ffH
	DB	090H
	DB	06cH
	DB	00H
	DB	0ffH
	DB	090H
	DB	06cH
	DB	00H
	DB	0ffH
	DB	090H
	DB	06cH
	DB	00H
	DB	0ffH
	DB	090H
	DB	06cH
	DB	00H
	DB	0ffH
	DB	090H
	DB	06cH
	DB	00H
	DB	0ffH
	DB	090H
	DB	06cH
	DB	00H
	DB	0ffH
	DB	090H
	DB	06cH
	DB	00H
	DB	0ffH
	DB	090H
	DB	06cH
	DB	00H
	DB	0ffH
	DB	090H
	DB	06cH
	DB	00H
	DB	0ffH
	DB	090H
	DB	06cH
	DB	00H
	DB	0ffH
	DB	090H
	DB	06cH
	DB	00H
	DB	0ffH
	DB	090H
	DB	06cH
	DB	00H
	DB	0ffH
	DB	090H
	DB	06cH
	DB	00H
	DB	0ffH
	DB	090H
	DB	06cH
	DB	00H
	DB	0ffH
	DB	090H
	DB	06cH
	DB	00H
	DB	0ffH
	DB	090H
	DB	06cH
	DB	00H
	DB	0ffH
	DB	090H
	DB	06cH
	DB	00H
	DB	0ffH
	DB	090H
	DB	06cH
	DB	00H
	DB	0ffH
	DB	090H
	DB	06cH
	DB	00H
	DB	0ffH
	DB	090H
	DB	06cH
	DB	00H
	DB	0ffH
	DB	090H
	DB	06cH
	DB	00H
	DB	0ffH
	DB	090H
	DB	06cH
	DB	00H
	DB	0ffH
	DB	090H
	DB	06cH
	DB	00H
	DB	0ffH
	DB	090H
	DB	06cH
	DB	00H
	DB	0ffH
	DB	090H
	DB	06cH
	DB	00H
	DB	0ffH
	DB	090H
	DB	06cH
	DB	00H
	DB	0ffH
	DB	090H
	DB	06cH
	DB	00H
	DB	0ffH
	DB	090H
	DB	06cH
	DB	00H
	DB	0ffH
	DB	090H
	DB	06cH
	DB	00H
	DB	0ffH
	DB	090H
	DB	06cH
	DB	00H
	DB	0ffH
	DB	090H
	DB	06cH
	DB	00H
	DB	0ffH
	DB	090H
	DB	06cH
	DB	00H
	DB	0ffH
	DB	090H
	DB	06cH
	DB	00H
	DB	0ffH
	DB	090H
	DB	06cH
	DB	00H
	DB	0ffH
	DB	090H
	DB	06cH
	DB	00H
	DB	0ffH
	DB	090H
	DB	06cH
	DB	00H
	DB	0ffH
	DB	090H
	DB	06cH
	DB	00H
	DB	0ffH
	DB	090H
	DB	06cH
	DB	00H
	DB	0ffH
	DB	090H
	DB	06cH
	DB	00H
	DB	0ffH
	DB	090H
	DB	06cH
	DB	00H
	DB	0ffH
	DB	090H
	DB	06cH
	DB	00H
	DB	0ffH
	DB	090H
	DB	06cH
	DB	00H
	DB	0ffH
	DB	090H
	DB	06cH
	DB	00H
	DB	0ffH
	DB	090H
	DB	06cH
	DB	00H
	DB	0ffH
	DB	090H
	DB	06cH
	DB	00H
	DB	0ffH
	DB	090H
	DB	06cH
	DB	00H
	DB	0ffH
	DB	090H
	DB	06cH
	DB	00H
	DB	0ffH
	DB	090H
	DB	06cH
	DB	00H
	DB	0ffH
	DB	090H
	DB	06cH
	DB	00H
	DB	0ffH
	DB	090H
	DB	06cH
	DB	00H
	DB	0ffH
	DB	090H
	DB	06cH
	DB	00H
	DB	0ffH
	DB	090H
	DB	06cH
	DB	00H
	DB	0ffH
	DB	090H
	DB	06cH
	DB	00H
	DB	0ffH
	DB	090H
	DB	06cH
	DB	00H
	DB	0ffH
	DB	090H
	DB	06cH
	DB	00H
	DB	0ffH
	DB	090H
	DB	06cH
	DB	00H
	DB	0ffH
	DB	090H
	DB	06cH
	DB	00H
	DB	0ffH
	DB	090H
	DB	06cH
	DB	00H
	DB	0ffH
	DB	090H
	DB	06cH
	DB	00H
	DB	0ffH
	DB	090H
	DB	06cH
	DB	00H
	DB	0ffH
	DB	090H
	DB	06cH
	DB	00H
	DB	0ffH
	DB	090H
	DB	06cH
	DB	00H
	DB	0ffH
	DB	090H
	DB	06cH
	DB	00H
	DB	0ffH
	DB	090H
	DB	06cH
	DB	00H
	DB	0ffH
	DB	090H
	DB	06cH
	DB	00H
	DB	0ffH
	DB	090H
	DB	06cH
	DB	00H
	DB	0ffH
	DB	090H
	DB	06cH
	DB	00H
	DB	0ffH
	DB	090H
	DB	06cH
	DB	00H
	DB	0ffH
	DB	090H
	DB	06cH
	DB	00H
	DB	0ffH
	DB	090H
	DB	06cH
	DB	00H
	DB	0ffH
	DB	090H
	DB	06cH
	DB	00H
	DB	0ffH
	DB	090H
	DB	06cH
	DB	00H
	DB	0ffH
	DB	090H
	DB	06cH
	DB	00H
	DB	0ffH
	DB	090H
	DB	06cH
	DB	00H
	DB	0ffH
	DB	090H
	DB	06cH
	DB	00H
	DB	0ffH
	DB	090H
	DB	06cH
	DB	00H
	DB	0ffH
	DB	090H
	DB	06cH
	DB	00H
	DB	0ffH
	DB	090H
	DB	06cH
	DB	00H
	DB	0ffH
	DB	090H
	DB	06cH
	DB	00H
	DB	0ffH
	DB	090H
	DB	06cH
	DB	00H
	DB	0ffH
	DB	090H
	DB	06cH
	DB	00H
	DB	0ffH
	DB	090H
	DB	06cH
	DB	00H
	DB	0ffH
	DB	090H
	DB	06cH
	DB	00H
	DB	0ffH
	DB	090H
	DB	06cH
	DB	00H
	DB	0ffH
	DB	090H
	DB	06cH
	DB	00H
	DB	0ffH
	DB	090H
	DB	06cH
	DB	00H
	DB	0ffH
	DB	090H
	DB	06cH
	DB	00H
	DB	0ffH
	DB	090H
	DB	06cH
	DB	00H
	DB	0ffH
	DB	090H
	DB	06cH
	DB	00H
	DB	0ffH
	DB	090H
	DB	06cH
	DB	00H
	DB	0ffH
	DB	090H
	DB	06cH
	DB	00H
	DB	0ffH
	DB	090H
	DB	06cH
	DB	00H
	DB	0ffH
	DB	090H
	DB	06cH
	DB	00H
	DB	0ffH
	DB	090H
	DB	06cH
	DB	00H
	DB	0ffH
	DB	090H
	DB	06cH
	DB	00H
	DB	0ffH
	DB	090H
	DB	06cH
	DB	00H
	DB	0ffH
	DB	090H
	DB	06cH
	DB	00H
	DB	0ffH
	DB	090H
	DB	06cH
	DB	00H
	DB	0ffH
	DB	090H
	DB	06cH
	DB	00H
	DB	0ffH
	DB	090H
	DB	06cH
	DB	00H
	DB	0ffH
	DB	090H
	DB	06cH
	DB	00H
	DB	0ffH
	DB	090H
	DB	06cH
	DB	00H
	DB	0ffH
	DB	090H
	DB	06cH
	DB	00H
	DB	0ffH
	DB	090H
	DB	06cH
	DB	00H
	DB	0ffH
	DB	090H
	DB	06cH
	DB	00H
	DB	0ffH
	DB	090H
	DB	06cH
	DB	00H
	DB	0ffH
	DB	090H
	DB	06cH
	DB	00H
	DB	0ffH
	DB	090H
	DB	06cH
	DB	00H
	DB	0ffH
	DB	090H
	DB	06cH
	DB	00H
	DB	0ffH
	DB	090H
	DB	06cH
	DB	00H
	DB	0ffH
	DB	090H
	DB	06cH
	DB	00H
	DB	0ffH
	DB	090H
	DB	06cH
	DB	00H
	DB	0ffH
	DB	090H
	DB	06cH
	DB	00H
	DB	0ffH
	DB	090H
	DB	06cH
	DB	00H
	DB	0ffH
	DB	090H
	DB	068H
	DB	00H
	DB	0ffH
	DB	088H
	DB	064H
	DB	00H
	DB	0ffH
	DB	070H
	DB	054H
	DB	00H
	DB	0ffH
	DB	00H
	DB	00H
	DB	00H
	DB	00H
	DB	00H
	DB	00H
	DB	00H
	DB	00H
	DB	00H
	DB	00H
	DB	00H
	DB	00H
	DB	00H
	DB	00H
	DB	00H
	DB	00H
	DB	00H
	DB	00H
	DB	00H
	DB	00H
	DB	00H
	DB	00H
	DB	00H
	DB	00H
	DB	00H
	DB	00H
	DB	00H
	DB	00H
	DB	00H
	DB	00H
	DB	00H
	DB	00H
	DB	00H
	DB	00H
	DB	00H
	DB	00H
	DB	00H
	DB	00H
	DB	00H
	DB	00H
	DB	070H
	DB	054H
	DB	00H
	DB	0ffH
	DB	088H
	DB	064H
	DB	00H
	DB	0ffH
	DB	090H
	DB	068H
	DB	00H
	DB	0ffH
	DB	090H
	DB	06cH
	DB	00H
	DB	0ffH
	DB	090H
	DB	06cH
	DB	00H
	DB	0ffH
	DB	090H
	DB	068H
	DB	00H
	DB	0ffH
	DB	090H
	DB	06cH
	DB	00H
	DB	0ffH
	DB	090H
	DB	06cH
	DB	00H
	DB	0ffH
	DB	090H
	DB	06cH
	DB	00H
	DB	0ffH
	DB	090H
	DB	068H
	DB	00H
	DB	0ffH
	DB	090H
	DB	06cH
	DB	00H
	DB	0ffH
	DB	090H
	DB	06cH
	DB	00H
	DB	0ffH
	DB	090H
	DB	06cH
	DB	00H
	DB	0ffH
	DB	090H
	DB	06cH
	DB	00H
	DB	0ffH
	DB	090H
	DB	06cH
	DB	00H
	DB	0ffH
	DB	090H
	DB	068H
	DB	00H
	DB	0ffH
	DB	090H
	DB	06cH
	DB	00H
	DB	0ffH
	DB	090H
	DB	06cH
	DB	00H
	DB	0ffH
	DB	090H
	DB	068H
	DB	00H
	DB	0ffH
	DB	090H
	DB	06cH
	DB	00H
	DB	0ffH
	DB	090H
	DB	06cH
	DB	00H
	DB	0ffH
	DB	090H
	DB	068H
	DB	00H
	DB	0ffH
	DB	090H
	DB	068H
	DB	00H
	DB	0ffH
	DB	090H
	DB	06cH
	DB	00H
	DB	0ffH
	DB	090H
	DB	06cH
	DB	00H
	DB	0ffH
	DB	090H
	DB	068H
	DB	00H
	DB	0ffH
	DB	090H
	DB	06cH
	DB	00H
	DB	0ffH
	DB	090H
	DB	06cH
	DB	00H
	DB	0ffH
	DB	090H
	DB	068H
	DB	00H
	DB	0ffH
	DB	090H
	DB	06cH
	DB	00H
	DB	0ffH
	DB	090H
	DB	06cH
	DB	00H
	DB	0ffH
	DB	090H
	DB	06cH
	DB	00H
	DB	0ffH
	DB	090H
	DB	06cH
	DB	00H
	DB	0ffH
	DB	090H
	DB	068H
	DB	00H
	DB	0ffH
	DB	090H
	DB	06cH
	DB	00H
	DB	0ffH
	DB	090H
	DB	06cH
	DB	00H
	DB	0ffH
	DB	090H
	DB	06cH
	DB	00H
	DB	0ffH
	DB	090H
	DB	068H
	DB	00H
	DB	0ffH
	DB	090H
	DB	06cH
	DB	00H
	DB	0ffH
	DB	090H
	DB	06cH
	DB	00H
	DB	0ffH
	DB	090H
	DB	068H
	DB	00H
	DB	0ffH
	DB	090H
	DB	06cH
	DB	00H
	DB	0ffH
	DB	090H
	DB	06cH
	DB	00H
	DB	0ffH
	DB	090H
	DB	068H
	DB	00H
	DB	0ffH
	DB	090H
	DB	06cH
	DB	00H
	DB	0ffH
	DB	090H
	DB	06cH
	DB	00H
	DB	0ffH
	DB	090H
	DB	068H
	DB	00H
	DB	0ffH
	DB	090H
	DB	06cH
	DB	00H
	DB	0ffH
	DB	090H
	DB	06cH
	DB	00H
	DB	0ffH
	DB	090H
	DB	068H
	DB	00H
	DB	0ffH
	DB	090H
	DB	06cH
	DB	00H
	DB	0ffH
	DB	090H
	DB	06cH
	DB	00H
	DB	0ffH
	DB	090H
	DB	06cH
	DB	00H
	DB	0ffH
	DB	090H
	DB	068H
	DB	00H
	DB	0ffH
	DB	090H
	DB	06cH
	DB	00H
	DB	0ffH
	DB	090H
	DB	06cH
	DB	00H
	DB	0ffH
	DB	090H
	DB	068H
	DB	00H
	DB	0ffH
	DB	090H
	DB	06cH
	DB	00H
	DB	0ffH
	DB	090H
	DB	06cH
	DB	00H
	DB	0ffH
	DB	090H
	DB	068H
	DB	00H
	DB	0ffH
	DB	090H
	DB	06cH
	DB	00H
	DB	0ffH
	DB	090H
	DB	06cH
	DB	00H
	DB	0ffH
	DB	090H
	DB	068H
	DB	00H
	DB	0ffH
	DB	090H
	DB	06cH
	DB	00H
	DB	0ffH
	DB	090H
	DB	06cH
	DB	00H
	DB	0ffH
	DB	090H
	DB	068H
	DB	00H
	DB	0ffH
	DB	090H
	DB	06cH
	DB	00H
	DB	0ffH
	DB	090H
	DB	06cH
	DB	00H
	DB	0ffH
	DB	090H
	DB	06cH
	DB	00H
	DB	0ffH
	DB	090H
	DB	06cH
	DB	00H
	DB	0ffH
	DB	090H
	DB	068H
	DB	00H
	DB	0ffH
	DB	090H
	DB	06cH
	DB	00H
	DB	0ffH
	DB	090H
	DB	06cH
	DB	00H
	DB	0ffH
	DB	090H
	DB	068H
	DB	00H
	DB	0ffH
	DB	090H
	DB	06cH
	DB	00H
	DB	0ffH
	DB	090H
	DB	06cH
	DB	00H
	DB	0ffH
	DB	090H
	DB	068H
	DB	00H
	DB	0ffH
	DB	090H
	DB	06cH
	DB	00H
	DB	0ffH
	DB	090H
	DB	06cH
	DB	00H
	DB	0ffH
	DB	090H
	DB	06cH
	DB	00H
	DB	0ffH
	DB	090H
	DB	068H
	DB	00H
	DB	0ffH
	DB	090H
	DB	06cH
	DB	00H
	DB	0ffH
	DB	090H
	DB	06cH
	DB	00H
	DB	0ffH
	DB	090H
	DB	068H
	DB	00H
	DB	0ffH
	DB	090H
	DB	06cH
	DB	00H
	DB	0ffH
	DB	090H
	DB	068H
	DB	00H
	DB	0ffH
	DB	090H
	DB	068H
	DB	00H
	DB	0ffH
	DB	090H
	DB	06cH
	DB	00H
	DB	0ffH
	DB	090H
	DB	068H
	DB	00H
	DB	0ffH
	DB	090H
	DB	06cH
	DB	00H
	DB	0ffH
	DB	090H
	DB	06cH
	DB	00H
	DB	0ffH
	DB	090H
	DB	068H
	DB	00H
	DB	0ffH
	DB	090H
	DB	06cH
	DB	00H
	DB	0ffH
	DB	090H
	DB	06cH
	DB	00H
	DB	0ffH
	DB	090H
	DB	06cH
	DB	00H
	DB	0ffH
	DB	090H
	DB	068H
	DB	00H
	DB	0ffH
	DB	090H
	DB	06cH
	DB	00H
	DB	0ffH
	DB	090H
	DB	06cH
	DB	00H
	DB	0ffH
	DB	090H
	DB	06cH
	DB	00H
	DB	0ffH
	DB	090H
	DB	06cH
	DB	00H
	DB	0ffH
	DB	090H
	DB	068H
	DB	00H
	DB	0ffH
	DB	090H
	DB	06cH
	DB	00H
	DB	0ffH
	DB	090H
	DB	06cH
	DB	00H
	DB	0ffH
	DB	090H
	DB	068H
	DB	00H
	DB	0ffH
	DB	090H
	DB	06cH
	DB	00H
	DB	0ffH
	DB	090H
	DB	06cH
	DB	00H
	DB	0ffH
	DB	090H
	DB	068H
	DB	00H
	DB	0ffH
	DB	090H
	DB	06cH
	DB	00H
	DB	0ffH
	DB	090H
	DB	06cH
	DB	00H
	DB	0ffH
	DB	090H
	DB	06cH
	DB	00H
	DB	0ffH
	DB	090H
	DB	068H
	DB	00H
	DB	0ffH
	DB	090H
	DB	06cH
	DB	00H
	DB	0ffH
	DB	090H
	DB	06cH
	DB	00H
	DB	0ffH
	DB	090H
	DB	068H
	DB	00H
	DB	0ffH
	DB	090H
	DB	06cH
	DB	00H
	DB	0ffH
	DB	090H
	DB	068H
	DB	00H
	DB	0ffH
	DB	090H
	DB	068H
	DB	00H
	DB	0ffH
	DB	090H
	DB	06cH
	DB	00H
	DB	0ffH
	DB	090H
	DB	068H
	DB	00H
	DB	0ffH
	DB	090H
	DB	06cH
	DB	00H
	DB	0ffH
	DB	090H
	DB	06cH
	DB	00H
	DB	0ffH
	DB	090H
	DB	068H
	DB	00H
	DB	0ffH
	DB	090H
	DB	06cH
	DB	00H
	DB	0ffH
	DB	090H
	DB	06cH
	DB	00H
	DB	0ffH
	DB	090H
	DB	06cH
	DB	00H
	DB	0ffH
	DB	090H
	DB	068H
	DB	00H
	DB	0ffH
	DB	090H
	DB	06cH
	DB	00H
	DB	0ffH
	DB	090H
	DB	06cH
	DB	00H
	DB	0ffH
	DB	090H
	DB	06cH
	DB	00H
	DB	0ffH
	DB	090H
	DB	06cH
	DB	00H
	DB	0ffH
	DB	090H
	DB	068H
	DB	00H
	DB	0ffH
	DB	090H
	DB	06cH
	DB	00H
	DB	0ffH
	DB	090H
	DB	06cH
	DB	00H
	DB	0ffH
	DB	090H
	DB	068H
	DB	00H
	DB	0ffH
	DB	090H
	DB	06cH
	DB	00H
	DB	0ffH
	DB	090H
	DB	06cH
	DB	00H
	DB	0ffH
	DB	090H
	DB	068H
	DB	00H
	DB	0ffH
	DB	090H
	DB	06cH
	DB	00H
	DB	0ffH
	DB	090H
	DB	06cH
	DB	00H
	DB	0ffH
	DB	090H
	DB	06cH
	DB	00H
	DB	0ffH
	DB	090H
	DB	068H
	DB	00H
	DB	0ffH
	DB	090H
	DB	06cH
	DB	00H
	DB	0ffH
	DB	090H
	DB	06cH
	DB	00H
	DB	0ffH
	DB	090H
	DB	06cH
	DB	00H
	DB	0ffH
	DB	090H
	DB	06cH
	DB	00H
	DB	0ffH
	DB	090H
	DB	068H
	DB	00H
	DB	0ffH
	DB	090H
	DB	06cH
	DB	00H
	DB	0ffH
	DB	090H
	DB	06cH
	DB	00H
	DB	0ffH
	DB	090H
	DB	068H
	DB	00H
	DB	0ffH
	DB	090H
	DB	06cH
	DB	00H
	DB	0ffH
	DB	090H
	DB	06cH
	DB	00H
	DB	0ffH
	DB	090H
	DB	068H
	DB	00H
	DB	0ffH
	DB	090H
	DB	06cH
	DB	00H
	DB	0ffH
	DB	090H
	DB	06cH
	DB	00H
	DB	0ffH
	DB	090H
	DB	068H
	DB	00H
	DB	0ffH
	DB	090H
	DB	06cH
	DB	00H
	DB	0ffH
	DB	090H
	DB	06cH
	DB	00H
	DB	0ffH
	DB	090H
	DB	068H
	DB	00H
	DB	0ffH
	DB	080H
	DB	064H
	DB	00H
	DB	0ffH
	DB	070H
	DB	054H
	DB	00H
	DB	0ffH
	DB	00H
	DB	00H
	DB	00H
	DB	00H
	DB	00H
	DB	00H
	DB	00H
	DB	00H
	DB	00H
	DB	00H
	DB	00H
	DB	00H
	DB	00H
	DB	00H
	DB	00H
	DB	00H
	DB	00H
	DB	00H
	DB	00H
	DB	00H
	DB	00H
	DB	00H
	DB	00H
	DB	00H
	DB	00H
	DB	00H
	DB	00H
	DB	00H
	DB	00H
	DB	00H
	DB	00H
	DB	00H
	DB	00H
	DB	00H
	DB	00H
	DB	00H
	DB	00H
	DB	00H
	DB	00H
	DB	00H
	DB	070H
	DB	054H
	DB	00H
	DB	0ffH
	DB	088H
	DB	060H
	DB	00H
	DB	0ffH
	DB	090H
	DB	068H
	DB	00H
	DB	0ffH
	DB	090H
	DB	06cH
	DB	00H
	DB	0ffH
	DB	090H
	DB	06cH
	DB	00H
	DB	0ffH
	DB	090H
	DB	06cH
	DB	00H
	DB	0ffH
	DB	090H
	DB	068H
	DB	00H
	DB	0ffH
	DB	090H
	DB	06cH
	DB	00H
	DB	0ffH
	DB	090H
	DB	06cH
	DB	00H
	DB	0ffH
	DB	090H
	DB	06cH
	DB	00H
	DB	0ffH
	DB	090H
	DB	068H
	DB	00H
	DB	0ffH
	DB	090H
	DB	06cH
	DB	00H
	DB	0ffH
	DB	090H
	DB	068H
	DB	00H
	DB	0ffH
	DB	090H
	DB	06cH
	DB	00H
	DB	0ffH
	DB	090H
	DB	06cH
	DB	00H
	DB	0ffH
	DB	090H
	DB	068H
	DB	00H
	DB	0ffH
	DB	090H
	DB	06cH
	DB	00H
	DB	0ffH
	DB	090H
	DB	06cH
	DB	00H
	DB	0ffH
	DB	090H
	DB	068H
	DB	00H
	DB	0ffH
	DB	090H
	DB	06cH
	DB	00H
	DB	0ffH
	DB	090H
	DB	06cH
	DB	00H
	DB	0ffH
	DB	090H
	DB	06cH
	DB	00H
	DB	0ffH
	DB	090H
	DB	06cH
	DB	00H
	DB	0ffH
	DB	090H
	DB	06cH
	DB	00H
	DB	0ffH
	DB	090H
	DB	068H
	DB	00H
	DB	0ffH
	DB	090H
	DB	06cH
	DB	00H
	DB	0ffH
	DB	090H
	DB	06cH
	DB	00H
	DB	0ffH
	DB	090H
	DB	06cH
	DB	00H
	DB	0ffH
	DB	090H
	DB	068H
	DB	00H
	DB	0ffH
	DB	090H
	DB	06cH
	DB	00H
	DB	0ffH
	DB	090H
	DB	06cH
	DB	00H
	DB	0ffH
	DB	090H
	DB	068H
	DB	00H
	DB	0ffH
	DB	090H
	DB	06cH
	DB	00H
	DB	0ffH
	DB	090H
	DB	06cH
	DB	00H
	DB	0ffH
	DB	090H
	DB	068H
	DB	00H
	DB	0ffH
	DB	090H
	DB	06cH
	DB	00H
	DB	0ffH
	DB	090H
	DB	06cH
	DB	00H
	DB	0ffH
	DB	090H
	DB	06cH
	DB	00H
	DB	0ffH
	DB	090H
	DB	06cH
	DB	00H
	DB	0ffH
	DB	090H
	DB	06cH
	DB	00H
	DB	0ffH
	DB	090H
	DB	068H
	DB	00H
	DB	0ffH
	DB	090H
	DB	06cH
	DB	00H
	DB	0ffH
	DB	090H
	DB	06cH
	DB	00H
	DB	0ffH
	DB	090H
	DB	068H
	DB	00H
	DB	0ffH
	DB	090H
	DB	06cH
	DB	00H
	DB	0ffH
	DB	090H
	DB	06cH
	DB	00H
	DB	0ffH
	DB	090H
	DB	068H
	DB	00H
	DB	0ffH
	DB	090H
	DB	06cH
	DB	00H
	DB	0ffH
	DB	090H
	DB	06cH
	DB	00H
	DB	0ffH
	DB	090H
	DB	06cH
	DB	00H
	DB	0ffH
	DB	090H
	DB	068H
	DB	00H
	DB	0ffH
	DB	090H
	DB	06cH
	DB	00H
	DB	0ffH
	DB	090H
	DB	06cH
	DB	00H
	DB	0ffH
	DB	090H
	DB	068H
	DB	00H
	DB	0ffH
	DB	090H
	DB	06cH
	DB	00H
	DB	0ffH
	DB	090H
	DB	06cH
	DB	00H
	DB	0ffH
	DB	090H
	DB	068H
	DB	00H
	DB	0ffH
	DB	090H
	DB	06cH
	DB	00H
	DB	0ffH
	DB	090H
	DB	06cH
	DB	00H
	DB	0ffH
	DB	090H
	DB	068H
	DB	00H
	DB	0ffH
	DB	090H
	DB	06cH
	DB	00H
	DB	0ffH
	DB	090H
	DB	06cH
	DB	00H
	DB	0ffH
	DB	090H
	DB	068H
	DB	00H
	DB	0ffH
	DB	090H
	DB	06cH
	DB	00H
	DB	0ffH
	DB	090H
	DB	06cH
	DB	00H
	DB	0ffH
	DB	090H
	DB	06cH
	DB	00H
	DB	0ffH
	DB	090H
	DB	068H
	DB	00H
	DB	0ffH
	DB	090H
	DB	06cH
	DB	00H
	DB	0ffH
	DB	090H
	DB	06cH
	DB	00H
	DB	0ffH
	DB	090H
	DB	068H
	DB	00H
	DB	0ffH
	DB	090H
	DB	06cH
	DB	00H
	DB	0ffH
	DB	090H
	DB	06cH
	DB	00H
	DB	0ffH
	DB	090H
	DB	068H
	DB	00H
	DB	0ffH
	DB	090H
	DB	06cH
	DB	00H
	DB	0ffH
	DB	090H
	DB	06cH
	DB	00H
	DB	0ffH
	DB	090H
	DB	06cH
	DB	00H
	DB	0ffH
	DB	090H
	DB	068H
	DB	00H
	DB	0ffH
	DB	090H
	DB	06cH
	DB	00H
	DB	0ffH
	DB	090H
	DB	06cH
	DB	00H
	DB	0ffH
	DB	090H
	DB	068H
	DB	00H
	DB	0ffH
	DB	090H
	DB	06cH
	DB	00H
	DB	0ffH
	DB	090H
	DB	06cH
	DB	00H
	DB	0ffH
	DB	090H
	DB	06cH
	DB	00H
	DB	0ffH
	DB	090H
	DB	06cH
	DB	00H
	DB	0ffH
	DB	090H
	DB	06cH
	DB	00H
	DB	0ffH
	DB	090H
	DB	06cH
	DB	00H
	DB	0ffH
	DB	090H
	DB	06cH
	DB	00H
	DB	0ffH
	DB	090H
	DB	06cH
	DB	00H
	DB	0ffH
	DB	090H
	DB	06cH
	DB	00H
	DB	0ffH
	DB	090H
	DB	068H
	DB	00H
	DB	0ffH
	DB	090H
	DB	06cH
	DB	00H
	DB	0ffH
	DB	090H
	DB	06cH
	DB	00H
	DB	0ffH
	DB	090H
	DB	068H
	DB	00H
	DB	0ffH
	DB	090H
	DB	06cH
	DB	00H
	DB	0ffH
	DB	090H
	DB	06cH
	DB	00H
	DB	0ffH
	DB	090H
	DB	06cH
	DB	00H
	DB	0ffH
	DB	090H
	DB	068H
	DB	00H
	DB	0ffH
	DB	090H
	DB	06cH
	DB	00H
	DB	0ffH
	DB	090H
	DB	06cH
	DB	00H
	DB	0ffH
	DB	090H
	DB	068H
	DB	00H
	DB	0ffH
	DB	090H
	DB	06cH
	DB	00H
	DB	0ffH
	DB	090H
	DB	06cH
	DB	00H
	DB	0ffH
	DB	090H
	DB	068H
	DB	00H
	DB	0ffH
	DB	090H
	DB	06cH
	DB	00H
	DB	0ffH
	DB	090H
	DB	06cH
	DB	00H
	DB	0ffH
	DB	090H
	DB	06cH
	DB	00H
	DB	0ffH
	DB	090H
	DB	068H
	DB	00H
	DB	0ffH
	DB	090H
	DB	06cH
	DB	00H
	DB	0ffH
	DB	090H
	DB	06cH
	DB	00H
	DB	0ffH
	DB	090H
	DB	068H
	DB	00H
	DB	0ffH
	DB	090H
	DB	06cH
	DB	00H
	DB	0ffH
	DB	090H
	DB	06cH
	DB	00H
	DB	0ffH
	DB	090H
	DB	06cH
	DB	00H
	DB	0ffH
	DB	090H
	DB	06cH
	DB	00H
	DB	0ffH
	DB	090H
	DB	06cH
	DB	00H
	DB	0ffH
	DB	090H
	DB	06cH
	DB	00H
	DB	0ffH
	DB	090H
	DB	06cH
	DB	00H
	DB	0ffH
	DB	090H
	DB	06cH
	DB	00H
	DB	0ffH
	DB	090H
	DB	06cH
	DB	00H
	DB	0ffH
	DB	090H
	DB	068H
	DB	00H
	DB	0ffH
	DB	090H
	DB	06cH
	DB	00H
	DB	0ffH
	DB	090H
	DB	06cH
	DB	00H
	DB	0ffH
	DB	090H
	DB	068H
	DB	00H
	DB	0ffH
	DB	090H
	DB	06cH
	DB	00H
	DB	0ffH
	DB	090H
	DB	06cH
	DB	00H
	DB	0ffH
	DB	090H
	DB	06cH
	DB	00H
	DB	0ffH
	DB	090H
	DB	068H
	DB	00H
	DB	0ffH
	DB	090H
	DB	06cH
	DB	00H
	DB	0ffH
	DB	090H
	DB	06cH
	DB	00H
	DB	0ffH
	DB	090H
	DB	068H
	DB	00H
	DB	0ffH
	DB	090H
	DB	06cH
	DB	00H
	DB	0ffH
	DB	090H
	DB	06cH
	DB	00H
	DB	0ffH
	DB	090H
	DB	068H
	DB	00H
	DB	0ffH
	DB	090H
	DB	06cH
	DB	00H
	DB	0ffH
	DB	090H
	DB	06cH
	DB	00H
	DB	0ffH
	DB	090H
	DB	06cH
	DB	00H
	DB	0ffH
	DB	090H
	DB	068H
	DB	00H
	DB	0ffH
	DB	090H
	DB	06cH
	DB	00H
	DB	0ffH
	DB	090H
	DB	06cH
	DB	00H
	DB	0ffH
	DB	090H
	DB	068H
	DB	00H
	DB	0ffH
	DB	090H
	DB	06cH
	DB	00H
	DB	0ffH
	DB	090H
	DB	06cH
	DB	00H
	DB	0ffH
	DB	090H
	DB	068H
	DB	00H
	DB	0ffH
	DB	090H
	DB	06cH
	DB	00H
	DB	0ffH
	DB	090H
	DB	06cH
	DB	00H
	DB	0ffH
	DB	090H
	DB	068H
	DB	00H
	DB	0ffH
	DB	090H
	DB	06cH
	DB	00H
	DB	0ffH
	DB	090H
	DB	06cH
	DB	00H
	DB	0ffH
	DB	090H
	DB	068H
	DB	00H
	DB	0ffH
	DB	090H
	DB	06cH
	DB	00H
	DB	0ffH
	DB	090H
	DB	06cH
	DB	00H
	DB	0ffH
	DB	090H
	DB	068H
	DB	00H
	DB	0ffH
	DB	090H
	DB	06cH
	DB	00H
	DB	0ffH
	DB	090H
	DB	06cH
	DB	00H
	DB	0ffH
	DB	090H
	DB	06cH
	DB	00H
	DB	0ffH
	DB	090H
	DB	06cH
	DB	00H
	DB	0ffH
	DB	090H
	DB	06cH
	DB	00H
	DB	0ffH
	DB	090H
	DB	068H
	DB	00H
	DB	0ffH
	DB	088H
	DB	060H
	DB	00H
	DB	0ffH
	DB	070H
	DB	054H
	DB	00H
	DB	0ffH
	DB	00H
	DB	00H
	DB	00H
	DB	00H
	DB	00H
	DB	00H
	DB	00H
	DB	00H
	DB	00H
	DB	00H
	DB	00H
	DB	00H
	DB	00H
	DB	00H
	DB	00H
	DB	00H
	DB	00H
	DB	00H
	DB	00H
	DB	00H
	DB	00H
	DB	00H
	DB	00H
	DB	00H
	DB	00H
	DB	00H
	DB	00H
	DB	00H
	DB	00H
	DB	00H
	DB	00H
	DB	00H
	DB	00H
	DB	00H
	DB	00H
	DB	00H
	DB	00H
	DB	00H
	DB	00H
	DB	00H
	DB	070H
	DB	054H
	DB	00H
	DB	0ffH
	DB	088H
	DB	064H
	DB	00H
	DB	0ffH
	DB	090H
	DB	068H
	DB	00H
	DB	0ffH
	DB	090H
	DB	06cH
	DB	00H
	DB	0ffH
	DB	090H
	DB	06cH
	DB	00H
	DB	0ffH
	DB	090H
	DB	06cH
	DB	00H
	DB	0ffH
	DB	090H
	DB	06cH
	DB	00H
	DB	0ffH
	DB	090H
	DB	06cH
	DB	00H
	DB	0ffH
	DB	090H
	DB	06cH
	DB	00H
	DB	0ffH
	DB	090H
	DB	06cH
	DB	00H
	DB	0ffH
	DB	090H
	DB	06cH
	DB	00H
	DB	0ffH
	DB	090H
	DB	06cH
	DB	00H
	DB	0ffH
	DB	090H
	DB	06cH
	DB	00H
	DB	0ffH
	DB	090H
	DB	06cH
	DB	00H
	DB	0ffH
	DB	090H
	DB	06cH
	DB	00H
	DB	0ffH
	DB	090H
	DB	06cH
	DB	00H
	DB	0ffH
	DB	090H
	DB	06cH
	DB	00H
	DB	0ffH
	DB	090H
	DB	06cH
	DB	00H
	DB	0ffH
	DB	090H
	DB	06cH
	DB	00H
	DB	0ffH
	DB	090H
	DB	06cH
	DB	00H
	DB	0ffH
	DB	090H
	DB	06cH
	DB	00H
	DB	0ffH
	DB	090H
	DB	06cH
	DB	00H
	DB	0ffH
	DB	090H
	DB	06cH
	DB	00H
	DB	0ffH
	DB	090H
	DB	06cH
	DB	00H
	DB	0ffH
	DB	090H
	DB	06cH
	DB	00H
	DB	0ffH
	DB	090H
	DB	06cH
	DB	00H
	DB	0ffH
	DB	090H
	DB	06cH
	DB	00H
	DB	0ffH
	DB	090H
	DB	06cH
	DB	00H
	DB	0ffH
	DB	090H
	DB	06cH
	DB	00H
	DB	0ffH
	DB	090H
	DB	06cH
	DB	00H
	DB	0ffH
	DB	090H
	DB	06cH
	DB	00H
	DB	0ffH
	DB	090H
	DB	06cH
	DB	00H
	DB	0ffH
	DB	090H
	DB	06cH
	DB	00H
	DB	0ffH
	DB	090H
	DB	06cH
	DB	00H
	DB	0ffH
	DB	090H
	DB	06cH
	DB	00H
	DB	0ffH
	DB	090H
	DB	06cH
	DB	00H
	DB	0ffH
	DB	090H
	DB	06cH
	DB	00H
	DB	0ffH
	DB	090H
	DB	06cH
	DB	00H
	DB	0ffH
	DB	090H
	DB	06cH
	DB	00H
	DB	0ffH
	DB	090H
	DB	06cH
	DB	00H
	DB	0ffH
	DB	090H
	DB	06cH
	DB	00H
	DB	0ffH
	DB	090H
	DB	06cH
	DB	00H
	DB	0ffH
	DB	090H
	DB	06cH
	DB	00H
	DB	0ffH
	DB	090H
	DB	06cH
	DB	00H
	DB	0ffH
	DB	090H
	DB	06cH
	DB	00H
	DB	0ffH
	DB	090H
	DB	06cH
	DB	00H
	DB	0ffH
	DB	090H
	DB	06cH
	DB	00H
	DB	0ffH
	DB	090H
	DB	06cH
	DB	00H
	DB	0ffH
	DB	090H
	DB	06cH
	DB	00H
	DB	0ffH
	DB	090H
	DB	06cH
	DB	00H
	DB	0ffH
	DB	090H
	DB	06cH
	DB	00H
	DB	0ffH
	DB	090H
	DB	06cH
	DB	00H
	DB	0ffH
	DB	090H
	DB	06cH
	DB	00H
	DB	0ffH
	DB	090H
	DB	06cH
	DB	00H
	DB	0ffH
	DB	090H
	DB	06cH
	DB	00H
	DB	0ffH
	DB	090H
	DB	06cH
	DB	00H
	DB	0ffH
	DB	090H
	DB	06cH
	DB	00H
	DB	0ffH
	DB	090H
	DB	06cH
	DB	00H
	DB	0ffH
	DB	090H
	DB	06cH
	DB	00H
	DB	0ffH
	DB	090H
	DB	06cH
	DB	00H
	DB	0ffH
	DB	090H
	DB	06cH
	DB	00H
	DB	0ffH
	DB	090H
	DB	06cH
	DB	00H
	DB	0ffH
	DB	090H
	DB	06cH
	DB	00H
	DB	0ffH
	DB	090H
	DB	06cH
	DB	00H
	DB	0ffH
	DB	090H
	DB	06cH
	DB	00H
	DB	0ffH
	DB	090H
	DB	06cH
	DB	00H
	DB	0ffH
	DB	090H
	DB	06cH
	DB	00H
	DB	0ffH
	DB	090H
	DB	06cH
	DB	00H
	DB	0ffH
	DB	090H
	DB	06cH
	DB	00H
	DB	0ffH
	DB	090H
	DB	06cH
	DB	00H
	DB	0ffH
	DB	090H
	DB	06cH
	DB	00H
	DB	0ffH
	DB	090H
	DB	06cH
	DB	00H
	DB	0ffH
	DB	090H
	DB	06cH
	DB	00H
	DB	0ffH
	DB	090H
	DB	06cH
	DB	00H
	DB	0ffH
	DB	090H
	DB	06cH
	DB	00H
	DB	0ffH
	DB	090H
	DB	06cH
	DB	00H
	DB	0ffH
	DB	090H
	DB	06cH
	DB	00H
	DB	0ffH
	DB	090H
	DB	06cH
	DB	00H
	DB	0ffH
	DB	090H
	DB	06cH
	DB	00H
	DB	0ffH
	DB	090H
	DB	06cH
	DB	00H
	DB	0ffH
	DB	090H
	DB	06cH
	DB	00H
	DB	0ffH
	DB	090H
	DB	06cH
	DB	00H
	DB	0ffH
	DB	090H
	DB	06cH
	DB	00H
	DB	0ffH
	DB	090H
	DB	06cH
	DB	00H
	DB	0ffH
	DB	090H
	DB	06cH
	DB	00H
	DB	0ffH
	DB	090H
	DB	06cH
	DB	00H
	DB	0ffH
	DB	090H
	DB	06cH
	DB	00H
	DB	0ffH
	DB	090H
	DB	06cH
	DB	00H
	DB	0ffH
	DB	090H
	DB	06cH
	DB	00H
	DB	0ffH
	DB	090H
	DB	06cH
	DB	00H
	DB	0ffH
	DB	090H
	DB	06cH
	DB	00H
	DB	0ffH
	DB	090H
	DB	06cH
	DB	00H
	DB	0ffH
	DB	090H
	DB	06cH
	DB	00H
	DB	0ffH
	DB	090H
	DB	06cH
	DB	00H
	DB	0ffH
	DB	090H
	DB	06cH
	DB	00H
	DB	0ffH
	DB	090H
	DB	06cH
	DB	00H
	DB	0ffH
	DB	090H
	DB	06cH
	DB	00H
	DB	0ffH
	DB	090H
	DB	06cH
	DB	00H
	DB	0ffH
	DB	090H
	DB	06cH
	DB	00H
	DB	0ffH
	DB	090H
	DB	06cH
	DB	00H
	DB	0ffH
	DB	090H
	DB	06cH
	DB	00H
	DB	0ffH
	DB	090H
	DB	06cH
	DB	00H
	DB	0ffH
	DB	090H
	DB	06cH
	DB	00H
	DB	0ffH
	DB	090H
	DB	06cH
	DB	00H
	DB	0ffH
	DB	090H
	DB	06cH
	DB	00H
	DB	0ffH
	DB	090H
	DB	06cH
	DB	00H
	DB	0ffH
	DB	090H
	DB	06cH
	DB	00H
	DB	0ffH
	DB	090H
	DB	06cH
	DB	00H
	DB	0ffH
	DB	090H
	DB	06cH
	DB	00H
	DB	0ffH
	DB	090H
	DB	06cH
	DB	00H
	DB	0ffH
	DB	090H
	DB	06cH
	DB	00H
	DB	0ffH
	DB	090H
	DB	06cH
	DB	00H
	DB	0ffH
	DB	090H
	DB	06cH
	DB	00H
	DB	0ffH
	DB	090H
	DB	06cH
	DB	00H
	DB	0ffH
	DB	090H
	DB	06cH
	DB	00H
	DB	0ffH
	DB	090H
	DB	06cH
	DB	00H
	DB	0ffH
	DB	090H
	DB	06cH
	DB	00H
	DB	0ffH
	DB	090H
	DB	06cH
	DB	00H
	DB	0ffH
	DB	090H
	DB	06cH
	DB	00H
	DB	0ffH
	DB	090H
	DB	06cH
	DB	00H
	DB	0ffH
	DB	090H
	DB	06cH
	DB	00H
	DB	0ffH
	DB	090H
	DB	06cH
	DB	00H
	DB	0ffH
	DB	090H
	DB	06cH
	DB	00H
	DB	0ffH
	DB	090H
	DB	06cH
	DB	00H
	DB	0ffH
	DB	090H
	DB	06cH
	DB	00H
	DB	0ffH
	DB	090H
	DB	06cH
	DB	00H
	DB	0ffH
	DB	090H
	DB	06cH
	DB	00H
	DB	0ffH
	DB	090H
	DB	06cH
	DB	00H
	DB	0ffH
	DB	090H
	DB	06cH
	DB	00H
	DB	0ffH
	DB	090H
	DB	06cH
	DB	00H
	DB	0ffH
	DB	090H
	DB	06cH
	DB	00H
	DB	0ffH
	DB	090H
	DB	06cH
	DB	00H
	DB	0ffH
	DB	090H
	DB	06cH
	DB	00H
	DB	0ffH
	DB	090H
	DB	06cH
	DB	00H
	DB	0ffH
	DB	090H
	DB	06cH
	DB	00H
	DB	0ffH
	DB	090H
	DB	06cH
	DB	00H
	DB	0ffH
	DB	090H
	DB	06cH
	DB	00H
	DB	0ffH
	DB	090H
	DB	06cH
	DB	00H
	DB	0ffH
	DB	098H
	DB	06cH
	DB	00H
	DB	0ffH
	DB	090H
	DB	06cH
	DB	00H
	DB	0ffH
	DB	090H
	DB	06cH
	DB	00H
	DB	0ffH
	DB	090H
	DB	06cH
	DB	00H
	DB	0ffH
	DB	090H
	DB	06cH
	DB	00H
	DB	0ffH
	DB	090H
	DB	06cH
	DB	00H
	DB	0ffH
	DB	090H
	DB	06cH
	DB	00H
	DB	0ffH
	DB	090H
	DB	06cH
	DB	00H
	DB	0ffH
	DB	090H
	DB	06cH
	DB	00H
	DB	0ffH
	DB	090H
	DB	06cH
	DB	00H
	DB	0ffH
	DB	090H
	DB	06cH
	DB	00H
	DB	0ffH
	DB	090H
	DB	06cH
	DB	00H
	DB	0ffH
	DB	090H
	DB	06cH
	DB	00H
	DB	0ffH
	DB	090H
	DB	06cH
	DB	00H
	DB	0ffH
	DB	090H
	DB	06cH
	DB	00H
	DB	0ffH
	DB	090H
	DB	06cH
	DB	00H
	DB	0ffH
	DB	090H
	DB	06cH
	DB	00H
	DB	0ffH
	DB	090H
	DB	06cH
	DB	00H
	DB	0ffH
	DB	090H
	DB	06cH
	DB	00H
	DB	0ffH
	DB	090H
	DB	068H
	DB	00H
	DB	0ffH
	DB	088H
	DB	064H
	DB	00H
	DB	0ffH
	DB	078H
	DB	054H
	DB	00H
	DB	0ffH
	DB	00H
	DB	00H
	DB	00H
	DB	00H
	DB	00H
	DB	00H
	DB	00H
	DB	00H
	DB	00H
	DB	00H
	DB	00H
	DB	00H
	DB	00H
	DB	00H
	DB	00H
	DB	00H
	DB	00H
	DB	00H
	DB	00H
	DB	00H
	DB	00H
	DB	00H
	DB	00H
	DB	00H
	DB	00H
	DB	00H
	DB	00H
	DB	00H
	DB	00H
	DB	00H
	DB	00H
	DB	00H
	DB	00H
	DB	00H
	DB	00H
	DB	00H
	DB	00H
	DB	00H
	DB	00H
	DB	00H
	DB	078H
	DB	054H
	DB	00H
	DB	0ffH
	DB	088H
	DB	064H
	DB	00H
	DB	0ffH
	DB	090H
	DB	06cH
	DB	00H
	DB	0ffH
	DB	090H
	DB	06cH
	DB	00H
	DB	0ffH
	DB	098H
	DB	06cH
	DB	00H
	DB	0ffH
	DB	098H
	DB	06cH
	DB	00H
	DB	0ffH
	DB	098H
	DB	06cH
	DB	00H
	DB	0ffH
	DB	098H
	DB	06cH
	DB	00H
	DB	0ffH
	DB	098H
	DB	06cH
	DB	00H
	DB	0ffH
	DB	098H
	DB	06cH
	DB	00H
	DB	0ffH
	DB	098H
	DB	06cH
	DB	00H
	DB	0ffH
	DB	098H
	DB	06cH
	DB	00H
	DB	0ffH
	DB	098H
	DB	06cH
	DB	00H
	DB	0ffH
	DB	098H
	DB	06cH
	DB	00H
	DB	0ffH
	DB	098H
	DB	06cH
	DB	00H
	DB	0ffH
	DB	098H
	DB	06cH
	DB	00H
	DB	0ffH
	DB	098H
	DB	06cH
	DB	00H
	DB	0ffH
	DB	098H
	DB	06cH
	DB	00H
	DB	0ffH
	DB	090H
	DB	06cH
	DB	00H
	DB	0ffH
	DB	098H
	DB	06cH
	DB	00H
	DB	0ffH
	DB	098H
	DB	06cH
	DB	00H
	DB	0ffH
	DB	090H
	DB	06cH
	DB	00H
	DB	0ffH
	DB	098H
	DB	06cH
	DB	00H
	DB	0ffH
	DB	098H
	DB	06cH
	DB	00H
	DB	0ffH
	DB	090H
	DB	06cH
	DB	00H
	DB	0ffH
	DB	098H
	DB	06cH
	DB	00H
	DB	0ffH
	DB	098H
	DB	06cH
	DB	00H
	DB	0ffH
	DB	090H
	DB	06cH
	DB	00H
	DB	0ffH
	DB	098H
	DB	06cH
	DB	00H
	DB	0ffH
	DB	098H
	DB	06cH
	DB	00H
	DB	0ffH
	DB	090H
	DB	06cH
	DB	00H
	DB	0ffH
	DB	098H
	DB	06cH
	DB	00H
	DB	0ffH
	DB	098H
	DB	06cH
	DB	00H
	DB	0ffH
	DB	090H
	DB	06cH
	DB	00H
	DB	0ffH
	DB	098H
	DB	06cH
	DB	00H
	DB	0ffH
	DB	098H
	DB	06cH
	DB	00H
	DB	0ffH
	DB	098H
	DB	06cH
	DB	00H
	DB	0ffH
	DB	090H
	DB	06cH
	DB	00H
	DB	0ffH
	DB	098H
	DB	06cH
	DB	00H
	DB	0ffH
	DB	098H
	DB	06cH
	DB	00H
	DB	0ffH
	DB	098H
	DB	06cH
	DB	00H
	DB	0ffH
	DB	090H
	DB	06cH
	DB	00H
	DB	0ffH
	DB	098H
	DB	06cH
	DB	00H
	DB	0ffH
	DB	098H
	DB	06cH
	DB	00H
	DB	0ffH
	DB	098H
	DB	06cH
	DB	00H
	DB	0ffH
	DB	098H
	DB	06cH
	DB	00H
	DB	0ffH
	DB	098H
	DB	06cH
	DB	00H
	DB	0ffH
	DB	098H
	DB	06cH
	DB	00H
	DB	0ffH
	DB	098H
	DB	06cH
	DB	00H
	DB	0ffH
	DB	098H
	DB	06cH
	DB	00H
	DB	0ffH
	DB	098H
	DB	06cH
	DB	00H
	DB	0ffH
	DB	098H
	DB	06cH
	DB	00H
	DB	0ffH
	DB	098H
	DB	06cH
	DB	00H
	DB	0ffH
	DB	098H
	DB	06cH
	DB	00H
	DB	0ffH
	DB	098H
	DB	06cH
	DB	00H
	DB	0ffH
	DB	090H
	DB	06cH
	DB	00H
	DB	0ffH
	DB	098H
	DB	06cH
	DB	00H
	DB	0ffH
	DB	098H
	DB	06cH
	DB	00H
	DB	0ffH
	DB	090H
	DB	06cH
	DB	00H
	DB	0ffH
	DB	098H
	DB	06cH
	DB	00H
	DB	0ffH
	DB	098H
	DB	06cH
	DB	00H
	DB	0ffH
	DB	090H
	DB	06cH
	DB	00H
	DB	0ffH
	DB	098H
	DB	06cH
	DB	00H
	DB	0ffH
	DB	098H
	DB	06cH
	DB	00H
	DB	0ffH
	DB	098H
	DB	06cH
	DB	00H
	DB	0ffH
	DB	090H
	DB	06cH
	DB	00H
	DB	0ffH
	DB	098H
	DB	06cH
	DB	00H
	DB	0ffH
	DB	098H
	DB	06cH
	DB	00H
	DB	0ffH
	DB	098H
	DB	06cH
	DB	00H
	DB	0ffH
	DB	098H
	DB	06cH
	DB	00H
	DB	0ffH
	DB	090H
	DB	06cH
	DB	00H
	DB	0ffH
	DB	098H
	DB	06cH
	DB	00H
	DB	0ffH
	DB	098H
	DB	06cH
	DB	00H
	DB	0ffH
	DB	098H
	DB	06cH
	DB	00H
	DB	0ffH
	DB	098H
	DB	06cH
	DB	00H
	DB	0ffH
	DB	090H
	DB	06cH
	DB	00H
	DB	0ffH
	DB	098H
	DB	06cH
	DB	00H
	DB	0ffH
	DB	098H
	DB	06cH
	DB	00H
	DB	0ffH
	DB	098H
	DB	06cH
	DB	00H
	DB	0ffH
	DB	098H
	DB	06cH
	DB	00H
	DB	0ffH
	DB	098H
	DB	06cH
	DB	00H
	DB	0ffH
	DB	098H
	DB	06cH
	DB	00H
	DB	0ffH
	DB	098H
	DB	06cH
	DB	00H
	DB	0ffH
	DB	098H
	DB	06cH
	DB	00H
	DB	0ffH
	DB	098H
	DB	06cH
	DB	00H
	DB	0ffH
	DB	098H
	DB	06cH
	DB	00H
	DB	0ffH
	DB	098H
	DB	06cH
	DB	00H
	DB	0ffH
	DB	098H
	DB	06cH
	DB	00H
	DB	0ffH
	DB	098H
	DB	06cH
	DB	00H
	DB	0ffH
	DB	098H
	DB	06cH
	DB	00H
	DB	0ffH
	DB	098H
	DB	06cH
	DB	00H
	DB	0ffH
	DB	090H
	DB	06cH
	DB	00H
	DB	0ffH
	DB	098H
	DB	06cH
	DB	00H
	DB	0ffH
	DB	098H
	DB	06cH
	DB	00H
	DB	0ffH
	DB	098H
	DB	06cH
	DB	00H
	DB	0ffH
	DB	098H
	DB	06cH
	DB	00H
	DB	0ffH
	DB	098H
	DB	06cH
	DB	00H
	DB	0ffH
	DB	098H
	DB	06cH
	DB	00H
	DB	0ffH
	DB	098H
	DB	06cH
	DB	00H
	DB	0ffH
	DB	098H
	DB	06cH
	DB	00H
	DB	0ffH
	DB	098H
	DB	06cH
	DB	00H
	DB	0ffH
	DB	098H
	DB	06cH
	DB	00H
	DB	0ffH
	DB	090H
	DB	06cH
	DB	00H
	DB	0ffH
	DB	098H
	DB	06cH
	DB	00H
	DB	0ffH
	DB	098H
	DB	06cH
	DB	00H
	DB	0ffH
	DB	090H
	DB	06cH
	DB	00H
	DB	0ffH
	DB	098H
	DB	06cH
	DB	00H
	DB	0ffH
	DB	098H
	DB	06cH
	DB	00H
	DB	0ffH
	DB	090H
	DB	06cH
	DB	00H
	DB	0ffH
	DB	098H
	DB	06cH
	DB	00H
	DB	0ffH
	DB	098H
	DB	06cH
	DB	00H
	DB	0ffH
	DB	090H
	DB	06cH
	DB	00H
	DB	0ffH
	DB	098H
	DB	06cH
	DB	00H
	DB	0ffH
	DB	098H
	DB	06cH
	DB	00H
	DB	0ffH
	DB	098H
	DB	06cH
	DB	00H
	DB	0ffH
	DB	098H
	DB	06cH
	DB	00H
	DB	0ffH
	DB	098H
	DB	06cH
	DB	00H
	DB	0ffH
	DB	090H
	DB	06cH
	DB	00H
	DB	0ffH
	DB	098H
	DB	06cH
	DB	00H
	DB	0ffH
	DB	098H
	DB	06cH
	DB	00H
	DB	0ffH
	DB	098H
	DB	06cH
	DB	00H
	DB	0ffH
	DB	098H
	DB	06cH
	DB	00H
	DB	0ffH
	DB	098H
	DB	06cH
	DB	00H
	DB	0ffH
	DB	098H
	DB	06cH
	DB	00H
	DB	0ffH
	DB	098H
	DB	06cH
	DB	00H
	DB	0ffH
	DB	098H
	DB	06cH
	DB	00H
	DB	0ffH
	DB	098H
	DB	06cH
	DB	00H
	DB	0ffH
	DB	098H
	DB	06cH
	DB	00H
	DB	0ffH
	DB	098H
	DB	06cH
	DB	00H
	DB	0ffH
	DB	098H
	DB	06cH
	DB	00H
	DB	0ffH
	DB	098H
	DB	06cH
	DB	00H
	DB	0ffH
	DB	090H
	DB	06cH
	DB	00H
	DB	0ffH
	DB	098H
	DB	06cH
	DB	00H
	DB	0ffH
	DB	098H
	DB	06cH
	DB	00H
	DB	0ffH
	DB	098H
	DB	06cH
	DB	00H
	DB	0ffH
	DB	098H
	DB	06cH
	DB	00H
	DB	0ffH
	DB	090H
	DB	06cH
	DB	00H
	DB	0ffH
	DB	098H
	DB	06cH
	DB	00H
	DB	0ffH
	DB	098H
	DB	06cH
	DB	00H
	DB	0ffH
	DB	090H
	DB	06cH
	DB	00H
	DB	0ffH
	DB	098H
	DB	06cH
	DB	00H
	DB	0ffH
	DB	098H
	DB	06cH
	DB	00H
	DB	0ffH
	DB	098H
	DB	06cH
	DB	00H
	DB	0ffH
	DB	098H
	DB	06cH
	DB	00H
	DB	0ffH
	DB	098H
	DB	06cH
	DB	00H
	DB	0ffH
	DB	098H
	DB	06cH
	DB	00H
	DB	0ffH
	DB	098H
	DB	06cH
	DB	00H
	DB	0ffH
	DB	098H
	DB	06cH
	DB	00H
	DB	0ffH
	DB	090H
	DB	06cH
	DB	00H
	DB	0ffH
	DB	098H
	DB	06cH
	DB	00H
	DB	0ffH
	DB	098H
	DB	06cH
	DB	00H
	DB	0ffH
	DB	090H
	DB	06cH
	DB	00H
	DB	0ffH
	DB	098H
	DB	06cH
	DB	00H
	DB	0ffH
	DB	098H
	DB	06cH
	DB	00H
	DB	0ffH
	DB	098H
	DB	06cH
	DB	00H
	DB	0ffH
	DB	090H
	DB	06cH
	DB	00H
	DB	0ffH
	DB	098H
	DB	06cH
	DB	00H
	DB	0ffH
	DB	090H
	DB	068H
	DB	00H
	DB	0ffH
	DB	088H
	DB	064H
	DB	00H
	DB	0ffH
	DB	070H
	DB	054H
	DB	00H
	DB	0ffH
	DB	00H
	DB	00H
	DB	00H
	DB	00H
	DB	00H
	DB	00H
	DB	00H
	DB	00H
	DB	00H
	DB	00H
	DB	00H
	DB	00H
	DB	00H
	DB	00H
	DB	00H
	DB	00H
	DB	00H
	DB	00H
	DB	00H
	DB	00H
	DB	00H
	DB	00H
	DB	00H
	DB	00H
	DB	00H
	DB	00H
	DB	00H
	DB	00H
	DB	00H
	DB	00H
	DB	00H
	DB	00H
	DB	00H
	DB	00H
	DB	00H
	DB	00H
	DB	00H
	DB	00H
	DB	00H
	DB	00H
	DB	070H
	DB	054H
	DB	00H
	DB	0ffH
	DB	088H
	DB	064H
	DB	00H
	DB	0ffH
	DB	090H
	DB	068H
	DB	00H
	DB	0ffH
	DB	090H
	DB	06cH
	DB	00H
	DB	0ffH
	DB	090H
	DB	06cH
	DB	00H
	DB	0ffH
	DB	090H
	DB	06cH
	DB	00H
	DB	0ffH
	DB	090H
	DB	06cH
	DB	00H
	DB	0ffH
	DB	090H
	DB	06cH
	DB	00H
	DB	0ffH
	DB	090H
	DB	06cH
	DB	00H
	DB	0ffH
	DB	090H
	DB	06cH
	DB	00H
	DB	0ffH
	DB	090H
	DB	06cH
	DB	00H
	DB	0ffH
	DB	090H
	DB	06cH
	DB	00H
	DB	0ffH
	DB	090H
	DB	06cH
	DB	00H
	DB	0ffH
	DB	090H
	DB	06cH
	DB	00H
	DB	0ffH
	DB	090H
	DB	06cH
	DB	00H
	DB	0ffH
	DB	090H
	DB	06cH
	DB	00H
	DB	0ffH
	DB	090H
	DB	06cH
	DB	00H
	DB	0ffH
	DB	090H
	DB	06cH
	DB	00H
	DB	0ffH
	DB	098H
	DB	06cH
	DB	00H
	DB	0ffH
	DB	090H
	DB	06cH
	DB	00H
	DB	0ffH
	DB	090H
	DB	06cH
	DB	00H
	DB	0ffH
	DB	098H
	DB	06cH
	DB	00H
	DB	0ffH
	DB	090H
	DB	06cH
	DB	00H
	DB	0ffH
	DB	090H
	DB	06cH
	DB	00H
	DB	0ffH
	DB	098H
	DB	06cH
	DB	00H
	DB	0ffH
	DB	090H
	DB	06cH
	DB	00H
	DB	0ffH
	DB	090H
	DB	06cH
	DB	00H
	DB	0ffH
	DB	098H
	DB	06cH
	DB	00H
	DB	0ffH
	DB	090H
	DB	06cH
	DB	00H
	DB	0ffH
	DB	090H
	DB	06cH
	DB	00H
	DB	0ffH
	DB	098H
	DB	06cH
	DB	00H
	DB	0ffH
	DB	090H
	DB	06cH
	DB	00H
	DB	0ffH
	DB	090H
	DB	06cH
	DB	00H
	DB	0ffH
	DB	098H
	DB	06cH
	DB	00H
	DB	0ffH
	DB	090H
	DB	06cH
	DB	00H
	DB	0ffH
	DB	090H
	DB	06cH
	DB	00H
	DB	0ffH
	DB	090H
	DB	06cH
	DB	00H
	DB	0ffH
	DB	098H
	DB	06cH
	DB	00H
	DB	0ffH
	DB	090H
	DB	06cH
	DB	00H
	DB	0ffH
	DB	090H
	DB	06cH
	DB	00H
	DB	0ffH
	DB	090H
	DB	06cH
	DB	00H
	DB	0ffH
	DB	098H
	DB	06cH
	DB	00H
	DB	0ffH
	DB	090H
	DB	06cH
	DB	00H
	DB	0ffH
	DB	090H
	DB	06cH
	DB	00H
	DB	0ffH
	DB	090H
	DB	06cH
	DB	00H
	DB	0ffH
	DB	090H
	DB	06cH
	DB	00H
	DB	0ffH
	DB	090H
	DB	06cH
	DB	00H
	DB	0ffH
	DB	090H
	DB	06cH
	DB	00H
	DB	0ffH
	DB	090H
	DB	06cH
	DB	00H
	DB	0ffH
	DB	090H
	DB	06cH
	DB	00H
	DB	0ffH
	DB	090H
	DB	06cH
	DB	00H
	DB	0ffH
	DB	090H
	DB	06cH
	DB	00H
	DB	0ffH
	DB	090H
	DB	06cH
	DB	00H
	DB	0ffH
	DB	090H
	DB	06cH
	DB	00H
	DB	0ffH
	DB	090H
	DB	06cH
	DB	00H
	DB	0ffH
	DB	098H
	DB	06cH
	DB	00H
	DB	0ffH
	DB	090H
	DB	06cH
	DB	00H
	DB	0ffH
	DB	090H
	DB	06cH
	DB	00H
	DB	0ffH
	DB	098H
	DB	06cH
	DB	00H
	DB	0ffH
	DB	090H
	DB	06cH
	DB	00H
	DB	0ffH
	DB	090H
	DB	06cH
	DB	00H
	DB	0ffH
	DB	098H
	DB	06cH
	DB	00H
	DB	0ffH
	DB	090H
	DB	06cH
	DB	00H
	DB	0ffH
	DB	090H
	DB	06cH
	DB	00H
	DB	0ffH
	DB	090H
	DB	06cH
	DB	00H
	DB	0ffH
	DB	098H
	DB	06cH
	DB	00H
	DB	0ffH
	DB	090H
	DB	06cH
	DB	00H
	DB	0ffH
	DB	090H
	DB	06cH
	DB	00H
	DB	0ffH
	DB	090H
	DB	06cH
	DB	00H
	DB	0ffH
	DB	090H
	DB	06cH
	DB	00H
	DB	0ffH
	DB	098H
	DB	06cH
	DB	00H
	DB	0ffH
	DB	090H
	DB	06cH
	DB	00H
	DB	0ffH
	DB	090H
	DB	06cH
	DB	00H
	DB	0ffH
	DB	090H
	DB	06cH
	DB	00H
	DB	0ffH
	DB	090H
	DB	06cH
	DB	00H
	DB	0ffH
	DB	098H
	DB	06cH
	DB	00H
	DB	0ffH
	DB	090H
	DB	06cH
	DB	00H
	DB	0ffH
	DB	090H
	DB	06cH
	DB	00H
	DB	0ffH
	DB	090H
	DB	06cH
	DB	00H
	DB	0ffH
	DB	090H
	DB	06cH
	DB	00H
	DB	0ffH
	DB	090H
	DB	06cH
	DB	00H
	DB	0ffH
	DB	090H
	DB	06cH
	DB	00H
	DB	0ffH
	DB	090H
	DB	06cH
	DB	00H
	DB	0ffH
	DB	090H
	DB	06cH
	DB	00H
	DB	0ffH
	DB	090H
	DB	06cH
	DB	00H
	DB	0ffH
	DB	090H
	DB	06cH
	DB	00H
	DB	0ffH
	DB	090H
	DB	06cH
	DB	00H
	DB	0ffH
	DB	090H
	DB	06cH
	DB	00H
	DB	0ffH
	DB	090H
	DB	06cH
	DB	00H
	DB	0ffH
	DB	090H
	DB	06cH
	DB	00H
	DB	0ffH
	DB	090H
	DB	06cH
	DB	00H
	DB	0ffH
	DB	098H
	DB	06cH
	DB	00H
	DB	0ffH
	DB	090H
	DB	06cH
	DB	00H
	DB	0ffH
	DB	090H
	DB	06cH
	DB	00H
	DB	0ffH
	DB	090H
	DB	06cH
	DB	00H
	DB	0ffH
	DB	090H
	DB	06cH
	DB	00H
	DB	0ffH
	DB	090H
	DB	06cH
	DB	00H
	DB	0ffH
	DB	090H
	DB	06cH
	DB	00H
	DB	0ffH
	DB	090H
	DB	06cH
	DB	00H
	DB	0ffH
	DB	090H
	DB	06cH
	DB	00H
	DB	0ffH
	DB	090H
	DB	06cH
	DB	00H
	DB	0ffH
	DB	090H
	DB	06cH
	DB	00H
	DB	0ffH
	DB	098H
	DB	06cH
	DB	00H
	DB	0ffH
	DB	090H
	DB	06cH
	DB	00H
	DB	0ffH
	DB	090H
	DB	06cH
	DB	00H
	DB	0ffH
	DB	098H
	DB	06cH
	DB	00H
	DB	0ffH
	DB	090H
	DB	06cH
	DB	00H
	DB	0ffH
	DB	090H
	DB	06cH
	DB	00H
	DB	0ffH
	DB	098H
	DB	06cH
	DB	00H
	DB	0ffH
	DB	090H
	DB	06cH
	DB	00H
	DB	0ffH
	DB	090H
	DB	06cH
	DB	00H
	DB	0ffH
	DB	098H
	DB	06cH
	DB	00H
	DB	0ffH
	DB	090H
	DB	06cH
	DB	00H
	DB	0ffH
	DB	090H
	DB	06cH
	DB	00H
	DB	0ffH
	DB	090H
	DB	06cH
	DB	00H
	DB	0ffH
	DB	090H
	DB	06cH
	DB	00H
	DB	0ffH
	DB	090H
	DB	06cH
	DB	00H
	DB	0ffH
	DB	098H
	DB	06cH
	DB	00H
	DB	0ffH
	DB	090H
	DB	06cH
	DB	00H
	DB	0ffH
	DB	090H
	DB	06cH
	DB	00H
	DB	0ffH
	DB	090H
	DB	06cH
	DB	00H
	DB	0ffH
	DB	090H
	DB	06cH
	DB	00H
	DB	0ffH
	DB	090H
	DB	06cH
	DB	00H
	DB	0ffH
	DB	090H
	DB	06cH
	DB	00H
	DB	0ffH
	DB	090H
	DB	06cH
	DB	00H
	DB	0ffH
	DB	090H
	DB	06cH
	DB	00H
	DB	0ffH
	DB	090H
	DB	06cH
	DB	00H
	DB	0ffH
	DB	090H
	DB	06cH
	DB	00H
	DB	0ffH
	DB	090H
	DB	06cH
	DB	00H
	DB	0ffH
	DB	090H
	DB	06cH
	DB	00H
	DB	0ffH
	DB	090H
	DB	06cH
	DB	00H
	DB	0ffH
	DB	098H
	DB	06cH
	DB	00H
	DB	0ffH
	DB	090H
	DB	06cH
	DB	00H
	DB	0ffH
	DB	090H
	DB	06cH
	DB	00H
	DB	0ffH
	DB	090H
	DB	06cH
	DB	00H
	DB	0ffH
	DB	090H
	DB	06cH
	DB	00H
	DB	0ffH
	DB	098H
	DB	06cH
	DB	00H
	DB	0ffH
	DB	090H
	DB	06cH
	DB	00H
	DB	0ffH
	DB	090H
	DB	06cH
	DB	00H
	DB	0ffH
	DB	090H
	DB	06cH
	DB	00H
	DB	0ffH
	DB	090H
	DB	06cH
	DB	00H
	DB	0ffH
	DB	090H
	DB	06cH
	DB	00H
	DB	0ffH
	DB	090H
	DB	06cH
	DB	00H
	DB	0ffH
	DB	090H
	DB	06cH
	DB	00H
	DB	0ffH
	DB	090H
	DB	06cH
	DB	00H
	DB	0ffH
	DB	090H
	DB	06cH
	DB	00H
	DB	0ffH
	DB	090H
	DB	06cH
	DB	00H
	DB	0ffH
	DB	090H
	DB	06cH
	DB	00H
	DB	0ffH
	DB	098H
	DB	06cH
	DB	00H
	DB	0ffH
	DB	090H
	DB	06cH
	DB	00H
	DB	0ffH
	DB	090H
	DB	06cH
	DB	00H
	DB	0ffH
	DB	098H
	DB	06cH
	DB	00H
	DB	0ffH
	DB	090H
	DB	06cH
	DB	00H
	DB	0ffH
	DB	090H
	DB	06cH
	DB	00H
	DB	0ffH
	DB	090H
	DB	06cH
	DB	00H
	DB	0ffH
	DB	098H
	DB	06cH
	DB	00H
	DB	0ffH
	DB	090H
	DB	06cH
	DB	00H
	DB	0ffH
	DB	090H
	DB	06cH
	DB	00H
	DB	0ffH
	DB	088H
	DB	064H
	DB	00H
	DB	0ffH
	DB	070H
	DB	054H
	DB	00H
	DB	0ffH
	DB	00H
	DB	00H
	DB	00H
	DB	00H
	DB	00H
	DB	00H
	DB	00H
	DB	00H
	DB	00H
	DB	00H
	DB	00H
	DB	00H
	DB	00H
	DB	00H
	DB	00H
	DB	00H
	DB	00H
	DB	00H
	DB	00H
	DB	00H
	DB	00H
	DB	00H
	DB	00H
	DB	00H
	DB	00H
	DB	00H
	DB	00H
	DB	00H
	DB	00H
	DB	00H
	DB	00H
	DB	00H
	DB	00H
	DB	00H
	DB	00H
	DB	00H
	DB	00H
	DB	00H
	DB	00H
	DB	00H
	DB	078H
	DB	058H
	DB	00H
	DB	0ffH
	DB	088H
	DB	064H
	DB	00H
	DB	0ffH
	DB	090H
	DB	06cH
	DB	00H
	DB	0ffH
	DB	098H
	DB	06cH
	DB	00H
	DB	0ffH
	DB	098H
	DB	06cH
	DB	00H
	DB	0ffH
	DB	090H
	DB	06cH
	DB	00H
	DB	0ffH
	DB	098H
	DB	06cH
	DB	00H
	DB	0ffH
	DB	098H
	DB	06cH
	DB	00H
	DB	0ffH
	DB	090H
	DB	06cH
	DB	00H
	DB	0ffH
	DB	098H
	DB	06cH
	DB	00H
	DB	0ffH
	DB	098H
	DB	06cH
	DB	00H
	DB	0ffH
	DB	090H
	DB	06cH
	DB	00H
	DB	0ffH
	DB	098H
	DB	06cH
	DB	00H
	DB	0ffH
	DB	098H
	DB	06cH
	DB	00H
	DB	0ffH
	DB	090H
	DB	06cH
	DB	00H
	DB	0ffH
	DB	098H
	DB	06cH
	DB	00H
	DB	0ffH
	DB	098H
	DB	06cH
	DB	00H
	DB	0ffH
	DB	090H
	DB	06cH
	DB	00H
	DB	0ffH
	DB	098H
	DB	06cH
	DB	00H
	DB	0ffH
	DB	098H
	DB	06cH
	DB	00H
	DB	0ffH
	DB	090H
	DB	06cH
	DB	00H
	DB	0ffH
	DB	098H
	DB	06cH
	DB	00H
	DB	0ffH
	DB	098H
	DB	06cH
	DB	00H
	DB	0ffH
	DB	090H
	DB	06cH
	DB	00H
	DB	0ffH
	DB	098H
	DB	06cH
	DB	00H
	DB	0ffH
	DB	098H
	DB	06cH
	DB	00H
	DB	0ffH
	DB	090H
	DB	06cH
	DB	00H
	DB	0ffH
	DB	098H
	DB	06cH
	DB	00H
	DB	0ffH
	DB	098H
	DB	06cH
	DB	00H
	DB	0ffH
	DB	090H
	DB	06cH
	DB	00H
	DB	0ffH
	DB	098H
	DB	06cH
	DB	00H
	DB	0ffH
	DB	098H
	DB	06cH
	DB	00H
	DB	0ffH
	DB	090H
	DB	06cH
	DB	00H
	DB	0ffH
	DB	098H
	DB	06cH
	DB	00H
	DB	0ffH
	DB	098H
	DB	06cH
	DB	00H
	DB	0ffH
	DB	090H
	DB	06cH
	DB	00H
	DB	0ffH
	DB	098H
	DB	06cH
	DB	00H
	DB	0ffH
	DB	098H
	DB	06cH
	DB	00H
	DB	0ffH
	DB	090H
	DB	06cH
	DB	00H
	DB	0ffH
	DB	098H
	DB	06cH
	DB	00H
	DB	0ffH
	DB	098H
	DB	06cH
	DB	00H
	DB	0ffH
	DB	090H
	DB	06cH
	DB	00H
	DB	0ffH
	DB	098H
	DB	06cH
	DB	00H
	DB	0ffH
	DB	098H
	DB	06cH
	DB	00H
	DB	0ffH
	DB	090H
	DB	06cH
	DB	00H
	DB	0ffH
	DB	098H
	DB	06cH
	DB	00H
	DB	0ffH
	DB	098H
	DB	06cH
	DB	00H
	DB	0ffH
	DB	090H
	DB	06cH
	DB	00H
	DB	0ffH
	DB	098H
	DB	06cH
	DB	00H
	DB	0ffH
	DB	098H
	DB	06cH
	DB	00H
	DB	0ffH
	DB	090H
	DB	06cH
	DB	00H
	DB	0ffH
	DB	098H
	DB	06cH
	DB	00H
	DB	0ffH
	DB	098H
	DB	06cH
	DB	00H
	DB	0ffH
	DB	090H
	DB	06cH
	DB	00H
	DB	0ffH
	DB	098H
	DB	06cH
	DB	00H
	DB	0ffH
	DB	098H
	DB	06cH
	DB	00H
	DB	0ffH
	DB	090H
	DB	06cH
	DB	00H
	DB	0ffH
	DB	098H
	DB	06cH
	DB	00H
	DB	0ffH
	DB	098H
	DB	06cH
	DB	00H
	DB	0ffH
	DB	090H
	DB	06cH
	DB	00H
	DB	0ffH
	DB	098H
	DB	06cH
	DB	00H
	DB	0ffH
	DB	098H
	DB	06cH
	DB	00H
	DB	0ffH
	DB	090H
	DB	06cH
	DB	00H
	DB	0ffH
	DB	098H
	DB	06cH
	DB	00H
	DB	0ffH
	DB	098H
	DB	06cH
	DB	00H
	DB	0ffH
	DB	090H
	DB	06cH
	DB	00H
	DB	0ffH
	DB	098H
	DB	06cH
	DB	00H
	DB	0ffH
	DB	098H
	DB	06cH
	DB	00H
	DB	0ffH
	DB	090H
	DB	06cH
	DB	00H
	DB	0ffH
	DB	098H
	DB	06cH
	DB	00H
	DB	0ffH
	DB	098H
	DB	06cH
	DB	00H
	DB	0ffH
	DB	090H
	DB	06cH
	DB	00H
	DB	0ffH
	DB	098H
	DB	06cH
	DB	00H
	DB	0ffH
	DB	098H
	DB	06cH
	DB	00H
	DB	0ffH
	DB	090H
	DB	06cH
	DB	00H
	DB	0ffH
	DB	098H
	DB	06cH
	DB	00H
	DB	0ffH
	DB	098H
	DB	06cH
	DB	00H
	DB	0ffH
	DB	090H
	DB	06cH
	DB	00H
	DB	0ffH
	DB	098H
	DB	06cH
	DB	00H
	DB	0ffH
	DB	098H
	DB	06cH
	DB	00H
	DB	0ffH
	DB	090H
	DB	06cH
	DB	00H
	DB	0ffH
	DB	098H
	DB	06cH
	DB	00H
	DB	0ffH
	DB	098H
	DB	06cH
	DB	00H
	DB	0ffH
	DB	090H
	DB	06cH
	DB	00H
	DB	0ffH
	DB	098H
	DB	06cH
	DB	00H
	DB	0ffH
	DB	098H
	DB	06cH
	DB	00H
	DB	0ffH
	DB	090H
	DB	06cH
	DB	00H
	DB	0ffH
	DB	098H
	DB	06cH
	DB	00H
	DB	0ffH
	DB	098H
	DB	06cH
	DB	00H
	DB	0ffH
	DB	090H
	DB	06cH
	DB	00H
	DB	0ffH
	DB	098H
	DB	06cH
	DB	00H
	DB	0ffH
	DB	098H
	DB	06cH
	DB	00H
	DB	0ffH
	DB	090H
	DB	06cH
	DB	00H
	DB	0ffH
	DB	098H
	DB	06cH
	DB	00H
	DB	0ffH
	DB	098H
	DB	06cH
	DB	00H
	DB	0ffH
	DB	090H
	DB	06cH
	DB	00H
	DB	0ffH
	DB	098H
	DB	06cH
	DB	00H
	DB	0ffH
	DB	098H
	DB	06cH
	DB	00H
	DB	0ffH
	DB	090H
	DB	06cH
	DB	00H
	DB	0ffH
	DB	098H
	DB	06cH
	DB	00H
	DB	0ffH
	DB	098H
	DB	06cH
	DB	00H
	DB	0ffH
	DB	090H
	DB	06cH
	DB	00H
	DB	0ffH
	DB	098H
	DB	06cH
	DB	00H
	DB	0ffH
	DB	098H
	DB	06cH
	DB	00H
	DB	0ffH
	DB	090H
	DB	06cH
	DB	00H
	DB	0ffH
	DB	098H
	DB	06cH
	DB	00H
	DB	0ffH
	DB	090H
	DB	06cH
	DB	00H
	DB	0ffH
	DB	098H
	DB	06cH
	DB	00H
	DB	0ffH
	DB	098H
	DB	06cH
	DB	00H
	DB	0ffH
	DB	090H
	DB	06cH
	DB	00H
	DB	0ffH
	DB	098H
	DB	06cH
	DB	00H
	DB	0ffH
	DB	098H
	DB	06cH
	DB	00H
	DB	0ffH
	DB	090H
	DB	06cH
	DB	00H
	DB	0ffH
	DB	098H
	DB	06cH
	DB	00H
	DB	0ffH
	DB	098H
	DB	06cH
	DB	00H
	DB	0ffH
	DB	090H
	DB	06cH
	DB	00H
	DB	0ffH
	DB	098H
	DB	06cH
	DB	00H
	DB	0ffH
	DB	098H
	DB	06cH
	DB	00H
	DB	0ffH
	DB	090H
	DB	06cH
	DB	00H
	DB	0ffH
	DB	098H
	DB	06cH
	DB	00H
	DB	0ffH
	DB	098H
	DB	06cH
	DB	00H
	DB	0ffH
	DB	090H
	DB	06cH
	DB	00H
	DB	0ffH
	DB	098H
	DB	06cH
	DB	00H
	DB	0ffH
	DB	098H
	DB	06cH
	DB	00H
	DB	0ffH
	DB	090H
	DB	06cH
	DB	00H
	DB	0ffH
	DB	098H
	DB	06cH
	DB	00H
	DB	0ffH
	DB	098H
	DB	06cH
	DB	00H
	DB	0ffH
	DB	090H
	DB	06cH
	DB	00H
	DB	0ffH
	DB	098H
	DB	06cH
	DB	00H
	DB	0ffH
	DB	098H
	DB	06cH
	DB	00H
	DB	0ffH
	DB	090H
	DB	06cH
	DB	00H
	DB	0ffH
	DB	098H
	DB	06cH
	DB	00H
	DB	0ffH
	DB	098H
	DB	06cH
	DB	00H
	DB	0ffH
	DB	090H
	DB	06cH
	DB	00H
	DB	0ffH
	DB	098H
	DB	06cH
	DB	00H
	DB	0ffH
	DB	098H
	DB	06cH
	DB	00H
	DB	0ffH
	DB	090H
	DB	06cH
	DB	00H
	DB	0ffH
	DB	098H
	DB	06cH
	DB	00H
	DB	0ffH
	DB	098H
	DB	06cH
	DB	00H
	DB	0ffH
	DB	098H
	DB	06cH
	DB	00H
	DB	0ffH
	DB	098H
	DB	06cH
	DB	00H
	DB	0ffH
	DB	098H
	DB	06cH
	DB	00H
	DB	0ffH
	DB	090H
	DB	06cH
	DB	00H
	DB	0ffH
	DB	098H
	DB	06cH
	DB	00H
	DB	0ffH
	DB	098H
	DB	06cH
	DB	00H
	DB	0ffH
	DB	090H
	DB	06cH
	DB	00H
	DB	0ffH
	DB	098H
	DB	06cH
	DB	00H
	DB	0ffH
	DB	098H
	DB	06cH
	DB	00H
	DB	0ffH
	DB	090H
	DB	06cH
	DB	00H
	DB	0ffH
	DB	098H
	DB	06cH
	DB	00H
	DB	0ffH
	DB	090H
	DB	06cH
	DB	00H
	DB	0ffH
	DB	098H
	DB	06cH
	DB	00H
	DB	0ffH
	DB	098H
	DB	06cH
	DB	00H
	DB	0ffH
	DB	090H
	DB	06cH
	DB	00H
	DB	0ffH
	DB	098H
	DB	06cH
	DB	00H
	DB	0ffH
	DB	098H
	DB	06cH
	DB	00H
	DB	0ffH
	DB	090H
	DB	06cH
	DB	00H
	DB	0ffH
	DB	090H
	DB	06cH
	DB	00H
	DB	0ffH
	DB	088H
	DB	064H
	DB	00H
	DB	0ffH
	DB	078H
	DB	054H
	DB	00H
	DB	0ffH
	DB	00H
	DB	00H
	DB	00H
	DB	00H
	DB	00H
	DB	00H
	DB	00H
	DB	00H
	DB	00H
	DB	00H
	DB	00H
	DB	00H
	DB	00H
	DB	00H
	DB	00H
	DB	00H
	DB	00H
	DB	00H
	DB	00H
	DB	00H
	DB	00H
	DB	00H
	DB	00H
	DB	00H
	DB	00H
	DB	00H
	DB	00H
	DB	00H
	DB	00H
	DB	00H
	DB	00H
	DB	00H
	DB	00H
	DB	00H
	DB	00H
	DB	00H
	DB	00H
	DB	00H
	DB	00H
	DB	00H
	DB	078H
	DB	054H
	DB	00H
	DB	0ffH
	DB	088H
	DB	064H
	DB	00H
	DB	0ffH
	DB	090H
	DB	06cH
	DB	00H
	DB	0ffH
	DB	090H
	DB	06cH
	DB	00H
	DB	0ffH
	DB	098H
	DB	06cH
	DB	00H
	DB	0ffH
	DB	098H
	DB	06cH
	DB	00H
	DB	0ffH
	DB	090H
	DB	06cH
	DB	00H
	DB	0ffH
	DB	098H
	DB	06cH
	DB	00H
	DB	0ffH
	DB	090H
	DB	06cH
	DB	00H
	DB	0ffH
	DB	098H
	DB	06cH
	DB	00H
	DB	0ffH
	DB	090H
	DB	06cH
	DB	00H
	DB	0ffH
	DB	098H
	DB	06cH
	DB	00H
	DB	0ffH
	DB	090H
	DB	06cH
	DB	00H
	DB	0ffH
	DB	098H
	DB	06cH
	DB	00H
	DB	0ffH
	DB	090H
	DB	06cH
	DB	00H
	DB	0ffH
	DB	098H
	DB	06cH
	DB	00H
	DB	0ffH
	DB	098H
	DB	06cH
	DB	00H
	DB	0ffH
	DB	090H
	DB	06cH
	DB	00H
	DB	0ffH
	DB	090H
	DB	06cH
	DB	00H
	DB	0ffH
	DB	098H
	DB	06cH
	DB	00H
	DB	0ffH
	DB	090H
	DB	06cH
	DB	00H
	DB	0ffH
	DB	090H
	DB	06cH
	DB	00H
	DB	0ffH
	DB	098H
	DB	06cH
	DB	00H
	DB	0ffH
	DB	090H
	DB	06cH
	DB	00H
	DB	0ffH
	DB	090H
	DB	06cH
	DB	00H
	DB	0ffH
	DB	098H
	DB	06cH
	DB	00H
	DB	0ffH
	DB	090H
	DB	06cH
	DB	00H
	DB	0ffH
	DB	090H
	DB	06cH
	DB	00H
	DB	0ffH
	DB	098H
	DB	06cH
	DB	00H
	DB	0ffH
	DB	090H
	DB	06cH
	DB	00H
	DB	0ffH
	DB	090H
	DB	06cH
	DB	00H
	DB	0ffH
	DB	098H
	DB	06cH
	DB	00H
	DB	0ffH
	DB	090H
	DB	06cH
	DB	00H
	DB	0ffH
	DB	090H
	DB	06cH
	DB	00H
	DB	0ffH
	DB	098H
	DB	06cH
	DB	00H
	DB	0ffH
	DB	090H
	DB	06cH
	DB	00H
	DB	0ffH
	DB	098H
	DB	06cH
	DB	00H
	DB	0ffH
	DB	090H
	DB	06cH
	DB	00H
	DB	0ffH
	DB	090H
	DB	06cH
	DB	00H
	DB	0ffH
	DB	098H
	DB	06cH
	DB	00H
	DB	0ffH
	DB	090H
	DB	06cH
	DB	00H
	DB	0ffH
	DB	090H
	DB	06cH
	DB	00H
	DB	0ffH
	DB	098H
	DB	06cH
	DB	00H
	DB	0ffH
	DB	090H
	DB	06cH
	DB	00H
	DB	0ffH
	DB	098H
	DB	06cH
	DB	00H
	DB	0ffH
	DB	098H
	DB	06cH
	DB	00H
	DB	0ffH
	DB	090H
	DB	06cH
	DB	00H
	DB	0ffH
	DB	098H
	DB	06cH
	DB	00H
	DB	0ffH
	DB	098H
	DB	06cH
	DB	00H
	DB	0ffH
	DB	090H
	DB	06cH
	DB	00H
	DB	0ffH
	DB	098H
	DB	06cH
	DB	00H
	DB	0ffH
	DB	098H
	DB	06cH
	DB	00H
	DB	0ffH
	DB	090H
	DB	06cH
	DB	00H
	DB	0ffH
	DB	098H
	DB	06cH
	DB	00H
	DB	0ffH
	DB	090H
	DB	06cH
	DB	00H
	DB	0ffH
	DB	090H
	DB	06cH
	DB	00H
	DB	0ffH
	DB	098H
	DB	06cH
	DB	00H
	DB	0ffH
	DB	090H
	DB	06cH
	DB	00H
	DB	0ffH
	DB	090H
	DB	06cH
	DB	00H
	DB	0ffH
	DB	098H
	DB	06cH
	DB	00H
	DB	0ffH
	DB	090H
	DB	06cH
	DB	00H
	DB	0ffH
	DB	090H
	DB	06cH
	DB	00H
	DB	0ffH
	DB	098H
	DB	06cH
	DB	00H
	DB	0ffH
	DB	090H
	DB	06cH
	DB	00H
	DB	0ffH
	DB	098H
	DB	06cH
	DB	00H
	DB	0ffH
	DB	090H
	DB	06cH
	DB	00H
	DB	0ffH
	DB	090H
	DB	06cH
	DB	00H
	DB	0ffH
	DB	098H
	DB	06cH
	DB	00H
	DB	0ffH
	DB	090H
	DB	06cH
	DB	00H
	DB	0ffH
	DB	098H
	DB	06cH
	DB	00H
	DB	0ffH
	DB	090H
	DB	06cH
	DB	00H
	DB	0ffH
	DB	090H
	DB	06cH
	DB	00H
	DB	0ffH
	DB	098H
	DB	06cH
	DB	00H
	DB	0ffH
	DB	098H
	DB	06cH
	DB	00H
	DB	0ffH
	DB	090H
	DB	06cH
	DB	00H
	DB	0ffH
	DB	090H
